MODULE windows x86_64 EE9E2672A6863B084C4C44205044422E1 crash.pdb
INFO CODE_ID 6521619A6DD000 crash.exe
INFO GENERATOR mozilla/dump_syms 2.2.1
PUBLIC 1140 0 WinMainCRTStartup
PUBLIC 1350 0 mainCRTStartup
PUBLIC 1370 0 atexit
FUNC 13a0 234 0 run(int, char**)
FUNC 15e0 597 0 init_logging()
FUNC 1b80 c9 0 crash()
FUNC 1c50 43 0 main(int, char**)
FUNC 1ca0 c9 0 crash1()
FUNC 1d70 b9 0 crash2()
FUNC 1e30 a4 0 prettify_function(std::__1::basic_string_view<char,std::__1::char_traits<char> >)
FUNC 1ee0 3b 0 std::__1::basic_string_view<char,std::__1::char_traits<char> >::basic_string_view(char const*)
FUNC 1f20 6e 0 std::__1::basic_string<char,std::__1::char_traits<char>,std::__1::allocator<char> >::basic_string<std::__1::basic_string_view<char,std::__1::char_traits<char> >,0>(std::__1::basic_string_view<char,std::__1::char_traits<char> > const&)
FUNC 1f90 111 0 ScopedTrace::ScopedTrace(std::__1::basic_string<char,std::__1::char_traits<char>,std::__1::allocator<char> > const&)
FUNC 20b0 1f3 0 ScopedTrace::var<std::__1::basic_string<char,std::__1::char_traits<char>,std::__1::allocator<char> > >(std::__1::basic_string<char,std::__1::char_traits<char>,std::__1::allocator<char> > const&)
FUNC 22b0 46 0 std::__1::operator+<char,std::__1::char_traits<char>,std::__1::allocator<char> >(std::__1::basic_string<char,std::__1::char_traits<char>,std::__1::allocator<char> >&&, char const*)
FUNC 2300 53 0 std::__1::basic_string<char,std::__1::char_traits<char>,std::__1::allocator<char> >::basic_string<0>(char const*)
PUBLIC 2360 0 _clang_call_terminate
FUNC 2370 8f 0 ScopedTrace::~ScopedTrace()
FUNC 2400 39 0 std::__1::make_shared<spdlog::sinks::wincolor_stdout_sink<spdlog::details::console_mutex>,void>()
FUNC 2440 71 0 std::__1::make_shared<spdlog::sinks::rotating_file_sink<std::__1::mutex>,const char *const &,int,int,bool,void>(char const* const&, int&&, int&&, bool&&)
FUNC 24c0 4d 0 std::__1::make_shared<spdlog::logger,const char (&)[9],std::initializer_list<std::__1::shared_ptr<spdlog::sinks::sink> >,void>(char[9] const&, std::initializer_list<std::__1::shared_ptr<spdlog::sinks::sink> >&&)
FUNC 2510 4f 0 std::__1::shared_ptr<spdlog::sinks::sink>::shared_ptr<spdlog::sinks::rotating_file_sink<std::__1::mutex>,void>(std::__1::shared_ptr<spdlog::sinks::rotating_file_sink<std::__1::mutex> > const&)
FUNC 2560 4f 0 std::__1::shared_ptr<spdlog::sinks::sink>::shared_ptr<spdlog::sinks::wincolor_stdout_sink<spdlog::details::console_mutex>,void>(std::__1::shared_ptr<spdlog::sinks::wincolor_stdout_sink<spdlog::details::console_mutex> > const&)
FUNC 25b0 32 0 std::__1::shared_ptr<spdlog::sinks::sink>::~shared_ptr()
FUNC 25f0 e 0 std::__1::shared_ptr<spdlog::logger>::operator->() const
FUNC 2600 4f 0 std::__1::shared_ptr<spdlog::logger>::shared_ptr(std::__1::shared_ptr<spdlog::logger> const&)
FUNC 2650 32 0 std::__1::shared_ptr<spdlog::logger>::~shared_ptr()
FUNC 2690 22 0 spdlog::info<char[17]>(char[17] const&)
FUNC 26c0 47 0 spdlog::info<const char *const &>(fmt::v10::basic_format_string<char,const char *const &>, char const* const&)
FUNC 2710 4d 0 std::__1::make_shared<spdlog::logger,const char (&)[6],std::__1::shared_ptr<spdlog::sinks::rotating_file_sink<std::__1::mutex> > &,void>(char[6] const&, std::__1::shared_ptr<spdlog::sinks::rotating_file_sink<std::__1::mutex> >&)
FUNC 2760 1e 0 ScopedTrace::init(std::__1::shared_ptr<spdlog::logger>)
FUNC 2780 32 0 std::__1::shared_ptr<spdlog::sinks::rotating_file_sink<std::__1::mutex> >::~shared_ptr()
FUNC 27c0 32 0 std::__1::shared_ptr<spdlog::sinks::wincolor_stdout_sink<spdlog::details::console_mutex> >::~shared_ptr()
FUNC 2800 ba 0 std::__1::allocate_shared<spdlog::sinks::wincolor_stdout_sink<spdlog::details::console_mutex>,std::__1::allocator<spdlog::sinks::wincolor_stdout_sink<spdlog::details::console_mutex> >,void>(std::__1::allocator<spdlog::sinks::wincolor_stdout_sink<spdlog::details::console_mutex> > const&)
FUNC 28c0 19 0 std::__1::allocator<spdlog::sinks::wincolor_stdout_sink<spdlog::details::console_mutex> >::allocator()
FUNC 28e0 4e 0 std::__1::__allocation_guard<std::__1::allocator<std::__1::__shared_ptr_emplace<spdlog::sinks::wincolor_stdout_sink<spdlog::details::console_mutex>,std::__1::allocator<spdlog::sinks::wincolor_stdout_sink<spdlog::details::console_mutex> > > > >::__allocation_guard<std::__1::allocator<spdlog::sinks::wincolor_stdout_sink<spdlog::details::console_mutex> > >(std::__1::allocator<spdlog::sinks::wincolor_stdout_sink<spdlog::details::console_mutex> >, unsigned long long)
FUNC 2930 f 0 std::__1::__allocation_guard<std::__1::allocator<std::__1::__shared_ptr_emplace<spdlog::sinks::wincolor_stdout_sink<spdlog::details::console_mutex>,std::__1::allocator<spdlog::sinks::wincolor_stdout_sink<spdlog::details::console_mutex> > > > >::__get() const
FUNC 2940 b8 0 std::__1::__shared_ptr_emplace<spdlog::sinks::wincolor_stdout_sink<spdlog::details::console_mutex>,std::__1::allocator<spdlog::sinks::wincolor_stdout_sink<spdlog::details::console_mutex> > >::__shared_ptr_emplace<>(std::__1::allocator<spdlog::sinks::wincolor_stdout_sink<spdlog::details::console_mutex> >)
FUNC 2a00 27 0 std::__1::__allocation_guard<std::__1::allocator<std::__1::__shared_ptr_emplace<spdlog::sinks::wincolor_stdout_sink<spdlog::details::console_mutex>,std::__1::allocator<spdlog::sinks::wincolor_stdout_sink<spdlog::details::console_mutex> > > > >::__release_ptr()
FUNC 2a30 6f 0 std::__1::shared_ptr<spdlog::sinks::wincolor_stdout_sink<spdlog::details::console_mutex> >::__create_with_control_block<spdlog::sinks::wincolor_stdout_sink<spdlog::details::console_mutex>,std::__1::__shared_ptr_emplace<spdlog::sinks::wincolor_stdout_sink<spdlog::details::console_mutex>,std::__1::allocator<spdlog::sinks::wincolor_stdout_sink<spdlog::details::console_mutex> > > >(spdlog::sinks::wincolor_stdout_sink<spdlog::details::console_mutex>*, std::__1::__shared_ptr_emplace<spdlog::sinks::wincolor_stdout_sink<spdlog::details::console_mutex>,std::__1::allocator<spdlog::sinks::wincolor_stdout_sink<spdlog::details::console_mutex> > >*)
FUNC 2aa0 1d 0 std::__1::__shared_ptr_emplace<spdlog::sinks::wincolor_stdout_sink<spdlog::details::console_mutex>,std::__1::allocator<spdlog::sinks::wincolor_stdout_sink<spdlog::details::console_mutex> > >::__get_elem()
FUNC 2ac0 19 0 std::__1::__allocation_guard<std::__1::allocator<std::__1::__shared_ptr_emplace<spdlog::sinks::wincolor_stdout_sink<spdlog::details::console_mutex>,std::__1::allocator<spdlog::sinks::wincolor_stdout_sink<spdlog::details::console_mutex> > > > >::~__allocation_guard()
FUNC 2ae0 1e 0 std::__1::allocator<std::__1::__shared_ptr_emplace<spdlog::sinks::wincolor_stdout_sink<spdlog::details::console_mutex>,std::__1::allocator<spdlog::sinks::wincolor_stdout_sink<spdlog::details::console_mutex> > > >::allocator<spdlog::sinks::wincolor_stdout_sink<spdlog::details::console_mutex> >(std::__1::allocator<spdlog::sinks::wincolor_stdout_sink<spdlog::details::console_mutex> > const&)
FUNC 2b00 23 0 std::__1::allocator_traits<std::__1::allocator<std::__1::__shared_ptr_emplace<spdlog::sinks::wincolor_stdout_sink<spdlog::details::console_mutex>,std::__1::allocator<spdlog::sinks::wincolor_stdout_sink<spdlog::details::console_mutex> > > > >::allocate(std::__1::allocator<std::__1::__shared_ptr_emplace<spdlog::sinks::wincolor_stdout_sink<spdlog::details::console_mutex>,std::__1::allocator<spdlog::sinks::wincolor_stdout_sink<spdlog::details::console_mutex> > > >&, unsigned long long)
FUNC 2b30 7 0 std::__1::__non_trivial_if<1,std::__1::allocator<std::__1::__shared_ptr_emplace<spdlog::sinks::wincolor_stdout_sink<spdlog::details::console_mutex>,std::__1::allocator<spdlog::sinks::wincolor_stdout_sink<spdlog::details::console_mutex> > > > >::__non_trivial_if()
FUNC 2b40 4e 0 std::__1::allocator<std::__1::__shared_ptr_emplace<spdlog::sinks::wincolor_stdout_sink<spdlog::details::console_mutex>,std::__1::allocator<spdlog::sinks::wincolor_stdout_sink<spdlog::details::console_mutex> > > >::allocate(unsigned long long)
FUNC 2b90 1d 0 std::__1::allocator_traits<std::__1::allocator<std::__1::__shared_ptr_emplace<spdlog::sinks::wincolor_stdout_sink<spdlog::details::console_mutex>,std::__1::allocator<spdlog::sinks::wincolor_stdout_sink<spdlog::details::console_mutex> > > > >::max_size<std::__1::allocator<std::__1::__shared_ptr_emplace<spdlog::sinks::wincolor_stdout_sink<spdlog::details::console_mutex>,std::__1::allocator<spdlog::sinks::wincolor_stdout_sink<spdlog::details::console_mutex> > > >,void,void>(std::__1::allocator<std::__1::__shared_ptr_emplace<spdlog::sinks::wincolor_stdout_sink<spdlog::details::console_mutex>,std::__1::allocator<spdlog::sinks::wincolor_stdout_sink<spdlog::details::console_mutex> > > > const&)
FUNC 2bb0 34 0 std::__throw_bad_array_new_length()
FUNC 2bf0 61 0 std::__1::__libcpp_allocate(unsigned long long, unsigned long long)
FUNC 2c60 f 0 std::__1::numeric_limits<unsigned long long>::max()
FUNC 2c70 8 0 std::__1::__libcpp_numeric_limits<unsigned long long,1>::max()
FUNC 2c80 14 0 std::__1::__is_overaligned_for_new(unsigned long long)
FUNC 2ca0 23 0 std::__1::__libcpp_operator_new<unsigned long long,std::align_val_t>(unsigned long long, std::align_val_t)
FUNC 2cd0 19 0 std::__1::__libcpp_operator_new<unsigned long long>(unsigned long long)
FUNC 2cf0 3f 0 std::__1::__shared_weak_count::__shared_weak_count(long)
FUNC 2d30 1e 0 std::__1::__shared_ptr_emplace<spdlog::sinks::wincolor_stdout_sink<spdlog::details::console_mutex>,std::__1::allocator<spdlog::sinks::wincolor_stdout_sink<spdlog::details::console_mutex> > >::_Storage::_Storage(std::__1::allocator<spdlog::sinks::wincolor_stdout_sink<spdlog::details::console_mutex> >&&)
FUNC 2d50 1d 0 std::__1::__shared_ptr_emplace<spdlog::sinks::wincolor_stdout_sink<spdlog::details::console_mutex>,std::__1::allocator<spdlog::sinks::wincolor_stdout_sink<spdlog::details::console_mutex> > >::__get_alloc()
FUNC 2d70 1e 0 std::__1::allocator_traits<std::__1::allocator<spdlog::sinks::wincolor_stdout_sink<spdlog::details::console_mutex> > >::construct<spdlog::sinks::wincolor_stdout_sink<spdlog::details::console_mutex>,void,void>(std::__1::allocator<spdlog::sinks::wincolor_stdout_sink<spdlog::details::console_mutex> >&, spdlog::sinks::wincolor_stdout_sink<spdlog::details::console_mutex>*)
FUNC 2d90 19 0 std::__1::__shared_ptr_emplace<spdlog::sinks::wincolor_stdout_sink<spdlog::details::console_mutex>,std::__1::allocator<spdlog::sinks::wincolor_stdout_sink<spdlog::details::console_mutex> > >::_Storage::~_Storage()
FUNC 2db0 3a 0 std::__1::__shared_ptr_emplace<spdlog::sinks::wincolor_stdout_sink<spdlog::details::console_mutex>,std::__1::allocator<spdlog::sinks::wincolor_stdout_sink<spdlog::details::console_mutex> > >::~__shared_ptr_emplace()
FUNC 2df0 28 0 std::__1::__shared_ptr_emplace<spdlog::sinks::wincolor_stdout_sink<spdlog::details::console_mutex>,std::__1::allocator<spdlog::sinks::wincolor_stdout_sink<spdlog::details::console_mutex> > >::~__shared_ptr_emplace()
FUNC 2e20 42 0 std::__1::__shared_ptr_emplace<spdlog::sinks::wincolor_stdout_sink<spdlog::details::console_mutex>,std::__1::allocator<spdlog::sinks::wincolor_stdout_sink<spdlog::details::console_mutex> > >::__on_zero_shared()
FUNC 2e70 56 0 std::__1::__shared_ptr_emplace<spdlog::sinks::wincolor_stdout_sink<spdlog::details::console_mutex>,std::__1::allocator<spdlog::sinks::wincolor_stdout_sink<spdlog::details::console_mutex> > >::__on_zero_shared_weak()
FUNC 2ed0 2c 0 std::__1::__shared_count::__shared_count(long)
FUNC 2f00 36 0 std::__1::__shared_ptr_emplace<spdlog::sinks::wincolor_stdout_sink<spdlog::details::console_mutex>,std::__1::allocator<spdlog::sinks::wincolor_stdout_sink<spdlog::details::console_mutex> > >::_Storage::__get_alloc()
FUNC 2f40 b 0 std::__1::__compressed_pair<std::__1::allocator<spdlog::sinks::wincolor_stdout_sink<spdlog::details::console_mutex> >,spdlog::sinks::wincolor_stdout_sink<spdlog::details::console_mutex> >::__get_first_base(std::__1::__compressed_pair<std::__1::allocator<spdlog::sinks::wincolor_stdout_sink<spdlog::details::console_mutex> >,spdlog::sinks::wincolor_stdout_sink<spdlog::details::console_mutex> >*)
FUNC 2f50 31 0 std::__1::construct_at<spdlog::sinks::wincolor_stdout_sink<spdlog::details::console_mutex>,spdlog::sinks::wincolor_stdout_sink<spdlog::details::console_mutex> *>(spdlog::sinks::wincolor_stdout_sink<spdlog::details::console_mutex>*)
FUNC 2f90 1e 0 std::__1::allocator_traits<std::__1::allocator<spdlog::sinks::wincolor_stdout_sink<spdlog::details::console_mutex> > >::destroy<spdlog::sinks::wincolor_stdout_sink<spdlog::details::console_mutex>,void,void>(std::__1::allocator<spdlog::sinks::wincolor_stdout_sink<spdlog::details::console_mutex> >&, spdlog::sinks::wincolor_stdout_sink<spdlog::details::console_mutex>*)
FUNC 2fb0 19 0 std::__1::destroy_at<spdlog::sinks::wincolor_stdout_sink<spdlog::details::console_mutex>,0>(spdlog::sinks::wincolor_stdout_sink<spdlog::details::console_mutex>*)
FUNC 2fd0 19 0 std::__1::__destroy_at<spdlog::sinks::wincolor_stdout_sink<spdlog::details::console_mutex>,0>(spdlog::sinks::wincolor_stdout_sink<spdlog::details::console_mutex>*)
FUNC 2ff0 2d 0 std::__1::allocator_traits<std::__1::allocator<std::__1::__shared_ptr_emplace<spdlog::sinks::wincolor_stdout_sink<spdlog::details::console_mutex>,std::__1::allocator<spdlog::sinks::wincolor_stdout_sink<spdlog::details::console_mutex> > > > >::deallocate(std::__1::allocator<std::__1::__shared_ptr_emplace<spdlog::sinks::wincolor_stdout_sink<spdlog::details::console_mutex>,std::__1::allocator<spdlog::sinks::wincolor_stdout_sink<spdlog::details::console_mutex> > > >&, std::__1::__shared_ptr_emplace<spdlog::sinks::wincolor_stdout_sink<spdlog::details::console_mutex>,std::__1::allocator<spdlog::sinks::wincolor_stdout_sink<spdlog::details::console_mutex> > >*, unsigned long long)
FUNC 3020 b 0 std::__1::pointer_traits<std::__1::__shared_ptr_emplace<spdlog::sinks::wincolor_stdout_sink<spdlog::details::console_mutex>,std::__1::allocator<spdlog::sinks::wincolor_stdout_sink<spdlog::details::console_mutex> > > *>::pointer_to(std::__1::__shared_ptr_emplace<spdlog::sinks::wincolor_stdout_sink<spdlog::details::console_mutex>,std::__1::allocator<spdlog::sinks::wincolor_stdout_sink<spdlog::details::console_mutex> > >&)
FUNC 3030 43 0 std::__1::allocator<std::__1::__shared_ptr_emplace<spdlog::sinks::wincolor_stdout_sink<spdlog::details::console_mutex>,std::__1::allocator<spdlog::sinks::wincolor_stdout_sink<spdlog::details::console_mutex> > > >::deallocate(std::__1::__shared_ptr_emplace<spdlog::sinks::wincolor_stdout_sink<spdlog::details::console_mutex>,std::__1::allocator<spdlog::sinks::wincolor_stdout_sink<spdlog::details::console_mutex> > >*, unsigned long long)
FUNC 3080 62 0 std::__1::__libcpp_deallocate(void*, unsigned long long, unsigned long long)
FUNC 30f0 28 0 std::__1::__do_deallocate_handle_size<std::align_val_t>(void*, unsigned long long, std::align_val_t)
FUNC 3120 1e 0 std::__1::__do_deallocate_handle_size<>(void*, unsigned long long)
FUNC 3140 23 0 std::__1::__libcpp_operator_delete<void *,std::align_val_t>(void*, std::align_val_t)
FUNC 3170 19 0 std::__1::__libcpp_operator_delete<void *>(void*)
FUNC 3190 1a 0 std::__1::shared_ptr<spdlog::sinks::wincolor_stdout_sink<spdlog::details::console_mutex> >::shared_ptr()
FUNC 31b0 7 0 std::__1::shared_ptr<spdlog::sinks::wincolor_stdout_sink<spdlog::details::console_mutex> >::__enable_weak_this(<NoType>)
FUNC 31c0 36 0 std::__1::__shared_ptr_emplace<spdlog::sinks::wincolor_stdout_sink<spdlog::details::console_mutex>,std::__1::allocator<spdlog::sinks::wincolor_stdout_sink<spdlog::details::console_mutex> > >::_Storage::__get_elem()
FUNC 3200 b 0 std::__1::__compressed_pair<std::__1::allocator<spdlog::sinks::wincolor_stdout_sink<spdlog::details::console_mutex> >,spdlog::sinks::wincolor_stdout_sink<spdlog::details::console_mutex> >::__get_second_base(std::__1::__compressed_pair<std::__1::allocator<spdlog::sinks::wincolor_stdout_sink<spdlog::details::console_mutex> >,spdlog::sinks::wincolor_stdout_sink<spdlog::details::console_mutex> >*)
FUNC 3210 36 0 std::__1::__allocation_guard<std::__1::allocator<std::__1::__shared_ptr_emplace<spdlog::sinks::wincolor_stdout_sink<spdlog::details::console_mutex>,std::__1::allocator<spdlog::sinks::wincolor_stdout_sink<spdlog::details::console_mutex> > > > >::__destroy()
FUNC 3250 7 0 std::__1::__non_trivial_if<1,std::__1::allocator<spdlog::sinks::wincolor_stdout_sink<spdlog::details::console_mutex> > >::__non_trivial_if()
FUNC 3260 108 0 std::__1::allocate_shared<spdlog::sinks::rotating_file_sink<std::__1::mutex>,std::__1::allocator<spdlog::sinks::rotating_file_sink<std::__1::mutex> >,const char *const &,int,int,bool,void>(std::__1::allocator<spdlog::sinks::rotating_file_sink<std::__1::mutex> > const&, char const* const&, int&&, int&&, bool&&)
FUNC 3370 19 0 std::__1::allocator<spdlog::sinks::rotating_file_sink<std::__1::mutex> >::allocator()
FUNC 3390 4e 0 std::__1::__allocation_guard<std::__1::allocator<std::__1::__shared_ptr_emplace<spdlog::sinks::rotating_file_sink<std::__1::mutex>,std::__1::allocator<spdlog::sinks::rotating_file_sink<std::__1::mutex> > > > >::__allocation_guard<std::__1::allocator<spdlog::sinks::rotating_file_sink<std::__1::mutex> > >(std::__1::allocator<spdlog::sinks::rotating_file_sink<std::__1::mutex> >, unsigned long long)
FUNC 33e0 f 0 std::__1::__allocation_guard<std::__1::allocator<std::__1::__shared_ptr_emplace<spdlog::sinks::rotating_file_sink<std::__1::mutex>,std::__1::allocator<spdlog::sinks::rotating_file_sink<std::__1::mutex> > > > >::__get() const
FUNC 33f0 f7 0 std::__1::__shared_ptr_emplace<spdlog::sinks::rotating_file_sink<std::__1::mutex>,std::__1::allocator<spdlog::sinks::rotating_file_sink<std::__1::mutex> > >::__shared_ptr_emplace<const char *const &,int,int,bool>(std::__1::allocator<spdlog::sinks::rotating_file_sink<std::__1::mutex> >, char const* const&, int&&, int&&, bool&&)
FUNC 34f0 27 0 std::__1::__allocation_guard<std::__1::allocator<std::__1::__shared_ptr_emplace<spdlog::sinks::rotating_file_sink<std::__1::mutex>,std::__1::allocator<spdlog::sinks::rotating_file_sink<std::__1::mutex> > > > >::__release_ptr()
FUNC 3520 6f 0 std::__1::shared_ptr<spdlog::sinks::rotating_file_sink<std::__1::mutex> >::__create_with_control_block<spdlog::sinks::rotating_file_sink<std::__1::mutex>,std::__1::__shared_ptr_emplace<spdlog::sinks::rotating_file_sink<std::__1::mutex>,std::__1::allocator<spdlog::sinks::rotating_file_sink<std::__1::mutex> > > >(spdlog::sinks::rotating_file_sink<std::__1::mutex>*, std::__1::__shared_ptr_emplace<spdlog::sinks::rotating_file_sink<std::__1::mutex>,std::__1::allocator<spdlog::sinks::rotating_file_sink<std::__1::mutex> > >*)
FUNC 3590 1d 0 std::__1::__shared_ptr_emplace<spdlog::sinks::rotating_file_sink<std::__1::mutex>,std::__1::allocator<spdlog::sinks::rotating_file_sink<std::__1::mutex> > >::__get_elem()
FUNC 35b0 19 0 std::__1::__allocation_guard<std::__1::allocator<std::__1::__shared_ptr_emplace<spdlog::sinks::rotating_file_sink<std::__1::mutex>,std::__1::allocator<spdlog::sinks::rotating_file_sink<std::__1::mutex> > > > >::~__allocation_guard()
FUNC 35d0 1e 0 std::__1::allocator<std::__1::__shared_ptr_emplace<spdlog::sinks::rotating_file_sink<std::__1::mutex>,std::__1::allocator<spdlog::sinks::rotating_file_sink<std::__1::mutex> > > >::allocator<spdlog::sinks::rotating_file_sink<std::__1::mutex> >(std::__1::allocator<spdlog::sinks::rotating_file_sink<std::__1::mutex> > const&)
FUNC 35f0 23 0 std::__1::allocator_traits<std::__1::allocator<std::__1::__shared_ptr_emplace<spdlog::sinks::rotating_file_sink<std::__1::mutex>,std::__1::allocator<spdlog::sinks::rotating_file_sink<std::__1::mutex> > > > >::allocate(std::__1::allocator<std::__1::__shared_ptr_emplace<spdlog::sinks::rotating_file_sink<std::__1::mutex>,std::__1::allocator<spdlog::sinks::rotating_file_sink<std::__1::mutex> > > >&, unsigned long long)
FUNC 3620 7 0 std::__1::__non_trivial_if<1,std::__1::allocator<std::__1::__shared_ptr_emplace<spdlog::sinks::rotating_file_sink<std::__1::mutex>,std::__1::allocator<spdlog::sinks::rotating_file_sink<std::__1::mutex> > > > >::__non_trivial_if()
FUNC 3630 51 0 std::__1::allocator<std::__1::__shared_ptr_emplace<spdlog::sinks::rotating_file_sink<std::__1::mutex>,std::__1::allocator<spdlog::sinks::rotating_file_sink<std::__1::mutex> > > >::allocate(unsigned long long)
FUNC 3690 1d 0 std::__1::allocator_traits<std::__1::allocator<std::__1::__shared_ptr_emplace<spdlog::sinks::rotating_file_sink<std::__1::mutex>,std::__1::allocator<spdlog::sinks::rotating_file_sink<std::__1::mutex> > > > >::max_size<std::__1::allocator<std::__1::__shared_ptr_emplace<spdlog::sinks::rotating_file_sink<std::__1::mutex>,std::__1::allocator<spdlog::sinks::rotating_file_sink<std::__1::mutex> > > >,void,void>(std::__1::allocator<std::__1::__shared_ptr_emplace<spdlog::sinks::rotating_file_sink<std::__1::mutex>,std::__1::allocator<spdlog::sinks::rotating_file_sink<std::__1::mutex> > > > const&)
FUNC 36b0 1e 0 std::__1::__shared_ptr_emplace<spdlog::sinks::rotating_file_sink<std::__1::mutex>,std::__1::allocator<spdlog::sinks::rotating_file_sink<std::__1::mutex> > >::_Storage::_Storage(std::__1::allocator<spdlog::sinks::rotating_file_sink<std::__1::mutex> >&&)
FUNC 36d0 1d 0 std::__1::__shared_ptr_emplace<spdlog::sinks::rotating_file_sink<std::__1::mutex>,std::__1::allocator<spdlog::sinks::rotating_file_sink<std::__1::mutex> > >::__get_alloc()
FUNC 36f0 4b 0 std::__1::allocator_traits<std::__1::allocator<spdlog::sinks::rotating_file_sink<std::__1::mutex> > >::construct<spdlog::sinks::rotating_file_sink<std::__1::mutex>,const char *const &,int,int,bool,void,void>(std::__1::allocator<spdlog::sinks::rotating_file_sink<std::__1::mutex> >&, spdlog::sinks::rotating_file_sink<std::__1::mutex>*, char const* const&, int&&, int&&, bool&&)
FUNC 3740 19 0 std::__1::__shared_ptr_emplace<spdlog::sinks::rotating_file_sink<std::__1::mutex>,std::__1::allocator<spdlog::sinks::rotating_file_sink<std::__1::mutex> > >::_Storage::~_Storage()
FUNC 3760 3a 0 std::__1::__shared_ptr_emplace<spdlog::sinks::rotating_file_sink<std::__1::mutex>,std::__1::allocator<spdlog::sinks::rotating_file_sink<std::__1::mutex> > >::~__shared_ptr_emplace()
FUNC 37a0 28 0 std::__1::__shared_ptr_emplace<spdlog::sinks::rotating_file_sink<std::__1::mutex>,std::__1::allocator<spdlog::sinks::rotating_file_sink<std::__1::mutex> > >::~__shared_ptr_emplace()
FUNC 37d0 42 0 std::__1::__shared_ptr_emplace<spdlog::sinks::rotating_file_sink<std::__1::mutex>,std::__1::allocator<spdlog::sinks::rotating_file_sink<std::__1::mutex> > >::__on_zero_shared()
FUNC 3820 56 0 std::__1::__shared_ptr_emplace<spdlog::sinks::rotating_file_sink<std::__1::mutex>,std::__1::allocator<spdlog::sinks::rotating_file_sink<std::__1::mutex> > >::__on_zero_shared_weak()
FUNC 3880 36 0 std::__1::__shared_ptr_emplace<spdlog::sinks::rotating_file_sink<std::__1::mutex>,std::__1::allocator<spdlog::sinks::rotating_file_sink<std::__1::mutex> > >::_Storage::__get_alloc()
FUNC 38c0 b 0 std::__1::__compressed_pair<std::__1::allocator<spdlog::sinks::rotating_file_sink<std::__1::mutex> >,spdlog::sinks::rotating_file_sink<std::__1::mutex> >::__get_first_base(std::__1::__compressed_pair<std::__1::allocator<spdlog::sinks::rotating_file_sink<std::__1::mutex> >,spdlog::sinks::rotating_file_sink<std::__1::mutex> >*)
FUNC 38d0 13f 0 std::__1::construct_at<spdlog::sinks::rotating_file_sink<std::__1::mutex>,const char *const &,int,int,bool,spdlog::sinks::rotating_file_sink<std::__1::mutex> *>(spdlog::sinks::rotating_file_sink<std::__1::mutex>*, char const* const&, int&&, int&&, bool&&)
FUNC 3a10 5b 0 spdlog::file_event_handlers::file_event_handlers()
FUNC 3a70 4b 0 spdlog::file_event_handlers::~file_event_handlers()
FUNC 3ac0 1e 0 std::__1::function<void (const std::__1::basic_string<char,std::__1::char_traits<char>,std::__1::allocator<char> > &)>::function(void*)
FUNC 3ae0 1e 0 std::__1::function<void (const std::__1::basic_string<char,std::__1::char_traits<char>,std::__1::allocator<char> > &, _iobuf *)>::function(void*)
FUNC 3b00 13 0 std::__1::__function::__value_func<void (const std::__1::basic_string<char,std::__1::char_traits<char>,std::__1::allocator<char> > &)>::__value_func()
FUNC 3b20 13 0 std::__1::__function::__value_func<void (const std::__1::basic_string<char,std::__1::char_traits<char>,std::__1::allocator<char> > &, _iobuf *)>::__value_func()
FUNC 3b40 19 0 std::__1::function<void (const std::__1::basic_string<char,std::__1::char_traits<char>,std::__1::allocator<char> > &)>::~function()
FUNC 3b60 19 0 std::__1::function<void (const std::__1::basic_string<char,std::__1::char_traits<char>,std::__1::allocator<char> > &, _iobuf *)>::~function()
FUNC 3b80 5d 0 std::__1::__function::__value_func<void (const std::__1::basic_string<char,std::__1::char_traits<char>,std::__1::allocator<char> > &)>::~__value_func()
FUNC 3be0 5d 0 std::__1::__function::__value_func<void (const std::__1::basic_string<char,std::__1::char_traits<char>,std::__1::allocator<char> > &, _iobuf *)>::~__value_func()
FUNC 3c40 1e 0 std::__1::allocator_traits<std::__1::allocator<spdlog::sinks::rotating_file_sink<std::__1::mutex> > >::destroy<spdlog::sinks::rotating_file_sink<std::__1::mutex>,void,void>(std::__1::allocator<spdlog::sinks::rotating_file_sink<std::__1::mutex> >&, spdlog::sinks::rotating_file_sink<std::__1::mutex>*)
FUNC 3c60 19 0 std::__1::destroy_at<spdlog::sinks::rotating_file_sink<std::__1::mutex>,0>(spdlog::sinks::rotating_file_sink<std::__1::mutex>*)
FUNC 3c80 19 0 std::__1::__destroy_at<spdlog::sinks::rotating_file_sink<std::__1::mutex>,0>(spdlog::sinks::rotating_file_sink<std::__1::mutex>*)
FUNC 3ca0 3b 0 spdlog::sinks::rotating_file_sink<std::__1::mutex>::~rotating_file_sink()
FUNC 3ce0 1d 0 std::__1::unique_ptr<spdlog::formatter,std::__1::default_delete<spdlog::formatter> >::~unique_ptr()
FUNC 3d00 7 0 spdlog::sinks::sink::~sink()
FUNC 3d10 3a 0 spdlog::sinks::base_sink<std::__1::mutex>::~base_sink()
FUNC 3d50 7 0 spdlog::sinks::base_sink<std::__1::mutex>::~base_sink()
FUNC 3d60 6a 0 std::__1::unique_ptr<spdlog::formatter,std::__1::default_delete<spdlog::formatter> >::reset(spdlog::formatter*)
FUNC 3dd0 19 0 std::__1::__compressed_pair<spdlog::formatter *,std::__1::default_delete<spdlog::formatter> >::first()
FUNC 3df0 19 0 std::__1::__compressed_pair<spdlog::formatter *,std::__1::default_delete<spdlog::formatter> >::second()
FUNC 3e10 33 0 std::__1::default_delete<spdlog::formatter>::operator()(spdlog::formatter*) const
FUNC 3e50 b 0 std::__1::__compressed_pair_elem<spdlog::formatter *,0,0>::__get()
FUNC 3e60 b 0 std::__1::__compressed_pair_elem<std::__1::default_delete<spdlog::formatter>,1,1>::__get()
FUNC 3e70 2d 0 std::__1::allocator_traits<std::__1::allocator<std::__1::__shared_ptr_emplace<spdlog::sinks::rotating_file_sink<std::__1::mutex>,std::__1::allocator<spdlog::sinks::rotating_file_sink<std::__1::mutex> > > > >::deallocate(std::__1::allocator<std::__1::__shared_ptr_emplace<spdlog::sinks::rotating_file_sink<std::__1::mutex>,std::__1::allocator<spdlog::sinks::rotating_file_sink<std::__1::mutex> > > >&, std::__1::__shared_ptr_emplace<spdlog::sinks::rotating_file_sink<std::__1::mutex>,std::__1::allocator<spdlog::sinks::rotating_file_sink<std::__1::mutex> > >*, unsigned long long)
FUNC 3ea0 b 0 std::__1::pointer_traits<std::__1::__shared_ptr_emplace<spdlog::sinks::rotating_file_sink<std::__1::mutex>,std::__1::allocator<spdlog::sinks::rotating_file_sink<std::__1::mutex> > > *>::pointer_to(std::__1::__shared_ptr_emplace<spdlog::sinks::rotating_file_sink<std::__1::mutex>,std::__1::allocator<spdlog::sinks::rotating_file_sink<std::__1::mutex> > >&)
FUNC 3eb0 42 0 std::__1::allocator<std::__1::__shared_ptr_emplace<spdlog::sinks::rotating_file_sink<std::__1::mutex>,std::__1::allocator<spdlog::sinks::rotating_file_sink<std::__1::mutex> > > >::deallocate(std::__1::__shared_ptr_emplace<spdlog::sinks::rotating_file_sink<std::__1::mutex>,std::__1::allocator<spdlog::sinks::rotating_file_sink<std::__1::mutex> > >*, unsigned long long)
FUNC 3f00 1a 0 std::__1::shared_ptr<spdlog::sinks::rotating_file_sink<std::__1::mutex> >::shared_ptr()
FUNC 3f20 7 0 std::__1::shared_ptr<spdlog::sinks::rotating_file_sink<std::__1::mutex> >::__enable_weak_this(<NoType>)
FUNC 3f30 36 0 std::__1::__shared_ptr_emplace<spdlog::sinks::rotating_file_sink<std::__1::mutex>,std::__1::allocator<spdlog::sinks::rotating_file_sink<std::__1::mutex> > >::_Storage::__get_elem()
FUNC 3f70 b 0 std::__1::__compressed_pair<std::__1::allocator<spdlog::sinks::rotating_file_sink<std::__1::mutex> >,spdlog::sinks::rotating_file_sink<std::__1::mutex> >::__get_second_base(std::__1::__compressed_pair<std::__1::allocator<spdlog::sinks::rotating_file_sink<std::__1::mutex> >,spdlog::sinks::rotating_file_sink<std::__1::mutex> >*)
FUNC 3f80 36 0 std::__1::__allocation_guard<std::__1::allocator<std::__1::__shared_ptr_emplace<spdlog::sinks::rotating_file_sink<std::__1::mutex>,std::__1::allocator<spdlog::sinks::rotating_file_sink<std::__1::mutex> > > > >::__destroy()
FUNC 3fc0 7 0 std::__1::__non_trivial_if<1,std::__1::allocator<spdlog::sinks::rotating_file_sink<std::__1::mutex> > >::__non_trivial_if()
FUNC 3fd0 d7 0 std::__1::allocate_shared<spdlog::logger,std::__1::allocator<spdlog::logger>,const char (&)[9],std::initializer_list<std::__1::shared_ptr<spdlog::sinks::sink> >,void>(std::__1::allocator<spdlog::logger> const&, char[9] const&, std::initializer_list<std::__1::shared_ptr<spdlog::sinks::sink> >&&)
FUNC 40b0 19 0 std::__1::allocator<spdlog::logger>::allocator()
FUNC 40d0 4e 0 std::__1::__allocation_guard<std::__1::allocator<std::__1::__shared_ptr_emplace<spdlog::logger,std::__1::allocator<spdlog::logger> > > >::__allocation_guard<std::__1::allocator<spdlog::logger> >(std::__1::allocator<spdlog::logger>, unsigned long long)
FUNC 4120 f 0 std::__1::__allocation_guard<std::__1::allocator<std::__1::__shared_ptr_emplace<spdlog::logger,std::__1::allocator<spdlog::logger> > > >::__get() const
FUNC 4130 cc 0 std::__1::__shared_ptr_emplace<spdlog::logger,std::__1::allocator<spdlog::logger> >::__shared_ptr_emplace<const char (&)[9],std::initializer_list<std::__1::shared_ptr<spdlog::sinks::sink> > >(std::__1::allocator<spdlog::logger>, char[9] const&, std::initializer_list<std::__1::shared_ptr<spdlog::sinks::sink> >&&)
FUNC 4200 27 0 std::__1::__allocation_guard<std::__1::allocator<std::__1::__shared_ptr_emplace<spdlog::logger,std::__1::allocator<spdlog::logger> > > >::__release_ptr()
FUNC 4230 6f 0 std::__1::shared_ptr<spdlog::logger>::__create_with_control_block<spdlog::logger,std::__1::__shared_ptr_emplace<spdlog::logger,std::__1::allocator<spdlog::logger> > >(spdlog::logger*, std::__1::__shared_ptr_emplace<spdlog::logger,std::__1::allocator<spdlog::logger> >*)
FUNC 42a0 1d 0 std::__1::__shared_ptr_emplace<spdlog::logger,std::__1::allocator<spdlog::logger> >::__get_elem()
FUNC 42c0 19 0 std::__1::__allocation_guard<std::__1::allocator<std::__1::__shared_ptr_emplace<spdlog::logger,std::__1::allocator<spdlog::logger> > > >::~__allocation_guard()
FUNC 42e0 1e 0 std::__1::allocator<std::__1::__shared_ptr_emplace<spdlog::logger,std::__1::allocator<spdlog::logger> > >::allocator<spdlog::logger>(std::__1::allocator<spdlog::logger> const&)
FUNC 4300 23 0 std::__1::allocator_traits<std::__1::allocator<std::__1::__shared_ptr_emplace<spdlog::logger,std::__1::allocator<spdlog::logger> > > >::allocate(std::__1::allocator<std::__1::__shared_ptr_emplace<spdlog::logger,std::__1::allocator<spdlog::logger> > >&, unsigned long long)
FUNC 4330 7 0 std::__1::__non_trivial_if<1,std::__1::allocator<std::__1::__shared_ptr_emplace<spdlog::logger,std::__1::allocator<spdlog::logger> > > >::__non_trivial_if()
FUNC 4340 51 0 std::__1::allocator<std::__1::__shared_ptr_emplace<spdlog::logger,std::__1::allocator<spdlog::logger> > >::allocate(unsigned long long)
FUNC 43a0 1d 0 std::__1::allocator_traits<std::__1::allocator<std::__1::__shared_ptr_emplace<spdlog::logger,std::__1::allocator<spdlog::logger> > > >::max_size<std::__1::allocator<std::__1::__shared_ptr_emplace<spdlog::logger,std::__1::allocator<spdlog::logger> > >,void,void>(std::__1::allocator<std::__1::__shared_ptr_emplace<spdlog::logger,std::__1::allocator<spdlog::logger> > > const&)
FUNC 43c0 1e 0 std::__1::__shared_ptr_emplace<spdlog::logger,std::__1::allocator<spdlog::logger> >::_Storage::_Storage(std::__1::allocator<spdlog::logger>&&)
FUNC 43e0 1d 0 std::__1::__shared_ptr_emplace<spdlog::logger,std::__1::allocator<spdlog::logger> >::__get_alloc()
FUNC 4400 32 0 std::__1::allocator_traits<std::__1::allocator<spdlog::logger> >::construct<spdlog::logger,const char (&)[9],std::initializer_list<std::__1::shared_ptr<spdlog::sinks::sink> >,void,void>(std::__1::allocator<spdlog::logger>&, spdlog::logger*, char[9] const&, std::initializer_list<std::__1::shared_ptr<spdlog::sinks::sink> >&&)
FUNC 4440 19 0 std::__1::__shared_ptr_emplace<spdlog::logger,std::__1::allocator<spdlog::logger> >::_Storage::~_Storage()
FUNC 4460 3a 0 std::__1::__shared_ptr_emplace<spdlog::logger,std::__1::allocator<spdlog::logger> >::~__shared_ptr_emplace()
FUNC 44a0 28 0 std::__1::__shared_ptr_emplace<spdlog::logger,std::__1::allocator<spdlog::logger> >::~__shared_ptr_emplace()
FUNC 44d0 42 0 std::__1::__shared_ptr_emplace<spdlog::logger,std::__1::allocator<spdlog::logger> >::__on_zero_shared()
FUNC 4520 56 0 std::__1::__shared_ptr_emplace<spdlog::logger,std::__1::allocator<spdlog::logger> >::__on_zero_shared_weak()
FUNC 4580 36 0 std::__1::__shared_ptr_emplace<spdlog::logger,std::__1::allocator<spdlog::logger> >::_Storage::__get_alloc()
FUNC 45c0 b 0 std::__1::__compressed_pair<std::__1::allocator<spdlog::logger>,spdlog::logger>::__get_first_base(std::__1::__compressed_pair<std::__1::allocator<spdlog::logger>,spdlog::logger>*)
FUNC 45d0 a4 0 std::__1::construct_at<spdlog::logger,const char (&)[9],std::initializer_list<std::__1::shared_ptr<spdlog::sinks::sink> >,spdlog::logger *>(spdlog::logger*, char[9] const&, std::initializer_list<std::__1::shared_ptr<spdlog::sinks::sink> >&&)
FUNC 4680 a5 0 spdlog::logger::logger(std::__1::basic_string<char,std::__1::char_traits<char>,std::__1::allocator<char> >, std::initializer_list<std::__1::shared_ptr<spdlog::sinks::sink> >)
FUNC 4730 43 0 std::__1::basic_string<char,std::__1::char_traits<char>,std::__1::allocator<char> >::basic_string(std::__1::basic_string<char,std::__1::char_traits<char>,std::__1::allocator<char> >&&)
FUNC 4780 e 0 std::initializer_list<std::__1::shared_ptr<spdlog::sinks::sink> >::begin() const
FUNC 4790 19 0 std::initializer_list<std::__1::shared_ptr<spdlog::sinks::sink> >::end() const
FUNC 47b0 d2 0 spdlog::logger::logger<const std::__1::shared_ptr<spdlog::sinks::sink> *>(std::__1::basic_string<char,std::__1::char_traits<char>,std::__1::allocator<char> >, std::__1::shared_ptr<spdlog::sinks::sink> const*, std::__1::shared_ptr<spdlog::sinks::sink> const*)
FUNC 4890 4e 0 std::__1::basic_string<char,std::__1::char_traits<char>,std::__1::allocator<char> >::__default_init()
FUNC 48e0 19 0 std::__1::__compressed_pair<std::__1::basic_string<char,std::__1::char_traits<char>,std::__1::allocator<char> >::__rep,std::__1::allocator<char> >::first()
FUNC 4900 b 0 std::__1::__compressed_pair_elem<std::__1::basic_string<char,std::__1::char_traits<char>,std::__1::allocator<char> >::__rep,0,0>::__get()
FUNC 4910 7b 0 std::__1::vector<std::__1::shared_ptr<spdlog::sinks::sink>,std::__1::allocator<std::__1::shared_ptr<spdlog::sinks::sink> > >::vector<const std::__1::shared_ptr<spdlog::sinks::sink> *,0>(std::__1::shared_ptr<spdlog::sinks::sink> const*, std::__1::shared_ptr<spdlog::sinks::sink> const*)
FUNC 4990 21 0 std::__1::atomic<int>::atomic(int)
FUNC 49c0 3c 0 spdlog::details::backtracer::backtracer()
FUNC 4a00 3b 0 std::__1::__compressed_pair<std::__1::shared_ptr<spdlog::sinks::sink> *,std::__1::allocator<std::__1::shared_ptr<spdlog::sinks::sink> > >::__compressed_pair<std::nullptr_t,std::__1::__default_init_tag>(void*&&, std::__1::__default_init_tag&&)
FUNC 4a40 28 0 std::__1::distance<const std::__1::shared_ptr<spdlog::sinks::sink> *>(std::__1::shared_ptr<spdlog::sinks::sink> const*, std::__1::shared_ptr<spdlog::sinks::sink> const*)
FUNC 4a70 c0 0 std::__1::vector<std::__1::shared_ptr<spdlog::sinks::sink>,std::__1::allocator<std::__1::shared_ptr<spdlog::sinks::sink> > >::__init_with_size<const std::__1::shared_ptr<spdlog::sinks::sink> *,const std::__1::shared_ptr<spdlog::sinks::sink> *>(std::__1::shared_ptr<spdlog::sinks::sink> const*, std::__1::shared_ptr<spdlog::sinks::sink> const*, unsigned long long)
FUNC 4b30 1e 0 std::__1::__compressed_pair_elem<std::__1::shared_ptr<spdlog::sinks::sink> *,0,0>::__compressed_pair_elem<std::nullptr_t,void>(void*&&)
FUNC 4b50 1d 0 std::__1::__compressed_pair_elem<std::__1::allocator<std::__1::shared_ptr<spdlog::sinks::sink> >,1,1>::__compressed_pair_elem(std::__1::__default_init_tag)
FUNC 4b70 19 0 std::__1::allocator<std::__1::shared_ptr<spdlog::sinks::sink> >::allocator()
FUNC 4b90 7 0 std::__1::__non_trivial_if<1,std::__1::allocator<std::__1::shared_ptr<spdlog::sinks::sink> > >::__non_trivial_if()
FUNC 4ba0 27 0 std::__1::__distance<const std::__1::shared_ptr<spdlog::sinks::sink> *>(std::__1::shared_ptr<spdlog::sinks::sink> const*, std::__1::shared_ptr<spdlog::sinks::sink> const*, std::__1::random_access_iterator_tag)
FUNC 4bd0 34 0 std::__1::__make_exception_guard<std::__1::vector<std::__1::shared_ptr<spdlog::sinks::sink>,std::__1::allocator<std::__1::shared_ptr<spdlog::sinks::sink> > >::__destroy_vector>(std::__1::vector<std::__1::shared_ptr<spdlog::sinks::sink>,std::__1::allocator<std::__1::shared_ptr<spdlog::sinks::sink> > >::__destroy_vector)
FUNC 4c10 1e 0 std::__1::vector<std::__1::shared_ptr<spdlog::sinks::sink>,std::__1::allocator<std::__1::shared_ptr<spdlog::sinks::sink> > >::__destroy_vector::__destroy_vector(std::__1::vector<std::__1::shared_ptr<spdlog::sinks::sink>,std::__1::allocator<std::__1::shared_ptr<spdlog::sinks::sink> > >&)
FUNC 4c30 a9 0 std::__1::vector<std::__1::shared_ptr<spdlog::sinks::sink>,std::__1::allocator<std::__1::shared_ptr<spdlog::sinks::sink> > >::__vallocate(unsigned long long)
FUNC 4ce0 99 0 std::__1::vector<std::__1::shared_ptr<spdlog::sinks::sink>,std::__1::allocator<std::__1::shared_ptr<spdlog::sinks::sink> > >::__construct_at_end<const std::__1::shared_ptr<spdlog::sinks::sink> *,const std::__1::shared_ptr<spdlog::sinks::sink> *>(std::__1::shared_ptr<spdlog::sinks::sink> const*, std::__1::shared_ptr<spdlog::sinks::sink> const*, unsigned long long)
FUNC 4d80 f 0 std::__1::__exception_guard_exceptions<std::__1::vector<std::__1::shared_ptr<spdlog::sinks::sink>,std::__1::allocator<std::__1::shared_ptr<spdlog::sinks::sink> > >::__destroy_vector>::__complete()
FUNC 4d90 3f 0 std::__1::__exception_guard_exceptions<std::__1::vector<std::__1::shared_ptr<spdlog::sinks::sink>,std::__1::allocator<std::__1::shared_ptr<spdlog::sinks::sink> > >::__destroy_vector>::~__exception_guard_exceptions()
FUNC 4dd0 22 0 std::__1::__exception_guard_exceptions<std::__1::vector<std::__1::shared_ptr<spdlog::sinks::sink>,std::__1::allocator<std::__1::shared_ptr<spdlog::sinks::sink> > >::__destroy_vector>::__exception_guard_exceptions(std::__1::vector<std::__1::shared_ptr<spdlog::sinks::sink>,std::__1::allocator<std::__1::shared_ptr<spdlog::sinks::sink> > >::__destroy_vector)
FUNC 4e00 59 0 std::__1::vector<std::__1::shared_ptr<spdlog::sinks::sink>,std::__1::allocator<std::__1::shared_ptr<spdlog::sinks::sink> > >::max_size() const
FUNC 4e60 16 0 std::__1::vector<std::__1::shared_ptr<spdlog::sinks::sink>,std::__1::allocator<std::__1::shared_ptr<spdlog::sinks::sink> > >::__throw_length_error() const
FUNC 4e80 4d 0 std::__1::__allocate_at_least<std::__1::allocator<std::__1::shared_ptr<spdlog::sinks::sink> > >(std::__1::allocator<std::__1::shared_ptr<spdlog::sinks::sink> >&, unsigned long long)
FUNC 4ed0 1d 0 std::__1::vector<std::__1::shared_ptr<spdlog::sinks::sink>,std::__1::allocator<std::__1::shared_ptr<spdlog::sinks::sink> > >::__alloc()
FUNC 4ef0 1d 0 std::__1::vector<std::__1::shared_ptr<spdlog::sinks::sink>,std::__1::allocator<std::__1::shared_ptr<spdlog::sinks::sink> > >::__end_cap()
FUNC 4f10 b6 0 std::__1::vector<std::__1::shared_ptr<spdlog::sinks::sink>,std::__1::allocator<std::__1::shared_ptr<spdlog::sinks::sink> > >::__annotate_new(unsigned long long) const
FUNC 4fd0 28 0 std::__1::min<unsigned long long>(unsigned long long const&, unsigned long long const&)
FUNC 5000 17 0 std::__1::allocator_traits<std::__1::allocator<std::__1::shared_ptr<spdlog::sinks::sink> > >::max_size<std::__1::allocator<std::__1::shared_ptr<spdlog::sinks::sink> >,void,void>(std::__1::allocator<std::__1::shared_ptr<spdlog::sinks::sink> > const&)
FUNC 5020 1d 0 std::__1::vector<std::__1::shared_ptr<spdlog::sinks::sink>,std::__1::allocator<std::__1::shared_ptr<spdlog::sinks::sink> > >::__alloc() const
FUNC 5040 f 0 std::__1::numeric_limits<long long>::max()
FUNC 5050 57 0 std::__1::min<unsigned long long,std::__1::__less<void,void> >(unsigned long long const&, unsigned long long const&, std::__1::__less<void,void>)
FUNC 50b0 2e 0 std::__1::__less<void,void>::operator()<unsigned long long,unsigned long long>(unsigned long long const&, unsigned long long const&) const
FUNC 50e0 19 0 std::__1::__compressed_pair<std::__1::shared_ptr<spdlog::sinks::sink> *,std::__1::allocator<std::__1::shared_ptr<spdlog::sinks::sink> > >::second() const
FUNC 5100 b 0 std::__1::__compressed_pair_elem<std::__1::allocator<std::__1::shared_ptr<spdlog::sinks::sink> >,1,1>::__get() const
FUNC 5110 b 0 std::__1::__libcpp_numeric_limits<long long,1>::max()
FUNC 5120 70 0 std::__1::__throw_length_error(char const*)
FUNC 5190 3a 0 std::length_error::length_error(char const*)
FUNC 51d0 51 0 std::__1::allocator<std::__1::shared_ptr<spdlog::sinks::sink> >::allocate(unsigned long long)
FUNC 5230 19 0 std::__1::__compressed_pair<std::__1::shared_ptr<spdlog::sinks::sink> *,std::__1::allocator<std::__1::shared_ptr<spdlog::sinks::sink> > >::second()
FUNC 5250 b 0 std::__1::__compressed_pair_elem<std::__1::allocator<std::__1::shared_ptr<spdlog::sinks::sink> >,1,1>::__get()
FUNC 5260 19 0 std::__1::__compressed_pair<std::__1::shared_ptr<spdlog::sinks::sink> *,std::__1::allocator<std::__1::shared_ptr<spdlog::sinks::sink> > >::first()
FUNC 5280 b 0 std::__1::__compressed_pair_elem<std::__1::shared_ptr<spdlog::sinks::sink> *,0,0>::__get()
FUNC 5290 21 0 std::__1::vector<std::__1::shared_ptr<spdlog::sinks::sink>,std::__1::allocator<std::__1::shared_ptr<spdlog::sinks::sink> > >::__annotate_contiguous_container(void const*, void const*, void const*, void const*) const
FUNC 52c0 1c 0 std::__1::vector<std::__1::shared_ptr<spdlog::sinks::sink>,std::__1::allocator<std::__1::shared_ptr<spdlog::sinks::sink> > >::data() const
FUNC 52e0 2f 0 std::__1::vector<std::__1::shared_ptr<spdlog::sinks::sink>,std::__1::allocator<std::__1::shared_ptr<spdlog::sinks::sink> > >::capacity() const
FUNC 5310 b 0 std::__1::__to_address<std::__1::shared_ptr<spdlog::sinks::sink> >(std::__1::shared_ptr<spdlog::sinks::sink>*)
FUNC 5320 1d 0 std::__1::vector<std::__1::shared_ptr<spdlog::sinks::sink>,std::__1::allocator<std::__1::shared_ptr<spdlog::sinks::sink> > >::__end_cap() const
FUNC 5340 19 0 std::__1::__compressed_pair<std::__1::shared_ptr<spdlog::sinks::sink> *,std::__1::allocator<std::__1::shared_ptr<spdlog::sinks::sink> > >::first() const
FUNC 5360 b 0 std::__1::__compressed_pair_elem<std::__1::shared_ptr<spdlog::sinks::sink> *,0,0>::__get() const
FUNC 5370 49 0 std::__1::vector<std::__1::shared_ptr<spdlog::sinks::sink>,std::__1::allocator<std::__1::shared_ptr<spdlog::sinks::sink> > >::_ConstructTransaction::_ConstructTransaction(std::__1::vector<std::__1::shared_ptr<spdlog::sinks::sink>,std::__1::allocator<std::__1::shared_ptr<spdlog::sinks::sink> > >&, unsigned long long)
FUNC 53c0 85 0 std::__1::__uninitialized_allocator_copy<std::__1::allocator<std::__1::shared_ptr<spdlog::sinks::sink> >,const std::__1::shared_ptr<spdlog::sinks::sink> *,const std::__1::shared_ptr<spdlog::sinks::sink> *,std::__1::shared_ptr<spdlog::sinks::sink> *>(std::__1::allocator<std::__1::shared_ptr<spdlog::sinks::sink> >&, std::__1::shared_ptr<spdlog::sinks::sink> const*, std::__1::shared_ptr<spdlog::sinks::sink> const*, std::__1::shared_ptr<spdlog::sinks::sink>*)
FUNC 5450 16 0 std::__1::vector<std::__1::shared_ptr<spdlog::sinks::sink>,std::__1::allocator<std::__1::shared_ptr<spdlog::sinks::sink> > >::_ConstructTransaction::~_ConstructTransaction()
FUNC 5470 34 0 std::__1::__unwrap_range<const std::__1::shared_ptr<spdlog::sinks::sink> *,const std::__1::shared_ptr<spdlog::sinks::sink> *>(std::__1::shared_ptr<spdlog::sinks::sink> const*, std::__1::shared_ptr<spdlog::sinks::sink> const*)
FUNC 54b0 135 0 std::__1::__uninitialized_allocator_copy_impl<std::__1::allocator<std::__1::shared_ptr<spdlog::sinks::sink> >,const std::__1::shared_ptr<spdlog::sinks::sink> *,const std::__1::shared_ptr<spdlog::sinks::sink> *,std::__1::shared_ptr<spdlog::sinks::sink> *>(std::__1::allocator<std::__1::shared_ptr<spdlog::sinks::sink> >&, std::__1::shared_ptr<spdlog::sinks::sink> const*, std::__1::shared_ptr<spdlog::sinks::sink> const*, std::__1::shared_ptr<spdlog::sinks::sink>*)
FUNC 55f0 19 0 std::__1::__unwrap_iter<std::__1::shared_ptr<spdlog::sinks::sink> *,std::__1::__unwrap_iter_impl<std::__1::shared_ptr<spdlog::sinks::sink> *,1>,0>(std::__1::shared_ptr<spdlog::sinks::sink>*)
FUNC 5610 3a 0 std::__1::__rewrap_iter<std::__1::shared_ptr<spdlog::sinks::sink> *,std::__1::shared_ptr<spdlog::sinks::sink> *,std::__1::__unwrap_iter_impl<std::__1::shared_ptr<spdlog::sinks::sink> *,1> >(std::__1::shared_ptr<spdlog::sinks::sink>*, std::__1::shared_ptr<spdlog::sinks::sink>*)
FUNC 5650 5c 0 std::__1::__unwrap_range_impl<const std::__1::shared_ptr<spdlog::sinks::sink> *,const std::__1::shared_ptr<spdlog::sinks::sink> *>::__unwrap(std::__1::shared_ptr<spdlog::sinks::sink> const*, std::__1::shared_ptr<spdlog::sinks::sink> const*)
FUNC 56b0 19 0 std::__1::__unwrap_iter<const std::__1::shared_ptr<spdlog::sinks::sink> *,std::__1::__unwrap_iter_impl<const std::__1::shared_ptr<spdlog::sinks::sink> *,1>,0>(std::__1::shared_ptr<spdlog::sinks::sink> const*)
FUNC 56d0 32 0 std::__1::pair<const std::__1::shared_ptr<spdlog::sinks::sink> *,const std::__1::shared_ptr<spdlog::sinks::sink> *>::pair<const std::__1::shared_ptr<spdlog::sinks::sink> *,const std::__1::shared_ptr<spdlog::sinks::sink> *,nullptr>(std::__1::shared_ptr<spdlog::sinks::sink> const*&&, std::__1::shared_ptr<spdlog::sinks::sink> const*&&)
FUNC 5710 19 0 std::__1::__unwrap_iter_impl<const std::__1::shared_ptr<spdlog::sinks::sink> *,1>::__unwrap(std::__1::shared_ptr<spdlog::sinks::sink> const*)
FUNC 5730 b 0 std::__1::__to_address<const std::__1::shared_ptr<spdlog::sinks::sink> >(std::__1::shared_ptr<spdlog::sinks::sink> const*)
FUNC 5740 44 0 std::__1::__make_exception_guard<std::__1::_AllocatorDestroyRangeReverse<std::__1::allocator<std::__1::shared_ptr<spdlog::sinks::sink> >,std::__1::shared_ptr<spdlog::sinks::sink> *> >(std::__1::_AllocatorDestroyRangeReverse<std::__1::allocator<std::__1::shared_ptr<spdlog::sinks::sink> >,std::__1::shared_ptr<spdlog::sinks::sink> *>)
FUNC 5790 3a 0 std::__1::_AllocatorDestroyRangeReverse<std::__1::allocator<std::__1::shared_ptr<spdlog::sinks::sink> >,std::__1::shared_ptr<spdlog::sinks::sink> *>::_AllocatorDestroyRangeReverse(std::__1::allocator<std::__1::shared_ptr<spdlog::sinks::sink> >&, std::__1::shared_ptr<spdlog::sinks::sink>*&, std::__1::shared_ptr<spdlog::sinks::sink>*&)
FUNC 57d0 28 0 std::__1::allocator_traits<std::__1::allocator<std::__1::shared_ptr<spdlog::sinks::sink> > >::construct<std::__1::shared_ptr<spdlog::sinks::sink>,const std::__1::shared_ptr<spdlog::sinks::sink> &,void,void>(std::__1::allocator<std::__1::shared_ptr<spdlog::sinks::sink> >&, std::__1::shared_ptr<spdlog::sinks::sink>*, std::__1::shared_ptr<spdlog::sinks::sink> const&)
FUNC 5800 f 0 std::__1::__exception_guard_exceptions<std::__1::_AllocatorDestroyRangeReverse<std::__1::allocator<std::__1::shared_ptr<spdlog::sinks::sink> >,std::__1::shared_ptr<spdlog::sinks::sink> *> >::__complete()
FUNC 5810 3f 0 std::__1::__exception_guard_exceptions<std::__1::_AllocatorDestroyRangeReverse<std::__1::allocator<std::__1::shared_ptr<spdlog::sinks::sink> >,std::__1::shared_ptr<spdlog::sinks::sink> *> >::~__exception_guard_exceptions()
FUNC 5850 31 0 std::__1::__exception_guard_exceptions<std::__1::_AllocatorDestroyRangeReverse<std::__1::allocator<std::__1::shared_ptr<spdlog::sinks::sink> >,std::__1::shared_ptr<spdlog::sinks::sink> *> >::__exception_guard_exceptions(std::__1::_AllocatorDestroyRangeReverse<std::__1::allocator<std::__1::shared_ptr<spdlog::sinks::sink> >,std::__1::shared_ptr<spdlog::sinks::sink> *>)
FUNC 5890 36 0 std::__1::construct_at<std::__1::shared_ptr<spdlog::sinks::sink>,const std::__1::shared_ptr<spdlog::sinks::sink> &,std::__1::shared_ptr<spdlog::sinks::sink> *>(std::__1::shared_ptr<spdlog::sinks::sink>*, std::__1::shared_ptr<spdlog::sinks::sink> const&)
FUNC 58d0 4f 0 std::__1::shared_ptr<spdlog::sinks::sink>::shared_ptr(std::__1::shared_ptr<spdlog::sinks::sink> const&)
FUNC 5920 19 0 std::__1::__shared_weak_count::__add_shared()
FUNC 5940 1d 0 std::__1::__shared_count::__add_shared()
FUNC 5960 2d 0 std::__1::__libcpp_atomic_refcount_increment<long>(long&)
FUNC 5990 5c 0 std::__1::_AllocatorDestroyRangeReverse<std::__1::allocator<std::__1::shared_ptr<spdlog::sinks::sink> >,std::__1::shared_ptr<spdlog::sinks::sink> *>::operator()() const
FUNC 59f0 6e 0 std::__1::__allocator_destroy<std::__1::allocator<std::__1::shared_ptr<spdlog::sinks::sink> >,std::__1::reverse_iterator<std::__1::shared_ptr<spdlog::sinks::sink> *>,std::__1::reverse_iterator<std::__1::shared_ptr<spdlog::sinks::sink> *> >(std::__1::allocator<std::__1::shared_ptr<spdlog::sinks::sink> >&, std::__1::reverse_iterator<std::__1::shared_ptr<spdlog::sinks::sink> *>, std::__1::reverse_iterator<std::__1::shared_ptr<spdlog::sinks::sink> *>)
FUNC 5a60 26 0 std::__1::reverse_iterator<std::__1::shared_ptr<spdlog::sinks::sink> *>::reverse_iterator(std::__1::shared_ptr<spdlog::sinks::sink>*)
FUNC 5a90 3f 0 std::__1::operator!=<std::__1::shared_ptr<spdlog::sinks::sink> *,std::__1::shared_ptr<spdlog::sinks::sink> *>(std::__1::reverse_iterator<std::__1::shared_ptr<spdlog::sinks::sink> *> const&, std::__1::reverse_iterator<std::__1::shared_ptr<spdlog::sinks::sink> *> const&)
FUNC 5ad0 1e 0 std::__1::allocator_traits<std::__1::allocator<std::__1::shared_ptr<spdlog::sinks::sink> > >::destroy<std::__1::shared_ptr<spdlog::sinks::sink>,void,void>(std::__1::allocator<std::__1::shared_ptr<spdlog::sinks::sink> >&, std::__1::shared_ptr<spdlog::sinks::sink>*)
FUNC 5af0 19 0 std::__1::__to_address<std::__1::reverse_iterator<std::__1::shared_ptr<spdlog::sinks::sink> *>,void>(std::__1::reverse_iterator<std::__1::shared_ptr<spdlog::sinks::sink> *> const&)
FUNC 5b10 17 0 std::__1::reverse_iterator<std::__1::shared_ptr<spdlog::sinks::sink> *>::operator++()
FUNC 5b30 f 0 std::__1::reverse_iterator<std::__1::shared_ptr<spdlog::sinks::sink> *>::base() const
FUNC 5b40 19 0 std::__1::destroy_at<std::__1::shared_ptr<spdlog::sinks::sink>,0>(std::__1::shared_ptr<spdlog::sinks::sink>*)
FUNC 5b60 19 0 std::__1::__destroy_at<std::__1::shared_ptr<spdlog::sinks::sink>,0>(std::__1::shared_ptr<spdlog::sinks::sink>*)
FUNC 5b80 36 0 std::__1::__to_address_helper<std::__1::reverse_iterator<std::__1::shared_ptr<spdlog::sinks::sink> *>,void>::__call(std::__1::reverse_iterator<std::__1::shared_ptr<spdlog::sinks::sink> *> const&)
FUNC 5bc0 22 0 std::__1::reverse_iterator<std::__1::shared_ptr<spdlog::sinks::sink> *>::operator->() const
FUNC 5bf0 2b 0 std::__1::prev<std::__1::shared_ptr<spdlog::sinks::sink> *>(std::__1::shared_ptr<spdlog::sinks::sink>*, long long)
FUNC 5c20 37 0 std::__1::advance<std::__1::shared_ptr<spdlog::sinks::sink> *,long long,long long,void>(std::__1::shared_ptr<spdlog::sinks::sink>*&, long long)
FUNC 5c60 b 0 std::__1::__convert_to_integral(long long)
FUNC 5c70 2a 0 std::__1::__advance<std::__1::shared_ptr<spdlog::sinks::sink> *>(std::__1::shared_ptr<spdlog::sinks::sink>*&, long long, std::__1::random_access_iterator_tag)
FUNC 5ca0 19 0 std::__1::__unwrap_iter_impl<std::__1::shared_ptr<spdlog::sinks::sink> *,1>::__unwrap(std::__1::shared_ptr<spdlog::sinks::sink>*)
FUNC 5cc0 4c 0 std::__1::__unwrap_iter_impl<std::__1::shared_ptr<spdlog::sinks::sink> *,1>::__rewrap(std::__1::shared_ptr<spdlog::sinks::sink>*, std::__1::shared_ptr<spdlog::sinks::sink>*)
FUNC 5d10 7f 0 std::__1::vector<std::__1::shared_ptr<spdlog::sinks::sink>,std::__1::allocator<std::__1::shared_ptr<spdlog::sinks::sink> > >::__destroy_vector::operator()()
FUNC 5d90 1c 0 std::__1::vector<std::__1::shared_ptr<spdlog::sinks::sink>,std::__1::allocator<std::__1::shared_ptr<spdlog::sinks::sink> > >::__clear()
FUNC 5db0 c3 0 std::__1::vector<std::__1::shared_ptr<spdlog::sinks::sink>,std::__1::allocator<std::__1::shared_ptr<spdlog::sinks::sink> > >::__annotate_delete() const
FUNC 5e80 2d 0 std::__1::allocator_traits<std::__1::allocator<std::__1::shared_ptr<spdlog::sinks::sink> > >::deallocate(std::__1::allocator<std::__1::shared_ptr<spdlog::sinks::sink> >&, std::__1::shared_ptr<spdlog::sinks::sink>*, unsigned long long)
FUNC 5eb0 86 0 std::__1::vector<std::__1::shared_ptr<spdlog::sinks::sink>,std::__1::allocator<std::__1::shared_ptr<spdlog::sinks::sink> > >::__base_destruct_at_end(std::__1::shared_ptr<spdlog::sinks::sink>*)
FUNC 5f40 19 0 std::__1::vector<std::__1::shared_ptr<spdlog::sinks::sink>,std::__1::allocator<std::__1::shared_ptr<spdlog::sinks::sink> > >::size() const
FUNC 5f60 3f 0 std::__1::allocator<std::__1::shared_ptr<spdlog::sinks::sink> >::deallocate(std::__1::shared_ptr<spdlog::sinks::sink>*, unsigned long long)
FUNC 5fa0 21 0 std::__1::__atomic_base<int,1>::__atomic_base(int)
FUNC 5fd0 21 0 std::__1::__atomic_base<int,0>::__atomic_base(int)
FUNC 6000 21 0 std::__1::__cxx_atomic_impl<int,std::__1::__cxx_atomic_base_impl<int> >::__cxx_atomic_impl(int)
FUNC 6030 1d 0 std::__1::__cxx_atomic_base_impl<int>::__cxx_atomic_base_impl(int)
FUNC 6050 12 0 std::__1::mutex::mutex()
FUNC 6070 27 0 std::__1::atomic<bool>::atomic(bool)
FUNC 60a0 3c 0 spdlog::details::circular_q<spdlog::details::log_msg_buffer>::circular_q()
FUNC 60e0 27 0 std::__1::__atomic_base<bool,0>::__atomic_base(bool)
FUNC 6110 27 0 std::__1::__cxx_atomic_impl<bool,std::__1::__cxx_atomic_base_impl<bool> >::__cxx_atomic_impl(bool)
FUNC 6140 23 0 std::__1::__cxx_atomic_base_impl<bool>::__cxx_atomic_base_impl(bool)
FUNC 6170 4c 0 std::__1::vector<spdlog::details::log_msg_buffer,std::__1::allocator<spdlog::details::log_msg_buffer> >::vector()
FUNC 61c0 3b 0 std::__1::__compressed_pair<spdlog::details::log_msg_buffer *,std::__1::allocator<spdlog::details::log_msg_buffer> >::__compressed_pair<std::nullptr_t,std::__1::__default_init_tag>(void*&&, std::__1::__default_init_tag&&)
FUNC 6200 1e 0 std::__1::__compressed_pair_elem<spdlog::details::log_msg_buffer *,0,0>::__compressed_pair_elem<std::nullptr_t,void>(void*&&)
FUNC 6220 1d 0 std::__1::__compressed_pair_elem<std::__1::allocator<spdlog::details::log_msg_buffer>,1,1>::__compressed_pair_elem(std::__1::__default_init_tag)
FUNC 6240 19 0 std::__1::allocator<spdlog::details::log_msg_buffer>::allocator()
FUNC 6260 7 0 std::__1::__non_trivial_if<1,std::__1::allocator<spdlog::details::log_msg_buffer> >::__non_trivial_if()
FUNC 6270 1e 0 std::__1::allocator_traits<std::__1::allocator<spdlog::logger> >::destroy<spdlog::logger,void,void>(std::__1::allocator<spdlog::logger>&, spdlog::logger*)
FUNC 6290 19 0 std::__1::destroy_at<spdlog::logger,0>(spdlog::logger*)
FUNC 62b0 19 0 std::__1::__destroy_at<spdlog::logger,0>(spdlog::logger*)
FUNC 62d0 2d 0 std::__1::allocator_traits<std::__1::allocator<std::__1::__shared_ptr_emplace<spdlog::logger,std::__1::allocator<spdlog::logger> > > >::deallocate(std::__1::allocator<std::__1::__shared_ptr_emplace<spdlog::logger,std::__1::allocator<spdlog::logger> > >&, std::__1::__shared_ptr_emplace<spdlog::logger,std::__1::allocator<spdlog::logger> >*, unsigned long long)
FUNC 6300 b 0 std::__1::pointer_traits<std::__1::__shared_ptr_emplace<spdlog::logger,std::__1::allocator<spdlog::logger> > *>::pointer_to(std::__1::__shared_ptr_emplace<spdlog::logger,std::__1::allocator<spdlog::logger> >&)
FUNC 6310 42 0 std::__1::allocator<std::__1::__shared_ptr_emplace<spdlog::logger,std::__1::allocator<spdlog::logger> > >::deallocate(std::__1::__shared_ptr_emplace<spdlog::logger,std::__1::allocator<spdlog::logger> >*, unsigned long long)
FUNC 6360 1a 0 std::__1::shared_ptr<spdlog::logger>::shared_ptr()
FUNC 6380 7 0 std::__1::shared_ptr<spdlog::logger>::__enable_weak_this(<NoType>)
FUNC 6390 36 0 std::__1::__shared_ptr_emplace<spdlog::logger,std::__1::allocator<spdlog::logger> >::_Storage::__get_elem()
FUNC 63d0 b 0 std::__1::__compressed_pair<std::__1::allocator<spdlog::logger>,spdlog::logger>::__get_second_base(std::__1::__compressed_pair<std::__1::allocator<spdlog::logger>,spdlog::logger>*)
FUNC 63e0 36 0 std::__1::__allocation_guard<std::__1::allocator<std::__1::__shared_ptr_emplace<spdlog::logger,std::__1::allocator<spdlog::logger> > > >::__destroy()
FUNC 6420 7 0 std::__1::__non_trivial_if<1,std::__1::allocator<spdlog::logger> >::__non_trivial_if()
FUNC 6430 35 0 std::__1::__shared_weak_count::__release_shared()
FUNC 6470 4d 0 std::__1::__shared_count::__release_shared()
FUNC 64c0 2d 0 std::__1::__libcpp_atomic_refcount_decrement<long>(long&)
FUNC 64f0 28 0 spdlog::logger::info<char[17]>(char[17] const&)
FUNC 6520 a7 0 spdlog::logger::log<char[17]>(spdlog::level::level_enum, char[17] const&)
FUNC 65d0 132 0 spdlog::logger::log(spdlog::source_loc, spdlog::level::level_enum, fmt::v10::basic_string_view<char>)
FUNC 6710 21 0 spdlog::source_loc::source_loc()
FUNC 6740 3a 0 spdlog::logger::should_log(spdlog::level::level_enum) const
FUNC 6780 48 0 fmt::v10::basic_string_view<char>::basic_string_view<std::__1::char_traits<char>,std::__1::allocator<char> >(std::__1::basic_string<char,std::__1::char_traits<char>,std::__1::allocator<char> > const&)
FUNC 67d0 21 0 std::__1::__atomic_base<int,0>::load(std::__1::memory_order) const
FUNC 6800 71 0 std::__1::__cxx_atomic_load<int>(std::__1::__cxx_atomic_base_impl<int> const*, std::__1::memory_order)
FUNC 6880 21 0 std::__1::basic_string<char,std::__1::char_traits<char>,std::__1::allocator<char> >::data() const
FUNC 68b0 52 0 std::__1::basic_string<char,std::__1::char_traits<char>,std::__1::allocator<char> >::size() const
FUNC 6910 b 0 std::__1::__to_address<const char>(char const*)
FUNC 6920 52 0 std::__1::basic_string<char,std::__1::char_traits<char>,std::__1::allocator<char> >::__get_pointer() const
FUNC 6980 26 0 std::__1::basic_string<char,std::__1::char_traits<char>,std::__1::allocator<char> >::__is_long() const
FUNC 69b0 1c 0 std::__1::basic_string<char,std::__1::char_traits<char>,std::__1::allocator<char> >::__get_long_pointer() const
FUNC 69d0 25 0 std::__1::basic_string<char,std::__1::char_traits<char>,std::__1::allocator<char> >::__get_short_pointer() const
FUNC 6a00 19 0 std::__1::__compressed_pair<std::__1::basic_string<char,std::__1::char_traits<char>,std::__1::allocator<char> >::__rep,std::__1::allocator<char> >::first() const
FUNC 6a20 b 0 std::__1::__compressed_pair_elem<std::__1::basic_string<char,std::__1::char_traits<char>,std::__1::allocator<char> >::__rep,0,0>::__get() const
FUNC 6a30 b 0 std::__1::pointer_traits<const char *>::pointer_to(char const&)
FUNC 6a40 1c 0 std::__1::basic_string<char,std::__1::char_traits<char>,std::__1::allocator<char> >::__get_long_size() const
FUNC 6a60 1f 0 std::__1::basic_string<char,std::__1::char_traits<char>,std::__1::allocator<char> >::__get_short_size() const
FUNC 6a80 43 0 spdlog::logger::info<const char *const &>(fmt::v10::basic_format_string<char,const char *const &>, char const* const&)
FUNC 6ad0 8d 0 spdlog::logger::log<const char *const &>(spdlog::level::level_enum, fmt::v10::basic_format_string<char,const char *const &>, char const* const&)
FUNC 6b60 ad 0 spdlog::logger::log<const char *const &>(spdlog::source_loc, spdlog::level::level_enum, fmt::v10::basic_format_string<char,const char *const &>, char const* const&)
FUNC 6c10 643 0 spdlog::logger::log_<const char *const &>(spdlog::source_loc, spdlog::level::level_enum, fmt::v10::basic_string_view<char>, char const* const&)
FUNC 7260 32 0 spdlog::details::to_string_view<char,const char *const &>(fmt::v10::basic_format_string<char,const char *const &>)
FUNC 72a0 19 0 std::__1::allocator<char>::allocator()
FUNC 72c0 53 0 fmt::v10::basic_memory_buffer<char,250,std::__1::allocator<char> >::basic_memory_buffer(std::__1::allocator<char> const&)
FUNC 7320 189 0 fmt::v10::vformat_to<fmt::v10::appender,0>(fmt::v10::appender, fmt::v10::basic_string_view<char>, fmt::v10::basic_format_args<fmt::v10::basic_format_context<fmt::v10::appender,char> >)
FUNC 74b0 23 0 fmt::v10::appender::back_insert_iterator(fmt::v10::detail::buffer<char>&)
FUNC 74e0 c5 0 fmt::v10::make_format_args<fmt::v10::basic_format_context<fmt::v10::appender,char>,const char *const>(char const* const&)
FUNC 75b0 f 0 fmt::v10::detail::buffer<char>::data()
FUNC 75c0 f 0 fmt::v10::detail::buffer<char>::size() const
FUNC 75d0 2c 0 fmt::v10::basic_string_view<char>::basic_string_view(char const*, unsigned long long)
FUNC 7600 26 0 fmt::v10::basic_memory_buffer<char,250,std::__1::allocator<char> >::~basic_memory_buffer()
FUNC 7630 7 0 std::__1::__non_trivial_if<1,std::__1::allocator<char> >::__non_trivial_if()
FUNC 7640 49 0 fmt::v10::detail::buffer<char>::buffer(char*, unsigned long long, unsigned long long)
FUNC 7690 2d 0 fmt::v10::detail::buffer<char>::set(char*, unsigned long long)
FUNC 76c0 16c 0 fmt::v10::basic_memory_buffer<char,250,std::__1::allocator<char> >::grow(unsigned long long)
FUNC 7830 1b 0 fmt::v10::detail::abort_fuzzing_if(bool)
FUNC 7850 17 0 std::__1::allocator_traits<std::__1::allocator<char> >::max_size<std::__1::allocator<char>,void,void>(std::__1::allocator<char> const&)
FUNC 7870 f 0 fmt::v10::detail::buffer<char>::capacity() const
FUNC 7880 23 0 std::__1::allocator_traits<std::__1::allocator<char> >::allocate(std::__1::allocator<char>&, unsigned long long)
FUNC 78b0 3e 0 std::__1::uninitialized_copy_n<char *,unsigned long long,char *>(char*, unsigned long long, char*)
FUNC 78f0 3b 0 std::__1::allocator<char>::deallocate(char*, unsigned long long)
FUNC 7930 7 0 fmt::v10::detail::ignore_unused<bool>(bool const&)
FUNC 7940 51 0 std::__1::allocator<char>::allocate(unsigned long long)
FUNC 79a0 f5 0 std::__1::__uninitialized_copy_n<char,char *,unsigned long long,char *,std::__1::__unreachable_sentinel>(char*, unsigned long long, char*, std::__1::__unreachable_sentinel)
FUNC 7aa0 18 0 std::__1::operator!=<char *>(char* const&, std::__1::__unreachable_sentinel)
FUNC 7ac0 45 0 std::__1::__destroy<char *>(char*, char*)
FUNC 7b10 32 0 std::__1::pair<char *,char *>::pair<char *,char *,nullptr>(char*&&, char*&&)
FUNC 7b50 7 0 std::__1::__destroy_at<char,0>(char*)
FUNC 7b60 3a 0 fmt::v10::detail::get_buffer<char,fmt::v10::appender>(fmt::v10::appender)
FUNC 7ba0 26 0 fmt::v10::detail::iterator_buffer<fmt::v10::appender,char,fmt::v10::detail::buffer_traits>::~iterator_buffer()
FUNC 7bd0 72 0 fmt::v10::detail::iterator_buffer<fmt::v10::appender,char,fmt::v10::detail::buffer_traits>::iterator_buffer(fmt::v10::appender, unsigned long long)
FUNC 7c50 12 0 fmt::v10::detail::buffer_traits::buffer_traits(unsigned long long)
FUNC 7c70 39 0 fmt::v10::detail::iterator_buffer<fmt::v10::appender,char,fmt::v10::detail::buffer_traits>::grow(unsigned long long)
FUNC 7cb0 91 0 fmt::v10::detail::iterator_buffer<fmt::v10::appender,char,fmt::v10::detail::buffer_traits>::flush()
FUNC 7d50 13 0 fmt::v10::detail::buffer<char>::clear()
FUNC 7d70 7b 0 fmt::v10::detail::copy_str<char,char *,fmt::v10::appender>(char*, char*, fmt::v10::appender)
FUNC 7df0 16 0 fmt::v10::detail::buffer_traits::limit(unsigned long long)
FUNC 7e10 24 0 fmt::v10::appender::operator++(int)
FUNC 7e40 b 0 std::__1::back_insert_iterator<fmt::v10::detail::buffer<char> >::operator*()
FUNC 7e50 2f 0 std::__1::back_insert_iterator<fmt::v10::detail::buffer<char> >::operator=(char&&)
FUNC 7e80 4c 0 fmt::v10::detail::buffer<char>::push_back(char const&)
FUNC 7ed0 3c 0 fmt::v10::detail::buffer<char>::try_reserve(unsigned long long)
FUNC 7f10 30 0 fmt::v10::detail::iterator_buffer<fmt::v10::appender,char,fmt::v10::detail::buffer_traits>::out()
FUNC 7f40 1e 0 std::__1::back_insert_iterator<fmt::v10::detail::buffer<char> >::back_insert_iterator(fmt::v10::detail::buffer<char>&)
FUNC 7f60 60 0 fmt::v10::basic_memory_buffer<char,250,std::__1::allocator<char> >::deallocate()
FUNC 7fc0 261 0 fmt::v10::make_format_args<fmt::v10::basic_format_context<fmt::v10::appender,char>,const char *,const char *,int>(char const*&, char const*&, int&)
FUNC 8230 d7 0 std::__1::allocate_shared<spdlog::logger,std::__1::allocator<spdlog::logger>,const char (&)[6],std::__1::shared_ptr<spdlog::sinks::rotating_file_sink<std::__1::mutex> > &,void>(std::__1::allocator<spdlog::logger> const&, char[6] const&, std::__1::shared_ptr<spdlog::sinks::rotating_file_sink<std::__1::mutex> >&)
FUNC 8310 cc 0 std::__1::__shared_ptr_emplace<spdlog::logger,std::__1::allocator<spdlog::logger> >::__shared_ptr_emplace<const char (&)[6],std::__1::shared_ptr<spdlog::sinks::rotating_file_sink<std::__1::mutex> > &>(std::__1::allocator<spdlog::logger>, char[6] const&, std::__1::shared_ptr<spdlog::sinks::rotating_file_sink<std::__1::mutex> >&)
FUNC 83e0 32 0 std::__1::allocator_traits<std::__1::allocator<spdlog::logger> >::construct<spdlog::logger,const char (&)[6],std::__1::shared_ptr<spdlog::sinks::rotating_file_sink<std::__1::mutex> > &,void,void>(std::__1::allocator<spdlog::logger>&, spdlog::logger*, char[6] const&, std::__1::shared_ptr<spdlog::sinks::rotating_file_sink<std::__1::mutex> >&)
FUNC 8420 cb 0 std::__1::construct_at<spdlog::logger,const char (&)[6],std::__1::shared_ptr<spdlog::sinks::rotating_file_sink<std::__1::mutex> > &,spdlog::logger *>(spdlog::logger*, char[6] const&, std::__1::shared_ptr<spdlog::sinks::rotating_file_sink<std::__1::mutex> >&)
FUNC 84f0 155 0 spdlog::logger::logger(std::__1::basic_string<char,std::__1::char_traits<char>,std::__1::allocator<char> >, std::__1::shared_ptr<spdlog::sinks::sink>)
FUNC 8650 44 0 std::__1::shared_ptr<spdlog::sinks::sink>::shared_ptr(std::__1::shared_ptr<spdlog::sinks::sink>&&)
FUNC 86a0 4a 0 std::__1::shared_ptr<spdlog::logger>::operator=(std::__1::shared_ptr<spdlog::logger> const&)
FUNC 86f0 3f 0 std::__1::shared_ptr<spdlog::logger>::swap(std::__1::shared_ptr<spdlog::logger>&)
FUNC 8730 3b 0 std::__1::swap<spdlog::logger *>(spdlog::logger*&, spdlog::logger*&)
FUNC 8770 3b 0 std::__1::swap<std::__1::__shared_weak_count *>(std::__1::__shared_weak_count*&, std::__1::__shared_weak_count*&)
FUNC 87b0 78 0 std::__1::basic_string_view<char,std::__1::char_traits<char> >::find_first_of(char const*, unsigned long long) const
FUNC 8830 f 0 std::__1::basic_string_view<char,std::__1::char_traits<char> >::length() const
FUNC 8840 78 0 std::__1::basic_string_view<char,std::__1::char_traits<char> >::find_last_of(char const*, unsigned long long) const
FUNC 88c0 ae 0 std::__1::basic_string_view<char,std::__1::char_traits<char> >::substr(unsigned long long, unsigned long long) const
FUNC 8970 ea 0 std::__1::__str_find_first_of<char,unsigned long long,std::__1::char_traits<char>,18446744073709551615>(char const*, unsigned long long, char const*, unsigned long long, unsigned long long)
FUNC 8a60 e 0 std::__1::basic_string_view<char,std::__1::char_traits<char> >::data() const
FUNC 8a70 f 0 std::__1::basic_string_view<char,std::__1::char_traits<char> >::size() const
FUNC 8a80 30 0 std::__1::char_traits<char>::length(char const*)
FUNC 8ab0 c2 0 std::__1::__find_first_of_ce<const char *,const char *,bool (&)(char, char) noexcept>(char const*, char const*, char const*, char const*, bool (&)(char, char))
FUNC 8b80 1f 0 std::__1::char_traits<char>::eq(char, char)
FUNC 8ba0 19 0 std::__1::__constexpr_strlen(char const*)
FUNC 8bc0 e0 0 std::__1::__str_find_last_of<char,unsigned long long,std::__1::char_traits<char>,18446744073709551615>(char const*, unsigned long long, char const*, unsigned long long, unsigned long long)
FUNC 8ca0 6a 0 std::__1::char_traits<char>::find(char const*, unsigned long long, char const&)
FUNC 8d10 39 0 std::__1::__constexpr_memchr<const char,char>(char const*, char, unsigned long long)
FUNC 8d50 70 0 std::__1::__throw_out_of_range(char const*)
FUNC 8dc0 1a 0 std::__1::basic_string_view<char,std::__1::char_traits<char> >::basic_string_view()
FUNC 8de0 2c 0 std::__1::basic_string_view<char,std::__1::char_traits<char> >::basic_string_view(char const*, unsigned long long)
FUNC 8e10 3a 0 std::out_of_range::out_of_range(char const*)
FUNC 8e50 19 0 std::__1::__char_traits_length_checked<std::__1::char_traits<char> >(char const*)
FUNC 8e70 3a 0 std::__1::__compressed_pair<std::__1::basic_string<char,std::__1::char_traits<char>,std::__1::allocator<char> >::__rep,std::__1::allocator<char> >::__compressed_pair<std::__1::__default_init_tag,std::__1::__default_init_tag>(std::__1::__default_init_tag&&, std::__1::__default_init_tag&&)
FUNC 8eb0 11 0 std::__1::__compressed_pair_elem<std::__1::basic_string<char,std::__1::char_traits<char>,std::__1::allocator<char> >::__rep,0,0>::__compressed_pair_elem(std::__1::__default_init_tag)
FUNC 8ed0 1d 0 std::__1::__compressed_pair_elem<std::__1::allocator<char>,1,1>::__compressed_pair_elem(std::__1::__default_init_tag)
FUNC 8ef0 24 0 std::__1::shared_ptr<spdlog::logger>::operator bool() const
FUNC 8f20 25 0 spdlog::logger::trace<fmt::v10::runtime_format_string<char> >(fmt::v10::runtime_format_string<char> const&)
FUNC 8f50 23 0 fmt::v10::runtime(fmt::v10::basic_string_view<char>)
FUNC 8f80 e 0 std::__1::shared_ptr<spdlog::logger>::get() const
FUNC 8f90 90 0 spdlog::logger::log<fmt::v10::runtime_format_string<char> >(spdlog::level::level_enum, fmt::v10::runtime_format_string<char> const&)
FUNC 9020 8f 0 spdlog::logger::log<>(spdlog::source_loc, spdlog::level::level_enum, fmt::v10::basic_format_string<char>)
FUNC 90b0 25 0 fmt::v10::basic_format_string<char>::basic_format_string(fmt::v10::runtime_format_string<char>)
FUNC 90e0 633 0 spdlog::logger::log_<>(spdlog::source_loc, spdlog::level::level_enum, fmt::v10::basic_string_view<char>)
FUNC 9720 32 0 spdlog::details::to_string_view<char>(fmt::v10::basic_format_string<char>)
FUNC 9760 75 0 fmt::v10::make_format_args<fmt::v10::basic_format_context<fmt::v10::appender,char> >()
FUNC 97e0 7 0 fmt::v10::monostate::monostate()
FUNC 97f0 25 0 spdlog::logger::trace<std::__1::basic_string<char,std::__1::char_traits<char>,std::__1::allocator<char> > >(std::__1::basic_string<char,std::__1::char_traits<char>,std::__1::allocator<char> > const&)
FUNC 9820 6e 0 spdlog::logger::log<std::__1::basic_string<char,std::__1::char_traits<char>,std::__1::allocator<char> > >(spdlog::level::level_enum, std::__1::basic_string<char,std::__1::char_traits<char>,std::__1::allocator<char> > const&)
FUNC 9890 40 0 spdlog::logger::trace<const std::__1::basic_string<char,std::__1::char_traits<char>,std::__1::allocator<char> > &>(fmt::v10::basic_format_string<char,const std::__1::basic_string<char,std::__1::char_traits<char>,std::__1::allocator<char> > &>, std::__1::basic_string<char,std::__1::char_traits<char>,std::__1::allocator<char> > const&)
FUNC 98d0 46 0 std::__1::operator+<char,std::__1::char_traits<char>,std::__1::allocator<char> >(std::__1::basic_string<char,std::__1::char_traits<char>,std::__1::allocator<char> >&&, std::__1::basic_string<char,std::__1::char_traits<char>,std::__1::allocator<char> >&&)
FUNC 9920 25 0 fmt::v10::basic_format_string<char,const std::__1::basic_string<char,std::__1::char_traits<char>,std::__1::allocator<char> > &>::basic_format_string(fmt::v10::runtime_format_string<char>)
FUNC 9950 8d 0 spdlog::logger::log<const std::__1::basic_string<char,std::__1::char_traits<char>,std::__1::allocator<char> > &>(spdlog::level::level_enum, fmt::v10::basic_format_string<char,const std::__1::basic_string<char,std::__1::char_traits<char>,std::__1::allocator<char> > &>, std::__1::basic_string<char,std::__1::char_traits<char>,std::__1::allocator<char> > const&)
FUNC 99e0 ad 0 spdlog::logger::log<const std::__1::basic_string<char,std::__1::char_traits<char>,std::__1::allocator<char> > &>(spdlog::source_loc, spdlog::level::level_enum, fmt::v10::basic_format_string<char,const std::__1::basic_string<char,std::__1::char_traits<char>,std::__1::allocator<char> > &>, std::__1::basic_string<char,std::__1::char_traits<char>,std::__1::allocator<char> > const&)
FUNC 9a90 643 0 spdlog::logger::log_<const std::__1::basic_string<char,std::__1::char_traits<char>,std::__1::allocator<char> > &>(spdlog::source_loc, spdlog::level::level_enum, fmt::v10::basic_string_view<char>, std::__1::basic_string<char,std::__1::char_traits<char>,std::__1::allocator<char> > const&)
FUNC a0e0 32 0 spdlog::details::to_string_view<char,const std::__1::basic_string<char,std::__1::char_traits<char>,std::__1::allocator<char> > &>(fmt::v10::basic_format_string<char,const std::__1::basic_string<char,std::__1::char_traits<char>,std::__1::allocator<char> > &>)
FUNC a120 13d 0 fmt::v10::make_format_args<fmt::v10::basic_format_context<fmt::v10::appender,char>,const std::__1::basic_string<char,std::__1::char_traits<char>,std::__1::allocator<char> > >(std::__1::basic_string<char,std::__1::char_traits<char>,std::__1::allocator<char> > const&)
FUNC a260 2a 0 fmt::v10::detail::to_string_view<char,std::__1::char_traits<char>,std::__1::allocator<char> >(std::__1::basic_string<char,std::__1::char_traits<char>,std::__1::allocator<char> > const&)
FUNC a290 e 0 fmt::v10::basic_string_view<char>::data() const
FUNC a2a0 f 0 fmt::v10::basic_string_view<char>::size() const
FUNC a2b0 49 0 std::__1::basic_string<char,std::__1::char_traits<char>,std::__1::allocator<char> >::append(std::__1::basic_string<char,std::__1::char_traits<char>,std::__1::allocator<char> > const&)
FUNC a300 b7 0 workrave::crash::CrashReporter::instance()
FUNC a3c0 79 0 workrave::crash::CrashReporter::CrashReporter()
FUNC a440 21 0 workrave::crash::CrashReporter::init()
FUNC a470 1138 0 workrave::crash::CrashReporter::Pimpl::init()
FUNC b5b0 2b 0 workrave::crash::CrashReporter::register_crash_handler(workrave::crash::CrashHandler*)
FUNC b5e0 71 0 workrave::crash::CrashReporter::Pimpl::register_crash_handler(workrave::crash::CrashHandler*)
FUNC b660 2b 0 workrave::crash::CrashReporter::unregister_crash_handler(workrave::crash::CrashHandler*)
FUNC b690 71 0 workrave::crash::CrashReporter::Pimpl::unregister_crash_handler(workrave::crash::CrashHandler*)
FUNC b710 11c 0 workrave::crash::CrashReporter::Pimpl::crashpad_handler(_EXCEPTION_POINTERS*)
FUNC b830 fa 0 workrave::crash::CrashReporter::Pimpl::call_crash_handlers()
FUNC b930 e 0 workrave::crash::CrashReporter::Pimpl::init::<lambda0>::operator bool (*)(int, const char *, int, unsigned long long, const std::__1::basic_string<char,std::__1::char_traits<char>,std::__1::allocator<char> > &)() const
FUNC b940 58 0 workrave::crash::CrashReporter::Pimpl::init::<lambda0>::__invoke(int, char const*, int, unsigned long long, std::__1::basic_string<char,std::__1::char_traits<char>,std::__1::allocator<char> > const&)
FUNC b9a0 5a 0 workrave::crash::CrashReporter::Pimpl::init::<lambda0>::operator()(int, char const*, int, unsigned long long, std::__1::basic_string<char,std::__1::char_traits<char>,std::__1::allocator<char> > const&) const
FUNC ba00 30 0 std::__1::unique_ptr<workrave::crash::CrashReporter::Pimpl,std::__1::default_delete<workrave::crash::CrashReporter::Pimpl> >::unique_ptr<1,void>()
FUNC ba30 58 0 std::__1::make_unique<workrave::crash::CrashReporter::Pimpl>()
FUNC ba90 4d 0 std::__1::unique_ptr<workrave::crash::CrashReporter::Pimpl,std::__1::default_delete<workrave::crash::CrashReporter::Pimpl> >::operator=(std::__1::unique_ptr<workrave::crash::CrashReporter::Pimpl,std::__1::default_delete<workrave::crash::CrashReporter::Pimpl> >&&)
FUNC bae0 1d 0 std::__1::unique_ptr<workrave::crash::CrashReporter::Pimpl,std::__1::default_delete<workrave::crash::CrashReporter::Pimpl> >::~unique_ptr()
FUNC bb00 1b 0 std::__1::unique_ptr<workrave::crash::CrashReporter::Pimpl,std::__1::default_delete<workrave::crash::CrashReporter::Pimpl> >::operator->() const
FUNC bb20 22 0 spdlog::critical<char[7]>(char[7] const&)
FUNC bb50 9c 0 std::__1::__fs::filesystem::operator/(std::__1::__fs::filesystem::path const&, std::__1::__fs::filesystem::path const&)
FUNC bbf0 24 0 std::__1::__fs::filesystem::temp_directory_path()
FUNC bc20 66 0 std::__1::__fs::filesystem::path::path<char[18],void>(char[18] const&, std::__1::__fs::filesystem::path::format)
FUNC bc90 19 0 std::__1::__fs::filesystem::path::~path()
FUNC bcb0 66 0 std::__1::__fs::filesystem::path::path<char[4],void>(char[4] const&, std::__1::__fs::filesystem::path::format)
FUNC bd20 66 0 std::__1::__fs::filesystem::path::path<std::__1::basic_string<char,std::__1::char_traits<char>,std::__1::allocator<char> >,void>(std::__1::basic_string<char,std::__1::char_traits<char>,std::__1::allocator<char> > const&, std::__1::__fs::filesystem::path::format)
FUNC bd90 2a 0 std::__1::__fs::filesystem::path::operator basic_string() const
FUNC bdc0 36 0 std::__1::map<std::__1::basic_string<char,std::__1::char_traits<char>,std::__1::allocator<char> >,std::__1::basic_string<char,std::__1::char_traits<char>,std::__1::allocator<char> >,std::__1::less<std::__1::basic_string<char,std::__1::char_traits<char>,std::__1::allocator<char> > >,std::__1::allocator<std::__1::pair<const std::__1::basic_string<char,std::__1::char_traits<char>,std::__1::allocator<char> >,std::__1::basic_string<char,std::__1::char_traits<char>,std::__1::allocator<char> > > > >::map()
FUNC be00 4c 0 std::__1::vector<std::__1::basic_string<char,std::__1::char_traits<char>,std::__1::allocator<char> >,std::__1::allocator<std::__1::basic_string<char,std::__1::char_traits<char>,std::__1::allocator<char> > > >::vector()
FUNC be50 4c 0 std::__1::vector<base::FilePath,std::__1::allocator<base::FilePath> >::vector()
FUNC bea0 80 0 std::__1::map<std::__1::basic_string<char,std::__1::char_traits<char>,std::__1::allocator<char> >,std::__1::basic_string<char,std::__1::char_traits<char>,std::__1::allocator<char> >,std::__1::less<std::__1::basic_string<char,std::__1::char_traits<char>,std::__1::allocator<char> > >,std::__1::allocator<std::__1::pair<const std::__1::basic_string<char,std::__1::char_traits<char>,std::__1::allocator<char> >,std::__1::basic_string<char,std::__1::char_traits<char>,std::__1::allocator<char> > > > >::operator[](std::__1::basic_string<char,std::__1::char_traits<char>,std::__1::allocator<char> >&&)
FUNC bf20 23 0 std::__1::basic_string<char,std::__1::char_traits<char>,std::__1::allocator<char> >::operator=(char const*)
FUNC bf50 1a5 0 ScopedTrace::msg<std::__1::basic_string<char,std::__1::char_traits<char>,std::__1::allocator<char> > >(std::__1::basic_string<char,std::__1::char_traits<char>,std::__1::allocator<char> > const&, std::__1::basic_string<char,std::__1::char_traits<char>,std::__1::allocator<char> > const&)
FUNC c100 4d 0 std::__1::__fs::filesystem::path::string() const
FUNC c150 6a 0 std::__1::vector<base::FilePath,std::__1::allocator<base::FilePath> >::emplace_back<std::__1::__fs::filesystem::path>(std::__1::__fs::filesystem::path&&)
FUNC c1c0 66 0 std::__1::__fs::filesystem::path::path<char[13],void>(char[13] const&, std::__1::__fs::filesystem::path::format)
FUNC c230 66 0 std::__1::__fs::filesystem::path::path<char[15],void>(char[15] const&, std::__1::__fs::filesystem::path::format)
FUNC c2a0 66 0 std::__1::__fs::filesystem::path::path<char[19],void>(char[19] const&, std::__1::__fs::filesystem::path::format)
FUNC c310 66 0 std::__1::__fs::filesystem::path::path<char[21],void>(char[21] const&, std::__1::__fs::filesystem::path::format)
FUNC c380 24 0 std::__1::operator==<crashpad::CrashReportDatabase,std::__1::default_delete<crashpad::CrashReportDatabase> >(std::__1::unique_ptr<crashpad::CrashReportDatabase,std::__1::default_delete<crashpad::CrashReportDatabase> > const&, void*)
FUNC c3b0 1b 0 std::__1::unique_ptr<crashpad::CrashReportDatabase,std::__1::default_delete<crashpad::CrashReportDatabase> >::operator->() const
FUNC c3d0 6a 0 std::__1::vector<std::__1::basic_string<char,std::__1::char_traits<char>,std::__1::allocator<char> >,std::__1::allocator<std::__1::basic_string<char,std::__1::char_traits<char>,std::__1::allocator<char> > > >::emplace_back<const char (&)[16]>(char[16] const&)
FUNC c440 1d 0 std::__1::unique_ptr<crashpad::CrashReportDatabase,std::__1::default_delete<crashpad::CrashReportDatabase> >::~unique_ptr()
FUNC c460 3a 0 std::__1::vector<base::FilePath,std::__1::allocator<base::FilePath> >::~vector()
FUNC c4a0 3a 0 std::__1::vector<std::__1::basic_string<char,std::__1::char_traits<char>,std::__1::allocator<char> >,std::__1::allocator<std::__1::basic_string<char,std::__1::char_traits<char>,std::__1::allocator<char> > > >::~vector()
FUNC c4e0 19 0 std::__1::map<std::__1::basic_string<char,std::__1::char_traits<char>,std::__1::allocator<char> >,std::__1::basic_string<char,std::__1::char_traits<char>,std::__1::allocator<char> >,std::__1::less<std::__1::basic_string<char,std::__1::char_traits<char>,std::__1::allocator<char> > >,std::__1::allocator<std::__1::pair<const std::__1::basic_string<char,std::__1::char_traits<char>,std::__1::allocator<char> >,std::__1::basic_string<char,std::__1::char_traits<char>,std::__1::allocator<char> > > > >::~map()
FUNC c500 22 0 spdlog::warn<std::__1::basic_string<char,std::__1::char_traits<char>,std::__1::allocator<char> > >(std::__1::basic_string<char,std::__1::char_traits<char>,std::__1::allocator<char> > const&)
FUNC c530 29 0 std::__1::scoped_lock<std::__1::mutex>::scoped_lock(std::__1::mutex&)
FUNC c560 118 0 std::__1::list<workrave::crash::CrashHandler *,std::__1::allocator<workrave::crash::CrashHandler *> >::push_back(workrave::crash::CrashHandler* const&)
FUNC c680 1c 0 std::__1::scoped_lock<std::__1::mutex>::~scoped_lock()
FUNC c6a0 30b 0 std::__1::list<workrave::crash::CrashHandler *,std::__1::allocator<workrave::crash::CrashHandler *> >::remove(workrave::crash::CrashHandler* const&)
FUNC c9b0 22 0 std::__1::list<workrave::crash::CrashHandler *,std::__1::allocator<workrave::crash::CrashHandler *> >::begin()
FUNC c9e0 22 0 std::__1::list<workrave::crash::CrashHandler *,std::__1::allocator<workrave::crash::CrashHandler *> >::end()
FUNC ca10 29 0 std::__1::operator!=(std::__1::__list_iterator<workrave::crash::CrashHandler *,void *> const&, std::__1::__list_iterator<workrave::crash::CrashHandler *,void *> const&)
FUNC ca40 1f 0 std::__1::__list_iterator<workrave::crash::CrashHandler *,void *>::operator*() const
FUNC ca60 15 0 std::__1::__list_iterator<workrave::crash::CrashHandler *,void *>::operator++()
FUNC ca80 3a 0 std::__1::__compressed_pair<workrave::crash::CrashReporter::Pimpl *,std::__1::default_delete<workrave::crash::CrashReporter::Pimpl> >::__compressed_pair<std::__1::__value_init_tag,std::__1::__value_init_tag>(std::__1::__value_init_tag&&, std::__1::__value_init_tag&&)
FUNC cac0 1c 0 std::__1::__compressed_pair_elem<workrave::crash::CrashReporter::Pimpl *,0,0>::__compressed_pair_elem(std::__1::__value_init_tag)
FUNC cae0 11 0 std::__1::__compressed_pair_elem<std::__1::default_delete<workrave::crash::CrashReporter::Pimpl>,1,1>::__compressed_pair_elem(std::__1::__value_init_tag)
FUNC cb00 47 0 spdlog::warn<const std::__1::basic_string<char,std::__1::char_traits<char>,std::__1::allocator<char> > &>(fmt::v10::basic_format_string<char,const std::__1::basic_string<char,std::__1::char_traits<char>,std::__1::allocator<char> > &>, std::__1::basic_string<char,std::__1::char_traits<char>,std::__1::allocator<char> > const&)
FUNC cb50 43 0 spdlog::logger::warn<const std::__1::basic_string<char,std::__1::char_traits<char>,std::__1::allocator<char> > &>(fmt::v10::basic_format_string<char,const std::__1::basic_string<char,std::__1::char_traits<char>,std::__1::allocator<char> > &>, std::__1::basic_string<char,std::__1::char_traits<char>,std::__1::allocator<char> > const&)
FUNC cba0 23 0 std::__1::__fs::filesystem::path::path(std::__1::__fs::filesystem::path const&)
FUNC cbd0 2fb 0 std::__1::__fs::filesystem::path::operator/=(std::__1::__fs::filesystem::path const&)
FUNC ced0 f 0 std::__1::basic_string_view<wchar_t,std::__1::char_traits<wchar_t> >::size() const
FUNC cee0 142 0 std::__1::__fs::filesystem::path::is_absolute() const
FUNC d030 18 0 std::__1::basic_string_view<wchar_t,std::__1::char_traits<wchar_t> >::empty() const
FUNC d050 86 0 std::__1::operator==<wchar_t,std::__1::char_traits<wchar_t> >(std::__1::basic_string_view<wchar_t,std::__1::char_traits<wchar_t> >, std::__1::basic_string_view<wchar_t,std::__1::char_traits<wchar_t> >)
FUNC d0e0 5f 0 std::__1::__fs::filesystem::path::root_name() const
FUNC d140 55 0 std::__1::basic_string<wchar_t,std::__1::char_traits<wchar_t>,std::__1::allocator<wchar_t> >::operator basic_string_view() const
FUNC d1a0 2e 0 std::__1::__fs::filesystem::path::has_root_directory() const
FUNC d1d0 b 0 std::__1::__fs::filesystem::path::native() const
FUNC d1e0 b4 0 std::__1::basic_string_view<wchar_t,std::__1::char_traits<wchar_t> >::substr(unsigned long long, unsigned long long) const
FUNC d2a0 39 0 std::__1::basic_string<wchar_t,std::__1::char_traits<wchar_t>,std::__1::allocator<wchar_t> >::operator+=<std::__1::basic_string_view<wchar_t,std::__1::char_traits<wchar_t> >,0>(std::__1::basic_string_view<wchar_t,std::__1::char_traits<wchar_t> > const&)
FUNC d2e0 2e 0 std::__1::__fs::filesystem::path::has_filename() const
FUNC d310 2c 0 std::__1::basic_string<wchar_t,std::__1::char_traits<wchar_t>,std::__1::allocator<wchar_t> >::operator+=(wchar_t)
FUNC d340 24 0 std::__1::basic_string_view<wchar_t,std::__1::char_traits<wchar_t> >::operator[](unsigned long long) const
FUNC d370 126 0 std::__1::basic_string_view<wchar_t,std::__1::char_traits<wchar_t> >::compare(std::__1::basic_string_view<wchar_t,std::__1::char_traits<wchar_t> >) const
FUNC d4a0 63 0 std::__1::char_traits<wchar_t>::compare(wchar_t const*, wchar_t const*, unsigned long long)
FUNC d510 e 0 std::__1::basic_string_view<wchar_t,std::__1::char_traits<wchar_t> >::data() const
FUNC d520 de 0 std::__1::__constexpr_wmemcmp(wchar_t const*, wchar_t const*, unsigned long long)
FUNC d600 6e 0 std::__1::basic_string<wchar_t,std::__1::char_traits<wchar_t>,std::__1::allocator<wchar_t> >::basic_string<std::__1::basic_string_view<wchar_t,std::__1::char_traits<wchar_t> >,0>(std::__1::basic_string_view<wchar_t,std::__1::char_traits<wchar_t> > const&)
FUNC d670 28 0 std::__1::__fs::filesystem::path::path(std::__1::basic_string<wchar_t,std::__1::char_traits<wchar_t>,std::__1::allocator<wchar_t> >&&, std::__1::__fs::filesystem::path::format)
FUNC d6a0 3a 0 std::__1::__compressed_pair<std::__1::basic_string<wchar_t,std::__1::char_traits<wchar_t>,std::__1::allocator<wchar_t> >::__rep,std::__1::allocator<wchar_t> >::__compressed_pair<std::__1::__default_init_tag,std::__1::__default_init_tag>(std::__1::__default_init_tag&&, std::__1::__default_init_tag&&)
FUNC d6e0 11 0 std::__1::__compressed_pair_elem<std::__1::basic_string<wchar_t,std::__1::char_traits<wchar_t>,std::__1::allocator<wchar_t> >::__rep,0,0>::__compressed_pair_elem(std::__1::__default_init_tag)
FUNC d700 1d 0 std::__1::__compressed_pair_elem<std::__1::allocator<wchar_t>,1,1>::__compressed_pair_elem(std::__1::__default_init_tag)
FUNC d720 19 0 std::__1::allocator<wchar_t>::allocator()
FUNC d740 7 0 std::__1::__non_trivial_if<1,std::__1::allocator<wchar_t> >::__non_trivial_if()
FUNC d750 43 0 std::__1::basic_string<wchar_t,std::__1::char_traits<wchar_t>,std::__1::allocator<wchar_t> >::basic_string(std::__1::basic_string<wchar_t,std::__1::char_traits<wchar_t>,std::__1::allocator<wchar_t> >&&)
FUNC d7a0 4e 0 std::__1::basic_string<wchar_t,std::__1::char_traits<wchar_t>,std::__1::allocator<wchar_t> >::__default_init()
FUNC d7f0 19 0 std::__1::__compressed_pair<std::__1::basic_string<wchar_t,std::__1::char_traits<wchar_t>,std::__1::allocator<wchar_t> >::__rep,std::__1::allocator<wchar_t> >::first()
FUNC d810 b 0 std::__1::__compressed_pair_elem<std::__1::basic_string<wchar_t,std::__1::char_traits<wchar_t>,std::__1::allocator<wchar_t> >::__rep,0,0>::__get()
FUNC d820 21 0 std::__1::basic_string<wchar_t,std::__1::char_traits<wchar_t>,std::__1::allocator<wchar_t> >::data() const
FUNC d850 52 0 std::__1::basic_string<wchar_t,std::__1::char_traits<wchar_t>,std::__1::allocator<wchar_t> >::size() const
FUNC d8b0 2c 0 std::__1::basic_string_view<wchar_t,std::__1::char_traits<wchar_t> >::basic_string_view(wchar_t const*, unsigned long long)
FUNC d8e0 b 0 std::__1::__to_address<const wchar_t>(wchar_t const*)
FUNC d8f0 52 0 std::__1::basic_string<wchar_t,std::__1::char_traits<wchar_t>,std::__1::allocator<wchar_t> >::__get_pointer() const
FUNC d950 26 0 std::__1::basic_string<wchar_t,std::__1::char_traits<wchar_t>,std::__1::allocator<wchar_t> >::__is_long() const
FUNC d980 1c 0 std::__1::basic_string<wchar_t,std::__1::char_traits<wchar_t>,std::__1::allocator<wchar_t> >::__get_long_pointer() const
FUNC d9a0 25 0 std::__1::basic_string<wchar_t,std::__1::char_traits<wchar_t>,std::__1::allocator<wchar_t> >::__get_short_pointer() const
FUNC d9d0 19 0 std::__1::__compressed_pair<std::__1::basic_string<wchar_t,std::__1::char_traits<wchar_t>,std::__1::allocator<wchar_t> >::__rep,std::__1::allocator<wchar_t> >::first() const
FUNC d9f0 b 0 std::__1::__compressed_pair_elem<std::__1::basic_string<wchar_t,std::__1::char_traits<wchar_t>,std::__1::allocator<wchar_t> >::__rep,0,0>::__get() const
FUNC da00 b 0 std::__1::pointer_traits<const wchar_t *>::pointer_to(wchar_t const&)
FUNC da10 1c 0 std::__1::basic_string<wchar_t,std::__1::char_traits<wchar_t>,std::__1::allocator<wchar_t> >::__get_long_size() const
FUNC da30 1f 0 std::__1::basic_string<wchar_t,std::__1::char_traits<wchar_t>,std::__1::allocator<wchar_t> >::__get_short_size() const
FUNC da50 1a 0 std::__1::basic_string_view<wchar_t,std::__1::char_traits<wchar_t> >::basic_string_view()
FUNC da70 5f 0 std::__1::basic_string<wchar_t,std::__1::char_traits<wchar_t>,std::__1::allocator<wchar_t> >::append<std::__1::basic_string_view<wchar_t,std::__1::char_traits<wchar_t> >,0>(std::__1::basic_string_view<wchar_t,std::__1::char_traits<wchar_t> > const&)
FUNC dad0 3b 0 std::__1::__compressed_pair<std::__1::basic_string<char,std::__1::char_traits<char>,std::__1::allocator<char> > *,std::__1::allocator<std::__1::basic_string<char,std::__1::char_traits<char>,std::__1::allocator<char> > > >::__compressed_pair<std::nullptr_t,std::__1::__default_init_tag>(void*&&, std::__1::__default_init_tag&&)
FUNC db10 1e 0 std::__1::__compressed_pair_elem<std::__1::basic_string<char,std::__1::char_traits<char>,std::__1::allocator<char> > *,0,0>::__compressed_pair_elem<std::nullptr_t,void>(void*&&)
FUNC db30 1d 0 std::__1::__compressed_pair_elem<std::__1::allocator<std::__1::basic_string<char,std::__1::char_traits<char>,std::__1::allocator<char> > >,1,1>::__compressed_pair_elem(std::__1::__default_init_tag)
FUNC db50 19 0 std::__1::allocator<std::__1::basic_string<char,std::__1::char_traits<char>,std::__1::allocator<char> > >::allocator()
FUNC db70 7 0 std::__1::__non_trivial_if<1,std::__1::allocator<std::__1::basic_string<char,std::__1::char_traits<char>,std::__1::allocator<char> > > >::__non_trivial_if()
FUNC db80 3b 0 std::__1::__compressed_pair<base::FilePath *,std::__1::allocator<base::FilePath> >::__compressed_pair<std::nullptr_t,std::__1::__default_init_tag>(void*&&, std::__1::__default_init_tag&&)
FUNC dbc0 1e 0 std::__1::__compressed_pair_elem<base::FilePath *,0,0>::__compressed_pair_elem<std::nullptr_t,void>(void*&&)
FUNC dbe0 1d 0 std::__1::__compressed_pair_elem<std::__1::allocator<base::FilePath>,1,1>::__compressed_pair_elem(std::__1::__default_init_tag)
FUNC dc00 19 0 std::__1::allocator<base::FilePath>::allocator()
FUNC dc20 7 0 std::__1::__non_trivial_if<1,std::__1::allocator<base::FilePath> >::__non_trivial_if()
FUNC dc30 c2 0 std::__1::__fs::filesystem::path::string<char,std::__1::char_traits<char>,std::__1::allocator<char> >(std::__1::allocator<char> const&) const
FUNC dd00 49 0 std::__1::basic_string<char,std::__1::char_traits<char>,std::__1::allocator<char> >::basic_string(std::__1::allocator<char> const&)
FUNC dd50 74 0 std::__1::__fs::filesystem::_PathExport<char>::__append<std::__1::basic_string<char,std::__1::char_traits<char>,std::__1::allocator<char> > >(std::__1::basic_string<char,std::__1::char_traits<char>,std::__1::allocator<char> >&, std::__1::basic_string<wchar_t,std::__1::char_traits<wchar_t>,std::__1::allocator<wchar_t> > const&)
FUNC ddd0 3b 0 std::__1::__compressed_pair<std::__1::basic_string<char,std::__1::char_traits<char>,std::__1::allocator<char> >::__rep,std::__1::allocator<char> >::__compressed_pair<std::__1::__default_init_tag,const std::__1::allocator<char> &>(std::__1::__default_init_tag&&, std::__1::allocator<char> const&)
FUNC de10 12 0 std::__1::__compressed_pair_elem<std::__1::allocator<char>,1,1>::__compressed_pair_elem<const std::__1::allocator<char> &,void>(std::__1::allocator<char> const&)
FUNC de30 26 0 std::__1::basic_string<char,std::__1::char_traits<char>,std::__1::allocator<char> >::resize(unsigned long long)
FUNC de60 21 0 std::__1::basic_string<char,std::__1::char_traits<char>,std::__1::allocator<char> >::data()
FUNC de90 b 0 std::__1::__to_address<char>(char*)
FUNC dea0 52 0 std::__1::basic_string<char,std::__1::char_traits<char>,std::__1::allocator<char> >::__get_pointer()
FUNC df00 1c 0 std::__1::basic_string<char,std::__1::char_traits<char>,std::__1::allocator<char> >::__get_long_pointer()
FUNC df20 25 0 std::__1::basic_string<char,std::__1::char_traits<char>,std::__1::allocator<char> >::__get_short_pointer()
FUNC df50 b 0 std::__1::pointer_traits<char *>::pointer_to(char&)
FUNC df60 1d 0 std::__1::vector<base::FilePath,std::__1::allocator<base::FilePath> >::__end_cap()
FUNC df80 99 0 std::__1::vector<base::FilePath,std::__1::allocator<base::FilePath> >::__construct_one_at_end<std::__1::__fs::filesystem::path>(std::__1::__fs::filesystem::path&&)
FUNC e020 ee 0 std::__1::vector<base::FilePath,std::__1::allocator<base::FilePath> >::__emplace_back_slow_path<std::__1::__fs::filesystem::path>(std::__1::__fs::filesystem::path&&)
FUNC e110 13 0 std::__1::vector<base::FilePath,std::__1::allocator<base::FilePath> >::back()
FUNC e130 19 0 std::__1::__compressed_pair<base::FilePath *,std::__1::allocator<base::FilePath> >::first()
FUNC e150 b 0 std::__1::__compressed_pair_elem<base::FilePath *,0,0>::__get()
FUNC e160 46 0 std::__1::vector<base::FilePath,std::__1::allocator<base::FilePath> >::_ConstructTransaction::_ConstructTransaction(std::__1::vector<base::FilePath,std::__1::allocator<base::FilePath> >&, unsigned long long)
FUNC e1b0 28 0 std::__1::allocator_traits<std::__1::allocator<base::FilePath> >::construct<base::FilePath,std::__1::__fs::filesystem::path,void,void>(std::__1::allocator<base::FilePath>&, base::FilePath*, std::__1::__fs::filesystem::path&&)
FUNC e1e0 1d 0 std::__1::vector<base::FilePath,std::__1::allocator<base::FilePath> >::__alloc()
FUNC e200 b 0 std::__1::__to_address<base::FilePath>(base::FilePath*)
FUNC e210 16 0 std::__1::vector<base::FilePath,std::__1::allocator<base::FilePath> >::_ConstructTransaction::~_ConstructTransaction()
FUNC e230 81 0 std::__1::construct_at<base::FilePath,std::__1::__fs::filesystem::path,base::FilePath *>(base::FilePath*, std::__1::__fs::filesystem::path&&)
FUNC e2c0 19 0 std::__1::__compressed_pair<base::FilePath *,std::__1::allocator<base::FilePath> >::second()
FUNC e2e0 b 0 std::__1::__compressed_pair_elem<std::__1::allocator<base::FilePath>,1,1>::__get()
FUNC e2f0 9e 0 std::__1::vector<base::FilePath,std::__1::allocator<base::FilePath> >::__recommend(unsigned long long) const
FUNC e390 1f 0 std::__1::vector<base::FilePath,std::__1::allocator<base::FilePath> >::size() const
FUNC e3b0 ca 0 std::__1::__split_buffer<base::FilePath,std::__1::allocator<base::FilePath> &>::__split_buffer(unsigned long long, unsigned long long, std::__1::allocator<base::FilePath>&)
FUNC e480 142 0 std::__1::vector<base::FilePath,std::__1::allocator<base::FilePath> >::__swap_out_circular_buffer(std::__1::__split_buffer<base::FilePath,std::__1::allocator<base::FilePath> &>&)
FUNC e5d0 75 0 std::__1::__split_buffer<base::FilePath,std::__1::allocator<base::FilePath> &>::~__split_buffer()
FUNC e650 59 0 std::__1::vector<base::FilePath,std::__1::allocator<base::FilePath> >::max_size() const
FUNC e6b0 16 0 std::__1::vector<base::FilePath,std::__1::allocator<base::FilePath> >::__throw_length_error() const
FUNC e6d0 35 0 std::__1::vector<base::FilePath,std::__1::allocator<base::FilePath> >::capacity() const
FUNC e710 28 0 std::__1::max<unsigned long long>(unsigned long long const&, unsigned long long const&)
FUNC e740 1d 0 std::__1::allocator_traits<std::__1::allocator<base::FilePath> >::max_size<std::__1::allocator<base::FilePath>,void,void>(std::__1::allocator<base::FilePath> const&)
FUNC e760 1d 0 std::__1::vector<base::FilePath,std::__1::allocator<base::FilePath> >::__alloc() const
FUNC e780 19 0 std::__1::__compressed_pair<base::FilePath *,std::__1::allocator<base::FilePath> >::second() const
FUNC e7a0 b 0 std::__1::__compressed_pair_elem<std::__1::allocator<base::FilePath>,1,1>::__get() const
FUNC e7b0 1d 0 std::__1::vector<base::FilePath,std::__1::allocator<base::FilePath> >::__end_cap() const
FUNC e7d0 19 0 std::__1::__compressed_pair<base::FilePath *,std::__1::allocator<base::FilePath> >::first() const
FUNC e7f0 b 0 std::__1::__compressed_pair_elem<base::FilePath *,0,0>::__get() const
FUNC e800 57 0 std::__1::max<unsigned long long,std::__1::__less<void,void> >(unsigned long long const&, unsigned long long const&, std::__1::__less<void,void>)
FUNC e860 40 0 std::__1::__compressed_pair<base::FilePath *,std::__1::allocator<base::FilePath> &>::__compressed_pair<std::nullptr_t,std::__1::allocator<base::FilePath> &>(void*&&, std::__1::allocator<base::FilePath>&)
FUNC e8a0 4d 0 std::__1::__allocate_at_least<std::__1::allocator<base::FilePath> >(std::__1::allocator<base::FilePath>&, unsigned long long)
FUNC e8f0 1d 0 std::__1::__split_buffer<base::FilePath,std::__1::allocator<base::FilePath> &>::__alloc()
FUNC e910 1d 0 std::__1::__split_buffer<base::FilePath,std::__1::allocator<base::FilePath> &>::__end_cap()
FUNC e930 1e 0 std::__1::__compressed_pair_elem<std::__1::allocator<base::FilePath> &,1,0>::__compressed_pair_elem<std::__1::allocator<base::FilePath> &,void>(std::__1::allocator<base::FilePath>&)
FUNC e950 4e 0 std::__1::allocator<base::FilePath>::allocate(unsigned long long)
FUNC e9a0 1d 0 std::__1::__compressed_pair<base::FilePath *,std::__1::allocator<base::FilePath> &>::second()
FUNC e9c0 e 0 std::__1::__compressed_pair_elem<std::__1::allocator<base::FilePath> &,1,0>::__get()
FUNC e9d0 19 0 std::__1::__compressed_pair<base::FilePath *,std::__1::allocator<base::FilePath> &>::first()
FUNC e9f0 c3 0 std::__1::vector<base::FilePath,std::__1::allocator<base::FilePath> >::__annotate_delete() const
FUNC eac0 196 0 std::__1::__uninitialized_allocator_move_if_noexcept<std::__1::allocator<base::FilePath>,std::__1::reverse_iterator<base::FilePath *>,std::__1::reverse_iterator<base::FilePath *>,std::__1::reverse_iterator<base::FilePath *> >(std::__1::allocator<base::FilePath>&, std::__1::reverse_iterator<base::FilePath *>, std::__1::reverse_iterator<base::FilePath *>, std::__1::reverse_iterator<base::FilePath *>)
FUNC ec60 26 0 std::__1::reverse_iterator<base::FilePath *>::reverse_iterator(base::FilePath*)
FUNC ec90 f 0 std::__1::reverse_iterator<base::FilePath *>::base() const
FUNC eca0 3b 0 std::__1::swap<base::FilePath *>(base::FilePath*&, base::FilePath*&)
FUNC ece0 b3 0 std::__1::vector<base::FilePath,std::__1::allocator<base::FilePath> >::__annotate_new(unsigned long long) const
FUNC eda0 21 0 std::__1::vector<base::FilePath,std::__1::allocator<base::FilePath> >::__annotate_contiguous_container(void const*, void const*, void const*, void const*) const
FUNC edd0 1c 0 std::__1::vector<base::FilePath,std::__1::allocator<base::FilePath> >::data() const
FUNC edf0 44 0 std::__1::__make_exception_guard<std::__1::_AllocatorDestroyRangeReverse<std::__1::allocator<base::FilePath>,std::__1::reverse_iterator<base::FilePath *> > >(std::__1::_AllocatorDestroyRangeReverse<std::__1::allocator<base::FilePath>,std::__1::reverse_iterator<base::FilePath *> >)
FUNC ee40 3a 0 std::__1::_AllocatorDestroyRangeReverse<std::__1::allocator<base::FilePath>,std::__1::reverse_iterator<base::FilePath *> >::_AllocatorDestroyRangeReverse(std::__1::allocator<base::FilePath>&, std::__1::reverse_iterator<base::FilePath *>&, std::__1::reverse_iterator<base::FilePath *>&)
FUNC ee80 3f 0 std::__1::operator!=<base::FilePath *,base::FilePath *>(std::__1::reverse_iterator<base::FilePath *> const&, std::__1::reverse_iterator<base::FilePath *> const&)
FUNC eec0 28 0 std::__1::allocator_traits<std::__1::allocator<base::FilePath> >::construct<base::FilePath,const base::FilePath &,void,void>(std::__1::allocator<base::FilePath>&, base::FilePath*, base::FilePath const&)
FUNC eef0 19 0 std::__1::__to_address<std::__1::reverse_iterator<base::FilePath *>,void>(std::__1::reverse_iterator<base::FilePath *> const&)
FUNC ef10 27 0 std::__1::reverse_iterator<base::FilePath *>::operator*() const
FUNC ef40 17 0 std::__1::reverse_iterator<base::FilePath *>::operator++()
FUNC ef60 f 0 std::__1::__exception_guard_exceptions<std::__1::_AllocatorDestroyRangeReverse<std::__1::allocator<base::FilePath>,std::__1::reverse_iterator<base::FilePath *> > >::__complete()
FUNC ef70 3f 0 std::__1::__exception_guard_exceptions<std::__1::_AllocatorDestroyRangeReverse<std::__1::allocator<base::FilePath>,std::__1::reverse_iterator<base::FilePath *> > >::~__exception_guard_exceptions()
FUNC efb0 31 0 std::__1::__exception_guard_exceptions<std::__1::_AllocatorDestroyRangeReverse<std::__1::allocator<base::FilePath>,std::__1::reverse_iterator<base::FilePath *> > >::__exception_guard_exceptions(std::__1::_AllocatorDestroyRangeReverse<std::__1::allocator<base::FilePath>,std::__1::reverse_iterator<base::FilePath *> >)
FUNC eff0 36 0 std::__1::construct_at<base::FilePath,const base::FilePath &,base::FilePath *>(base::FilePath*, base::FilePath const&)
FUNC f030 36 0 std::__1::__to_address_helper<std::__1::reverse_iterator<base::FilePath *>,void>::__call(std::__1::reverse_iterator<base::FilePath *> const&)
FUNC f070 22 0 std::__1::reverse_iterator<base::FilePath *>::operator->() const
FUNC f0a0 2b 0 std::__1::prev<base::FilePath *>(base::FilePath*, long long)
FUNC f0d0 37 0 std::__1::advance<base::FilePath *,long long,long long,void>(base::FilePath*&, long long)
FUNC f110 2a 0 std::__1::__advance<base::FilePath *>(base::FilePath*&, long long, std::__1::random_access_iterator_tag)
FUNC f140 8e 0 std::__1::_AllocatorDestroyRangeReverse<std::__1::allocator<base::FilePath>,std::__1::reverse_iterator<base::FilePath *> >::operator()() const
FUNC f1d0 6e 0 std::__1::__allocator_destroy<std::__1::allocator<base::FilePath>,std::__1::reverse_iterator<std::__1::reverse_iterator<base::FilePath *> >,std::__1::reverse_iterator<std::__1::reverse_iterator<base::FilePath *> > >(std::__1::allocator<base::FilePath>&, std::__1::reverse_iterator<std::__1::reverse_iterator<base::FilePath *> >, std::__1::reverse_iterator<std::__1::reverse_iterator<base::FilePath *> >)
FUNC f240 35 0 std::__1::reverse_iterator<std::__1::reverse_iterator<base::FilePath *> >::reverse_iterator(std::__1::reverse_iterator<base::FilePath *>)
FUNC f280 45 0 std::__1::operator!=<std::__1::reverse_iterator<base::FilePath *>,std::__1::reverse_iterator<base::FilePath *> >(std::__1::reverse_iterator<std::__1::reverse_iterator<base::FilePath *> > const&, std::__1::reverse_iterator<std::__1::reverse_iterator<base::FilePath *> > const&)
FUNC f2d0 1e 0 std::__1::allocator_traits<std::__1::allocator<base::FilePath> >::destroy<base::FilePath,void,void>(std::__1::allocator<base::FilePath>&, base::FilePath*)
FUNC f2f0 19 0 std::__1::__to_address<std::__1::reverse_iterator<std::__1::reverse_iterator<base::FilePath *> >,void>(std::__1::reverse_iterator<std::__1::reverse_iterator<base::FilePath *> > const&)
FUNC f310 26 0 std::__1::reverse_iterator<std::__1::reverse_iterator<base::FilePath *> >::operator++()
FUNC f340 28 0 std::__1::reverse_iterator<std::__1::reverse_iterator<base::FilePath *> >::base() const
FUNC f370 19 0 std::__1::destroy_at<base::FilePath,0>(base::FilePath*)
FUNC f390 19 0 std::__1::__destroy_at<base::FilePath,0>(base::FilePath*)
FUNC f3b0 36 0 std::__1::__to_address_helper<std::__1::reverse_iterator<std::__1::reverse_iterator<base::FilePath *> >,void>::__call(std::__1::reverse_iterator<std::__1::reverse_iterator<base::FilePath *> > const&)
FUNC f3f0 45 0 std::__1::reverse_iterator<std::__1::reverse_iterator<base::FilePath *> >::operator->() const
FUNC f440 5d 0 std::__1::prev<std::__1::reverse_iterator<base::FilePath *> >(std::__1::reverse_iterator<base::FilePath *>, long long)
FUNC f4a0 37 0 std::__1::advance<std::__1::reverse_iterator<base::FilePath *>,long long,long long,void>(std::__1::reverse_iterator<base::FilePath *>&, long long)
FUNC f4e0 28 0 std::__1::__advance<std::__1::reverse_iterator<base::FilePath *> >(std::__1::reverse_iterator<base::FilePath *>&, long long, std::__1::random_access_iterator_tag)
FUNC f510 2f 0 std::__1::reverse_iterator<base::FilePath *>::operator+=(long long)
FUNC f540 17 0 std::__1::reverse_iterator<base::FilePath *>::operator--()
FUNC f560 1d 0 std::__1::__split_buffer<base::FilePath,std::__1::allocator<base::FilePath> &>::clear()
FUNC f580 2d 0 std::__1::allocator_traits<std::__1::allocator<base::FilePath> >::deallocate(std::__1::allocator<base::FilePath>&, base::FilePath*, unsigned long long)
FUNC f5b0 35 0 std::__1::__split_buffer<base::FilePath,std::__1::allocator<base::FilePath> &>::capacity() const
FUNC f5f0 28 0 std::__1::__split_buffer<base::FilePath,std::__1::allocator<base::FilePath> &>::__destruct_at_end(base::FilePath*)
FUNC f620 7e 0 std::__1::__split_buffer<base::FilePath,std::__1::allocator<base::FilePath> &>::__destruct_at_end(base::FilePath*, std::__1::integral_constant<bool,0>)
FUNC f6a0 43 0 std::__1::allocator<base::FilePath>::deallocate(base::FilePath*, unsigned long long)
FUNC f6f0 1d 0 std::__1::__split_buffer<base::FilePath,std::__1::allocator<base::FilePath> &>::__end_cap() const
FUNC f710 19 0 std::__1::__compressed_pair<base::FilePath *,std::__1::allocator<base::FilePath> &>::first() const
FUNC f730 1d 0 std::__1::vector<std::__1::basic_string<char,std::__1::char_traits<char>,std::__1::allocator<char> >,std::__1::allocator<std::__1::basic_string<char,std::__1::char_traits<char>,std::__1::allocator<char> > > >::__end_cap()
FUNC f750 99 0 std::__1::vector<std::__1::basic_string<char,std::__1::char_traits<char>,std::__1::allocator<char> >,std::__1::allocator<std::__1::basic_string<char,std::__1::char_traits<char>,std::__1::allocator<char> > > >::__construct_one_at_end<const char (&)[16]>(char[16] const&)
FUNC f7f0 ee 0 std::__1::vector<std::__1::basic_string<char,std::__1::char_traits<char>,std::__1::allocator<char> >,std::__1::allocator<std::__1::basic_string<char,std::__1::char_traits<char>,std::__1::allocator<char> > > >::__emplace_back_slow_path<const char (&)[16]>(char[16] const&)
FUNC f8e0 13 0 std::__1::vector<std::__1::basic_string<char,std::__1::char_traits<char>,std::__1::allocator<char> >,std::__1::allocator<std::__1::basic_string<char,std::__1::char_traits<char>,std::__1::allocator<char> > > >::back()
FUNC f900 19 0 std::__1::__compressed_pair<std::__1::basic_string<char,std::__1::char_traits<char>,std::__1::allocator<char> > *,std::__1::allocator<std::__1::basic_string<char,std::__1::char_traits<char>,std::__1::allocator<char> > > >::first()
FUNC f920 b 0 std::__1::__compressed_pair_elem<std::__1::basic_string<char,std::__1::char_traits<char>,std::__1::allocator<char> > *,0,0>::__get()
FUNC f930 46 0 std::__1::vector<std::__1::basic_string<char,std::__1::char_traits<char>,std::__1::allocator<char> >,std::__1::allocator<std::__1::basic_string<char,std::__1::char_traits<char>,std::__1::allocator<char> > > >::_ConstructTransaction::_ConstructTransaction(std::__1::vector<std::__1::basic_string<char,std::__1::char_traits<char>,std::__1::allocator<char> >,std::__1::allocator<std::__1::basic_string<char,std::__1::char_traits<char>,std::__1::allocator<char> > > >&, unsigned long long)
FUNC f980 28 0 std::__1::allocator_traits<std::__1::allocator<std::__1::basic_string<char,std::__1::char_traits<char>,std::__1::allocator<char> > > >::construct<std::__1::basic_string<char,std::__1::char_traits<char>,std::__1::allocator<char> >,const char (&)[16],void,void>(std::__1::allocator<std::__1::basic_string<char,std::__1::char_traits<char>,std::__1::allocator<char> > >&, std::__1::basic_string<char,std::__1::char_traits<char>,std::__1::allocator<char> >*, char[16] const&)
FUNC f9b0 1d 0 std::__1::vector<std::__1::basic_string<char,std::__1::char_traits<char>,std::__1::allocator<char> >,std::__1::allocator<std::__1::basic_string<char,std::__1::char_traits<char>,std::__1::allocator<char> > > >::__alloc()
FUNC f9d0 b 0 std::__1::__to_address<std::__1::basic_string<char,std::__1::char_traits<char>,std::__1::allocator<char> > >(std::__1::basic_string<char,std::__1::char_traits<char>,std::__1::allocator<char> >*)
FUNC f9e0 16 0 std::__1::vector<std::__1::basic_string<char,std::__1::char_traits<char>,std::__1::allocator<char> >,std::__1::allocator<std::__1::basic_string<char,std::__1::char_traits<char>,std::__1::allocator<char> > > >::_ConstructTransaction::~_ConstructTransaction()
FUNC fa00 36 0 std::__1::construct_at<std::__1::basic_string<char,std::__1::char_traits<char>,std::__1::allocator<char> >,const char (&)[16],std::__1::basic_string<char,std::__1::char_traits<char>,std::__1::allocator<char> > *>(std::__1::basic_string<char,std::__1::char_traits<char>,std::__1::allocator<char> >*, char[16] const&)
FUNC fa40 19 0 std::__1::__compressed_pair<std::__1::basic_string<char,std::__1::char_traits<char>,std::__1::allocator<char> > *,std::__1::allocator<std::__1::basic_string<char,std::__1::char_traits<char>,std::__1::allocator<char> > > >::second()
FUNC fa60 b 0 std::__1::__compressed_pair_elem<std::__1::allocator<std::__1::basic_string<char,std::__1::char_traits<char>,std::__1::allocator<char> > >,1,1>::__get()
FUNC fa70 9e 0 std::__1::vector<std::__1::basic_string<char,std::__1::char_traits<char>,std::__1::allocator<char> >,std::__1::allocator<std::__1::basic_string<char,std::__1::char_traits<char>,std::__1::allocator<char> > > >::__recommend(unsigned long long) const
FUNC fb10 1f 0 std::__1::vector<std::__1::basic_string<char,std::__1::char_traits<char>,std::__1::allocator<char> >,std::__1::allocator<std::__1::basic_string<char,std::__1::char_traits<char>,std::__1::allocator<char> > > >::size() const
FUNC fb30 ca 0 std::__1::__split_buffer<std::__1::basic_string<char,std::__1::char_traits<char>,std::__1::allocator<char> >,std::__1::allocator<std::__1::basic_string<char,std::__1::char_traits<char>,std::__1::allocator<char> > > &>::__split_buffer(unsigned long long, unsigned long long, std::__1::allocator<std::__1::basic_string<char,std::__1::char_traits<char>,std::__1::allocator<char> > >&)
FUNC fc00 142 0 std::__1::vector<std::__1::basic_string<char,std::__1::char_traits<char>,std::__1::allocator<char> >,std::__1::allocator<std::__1::basic_string<char,std::__1::char_traits<char>,std::__1::allocator<char> > > >::__swap_out_circular_buffer(std::__1::__split_buffer<std::__1::basic_string<char,std::__1::char_traits<char>,std::__1::allocator<char> >,std::__1::allocator<std::__1::basic_string<char,std::__1::char_traits<char>,std::__1::allocator<char> > > &>&)
FUNC fd50 75 0 std::__1::__split_buffer<std::__1::basic_string<char,std::__1::char_traits<char>,std::__1::allocator<char> >,std::__1::allocator<std::__1::basic_string<char,std::__1::char_traits<char>,std::__1::allocator<char> > > &>::~__split_buffer()
FUNC fdd0 59 0 std::__1::vector<std::__1::basic_string<char,std::__1::char_traits<char>,std::__1::allocator<char> >,std::__1::allocator<std::__1::basic_string<char,std::__1::char_traits<char>,std::__1::allocator<char> > > >::max_size() const
FUNC fe30 16 0 std::__1::vector<std::__1::basic_string<char,std::__1::char_traits<char>,std::__1::allocator<char> >,std::__1::allocator<std::__1::basic_string<char,std::__1::char_traits<char>,std::__1::allocator<char> > > >::__throw_length_error() const
FUNC fe50 35 0 std::__1::vector<std::__1::basic_string<char,std::__1::char_traits<char>,std::__1::allocator<char> >,std::__1::allocator<std::__1::basic_string<char,std::__1::char_traits<char>,std::__1::allocator<char> > > >::capacity() const
FUNC fe90 1d 0 std::__1::allocator_traits<std::__1::allocator<std::__1::basic_string<char,std::__1::char_traits<char>,std::__1::allocator<char> > > >::max_size<std::__1::allocator<std::__1::basic_string<char,std::__1::char_traits<char>,std::__1::allocator<char> > >,void,void>(std::__1::allocator<std::__1::basic_string<char,std::__1::char_traits<char>,std::__1::allocator<char> > > const&)
FUNC feb0 1d 0 std::__1::vector<std::__1::basic_string<char,std::__1::char_traits<char>,std::__1::allocator<char> >,std::__1::allocator<std::__1::basic_string<char,std::__1::char_traits<char>,std::__1::allocator<char> > > >::__alloc() const
FUNC fed0 19 0 std::__1::__compressed_pair<std::__1::basic_string<char,std::__1::char_traits<char>,std::__1::allocator<char> > *,std::__1::allocator<std::__1::basic_string<char,std::__1::char_traits<char>,std::__1::allocator<char> > > >::second() const
FUNC fef0 b 0 std::__1::__compressed_pair_elem<std::__1::allocator<std::__1::basic_string<char,std::__1::char_traits<char>,std::__1::allocator<char> > >,1,1>::__get() const
FUNC ff00 1d 0 std::__1::vector<std::__1::basic_string<char,std::__1::char_traits<char>,std::__1::allocator<char> >,std::__1::allocator<std::__1::basic_string<char,std::__1::char_traits<char>,std::__1::allocator<char> > > >::__end_cap() const
FUNC ff20 19 0 std::__1::__compressed_pair<std::__1::basic_string<char,std::__1::char_traits<char>,std::__1::allocator<char> > *,std::__1::allocator<std::__1::basic_string<char,std::__1::char_traits<char>,std::__1::allocator<char> > > >::first() const
FUNC ff40 b 0 std::__1::__compressed_pair_elem<std::__1::basic_string<char,std::__1::char_traits<char>,std::__1::allocator<char> > *,0,0>::__get() const
FUNC ff50 40 0 std::__1::__compressed_pair<std::__1::basic_string<char,std::__1::char_traits<char>,std::__1::allocator<char> > *,std::__1::allocator<std::__1::basic_string<char,std::__1::char_traits<char>,std::__1::allocator<char> > > &>::__compressed_pair<std::nullptr_t,std::__1::allocator<std::__1::basic_string<char,std::__1::char_traits<char>,std::__1::allocator<char> > > &>(void*&&, std::__1::allocator<std::__1::basic_string<char,std::__1::char_traits<char>,std::__1::allocator<char> > >&)
FUNC ff90 4d 0 std::__1::__allocate_at_least<std::__1::allocator<std::__1::basic_string<char,std::__1::char_traits<char>,std::__1::allocator<char> > > >(std::__1::allocator<std::__1::basic_string<char,std::__1::char_traits<char>,std::__1::allocator<char> > >&, unsigned long long)
FUNC ffe0 1d 0 std::__1::__split_buffer<std::__1::basic_string<char,std::__1::char_traits<char>,std::__1::allocator<char> >,std::__1::allocator<std::__1::basic_string<char,std::__1::char_traits<char>,std::__1::allocator<char> > > &>::__alloc()
FUNC 10000 1d 0 std::__1::__split_buffer<std::__1::basic_string<char,std::__1::char_traits<char>,std::__1::allocator<char> >,std::__1::allocator<std::__1::basic_string<char,std::__1::char_traits<char>,std::__1::allocator<char> > > &>::__end_cap()
FUNC 10020 1e 0 std::__1::__compressed_pair_elem<std::__1::allocator<std::__1::basic_string<char,std::__1::char_traits<char>,std::__1::allocator<char> > > &,1,0>::__compressed_pair_elem<std::__1::allocator<std::__1::basic_string<char,std::__1::char_traits<char>,std::__1::allocator<char> > > &,void>(std::__1::allocator<std::__1::basic_string<char,std::__1::char_traits<char>,std::__1::allocator<char> > >&)
FUNC 10040 4e 0 std::__1::allocator<std::__1::basic_string<char,std::__1::char_traits<char>,std::__1::allocator<char> > >::allocate(unsigned long long)
FUNC 10090 1d 0 std::__1::__compressed_pair<std::__1::basic_string<char,std::__1::char_traits<char>,std::__1::allocator<char> > *,std::__1::allocator<std::__1::basic_string<char,std::__1::char_traits<char>,std::__1::allocator<char> > > &>::second()
FUNC 100b0 e 0 std::__1::__compressed_pair_elem<std::__1::allocator<std::__1::basic_string<char,std::__1::char_traits<char>,std::__1::allocator<char> > > &,1,0>::__get()
FUNC 100c0 19 0 std::__1::__compressed_pair<std::__1::basic_string<char,std::__1::char_traits<char>,std::__1::allocator<char> > *,std::__1::allocator<std::__1::basic_string<char,std::__1::char_traits<char>,std::__1::allocator<char> > > &>::first()
FUNC 100e0 c3 0 std::__1::vector<std::__1::basic_string<char,std::__1::char_traits<char>,std::__1::allocator<char> >,std::__1::allocator<std::__1::basic_string<char,std::__1::char_traits<char>,std::__1::allocator<char> > > >::__annotate_delete() const
FUNC 101b0 196 0 std::__1::__uninitialized_allocator_move_if_noexcept<std::__1::allocator<std::__1::basic_string<char,std::__1::char_traits<char>,std::__1::allocator<char> > >,std::__1::reverse_iterator<std::__1::basic_string<char,std::__1::char_traits<char>,std::__1::allocator<char> > *>,std::__1::reverse_iterator<std::__1::basic_string<char,std::__1::char_traits<char>,std::__1::allocator<char> > *>,std::__1::reverse_iterator<std::__1::basic_string<char,std::__1::char_traits<char>,std::__1::allocator<char> > *> >(std::__1::allocator<std::__1::basic_string<char,std::__1::char_traits<char>,std::__1::allocator<char> > >&, std::__1::reverse_iterator<std::__1::basic_string<char,std::__1::char_traits<char>,std::__1::allocator<char> > *>, std::__1::reverse_iterator<std::__1::basic_string<char,std::__1::char_traits<char>,std::__1::allocator<char> > *>, std::__1::reverse_iterator<std::__1::basic_string<char,std::__1::char_traits<char>,std::__1::allocator<char> > *>)
FUNC 10350 26 0 std::__1::reverse_iterator<std::__1::basic_string<char,std::__1::char_traits<char>,std::__1::allocator<char> > *>::reverse_iterator(std::__1::basic_string<char,std::__1::char_traits<char>,std::__1::allocator<char> >*)
FUNC 10380 f 0 std::__1::reverse_iterator<std::__1::basic_string<char,std::__1::char_traits<char>,std::__1::allocator<char> > *>::base() const
FUNC 10390 3b 0 std::__1::swap<std::__1::basic_string<char,std::__1::char_traits<char>,std::__1::allocator<char> > *>(std::__1::basic_string<char,std::__1::char_traits<char>,std::__1::allocator<char> >*&, std::__1::basic_string<char,std::__1::char_traits<char>,std::__1::allocator<char> >*&)
FUNC 103d0 b3 0 std::__1::vector<std::__1::basic_string<char,std::__1::char_traits<char>,std::__1::allocator<char> >,std::__1::allocator<std::__1::basic_string<char,std::__1::char_traits<char>,std::__1::allocator<char> > > >::__annotate_new(unsigned long long) const
FUNC 10490 21 0 std::__1::vector<std::__1::basic_string<char,std::__1::char_traits<char>,std::__1::allocator<char> >,std::__1::allocator<std::__1::basic_string<char,std::__1::char_traits<char>,std::__1::allocator<char> > > >::__annotate_contiguous_container(void const*, void const*, void const*, void const*) const
FUNC 104c0 1c 0 std::__1::vector<std::__1::basic_string<char,std::__1::char_traits<char>,std::__1::allocator<char> >,std::__1::allocator<std::__1::basic_string<char,std::__1::char_traits<char>,std::__1::allocator<char> > > >::data() const
FUNC 104e0 44 0 std::__1::__make_exception_guard<std::__1::_AllocatorDestroyRangeReverse<std::__1::allocator<std::__1::basic_string<char,std::__1::char_traits<char>,std::__1::allocator<char> > >,std::__1::reverse_iterator<std::__1::basic_string<char,std::__1::char_traits<char>,std::__1::allocator<char> > *> > >(std::__1::_AllocatorDestroyRangeReverse<std::__1::allocator<std::__1::basic_string<char,std::__1::char_traits<char>,std::__1::allocator<char> > >,std::__1::reverse_iterator<std::__1::basic_string<char,std::__1::char_traits<char>,std::__1::allocator<char> > *> >)
FUNC 10530 3a 0 std::__1::_AllocatorDestroyRangeReverse<std::__1::allocator<std::__1::basic_string<char,std::__1::char_traits<char>,std::__1::allocator<char> > >,std::__1::reverse_iterator<std::__1::basic_string<char,std::__1::char_traits<char>,std::__1::allocator<char> > *> >::_AllocatorDestroyRangeReverse(std::__1::allocator<std::__1::basic_string<char,std::__1::char_traits<char>,std::__1::allocator<char> > >&, std::__1::reverse_iterator<std::__1::basic_string<char,std::__1::char_traits<char>,std::__1::allocator<char> > *>&, std::__1::reverse_iterator<std::__1::basic_string<char,std::__1::char_traits<char>,std::__1::allocator<char> > *>&)
FUNC 10570 3f 0 std::__1::operator!=<std::__1::basic_string<char,std::__1::char_traits<char>,std::__1::allocator<char> > *,std::__1::basic_string<char,std::__1::char_traits<char>,std::__1::allocator<char> > *>(std::__1::reverse_iterator<std::__1::basic_string<char,std::__1::char_traits<char>,std::__1::allocator<char> > *> const&, std::__1::reverse_iterator<std::__1::basic_string<char,std::__1::char_traits<char>,std::__1::allocator<char> > *> const&)
FUNC 105b0 28 0 std::__1::allocator_traits<std::__1::allocator<std::__1::basic_string<char,std::__1::char_traits<char>,std::__1::allocator<char> > > >::construct<std::__1::basic_string<char,std::__1::char_traits<char>,std::__1::allocator<char> >,std::__1::basic_string<char,std::__1::char_traits<char>,std::__1::allocator<char> >,void,void>(std::__1::allocator<std::__1::basic_string<char,std::__1::char_traits<char>,std::__1::allocator<char> > >&, std::__1::basic_string<char,std::__1::char_traits<char>,std::__1::allocator<char> >*, std::__1::basic_string<char,std::__1::char_traits<char>,std::__1::allocator<char> >&&)
FUNC 105e0 19 0 std::__1::__to_address<std::__1::reverse_iterator<std::__1::basic_string<char,std::__1::char_traits<char>,std::__1::allocator<char> > *>,void>(std::__1::reverse_iterator<std::__1::basic_string<char,std::__1::char_traits<char>,std::__1::allocator<char> > *> const&)
FUNC 10600 27 0 std::__1::reverse_iterator<std::__1::basic_string<char,std::__1::char_traits<char>,std::__1::allocator<char> > *>::operator*() const
FUNC 10630 17 0 std::__1::reverse_iterator<std::__1::basic_string<char,std::__1::char_traits<char>,std::__1::allocator<char> > *>::operator++()
FUNC 10650 f 0 std::__1::__exception_guard_exceptions<std::__1::_AllocatorDestroyRangeReverse<std::__1::allocator<std::__1::basic_string<char,std::__1::char_traits<char>,std::__1::allocator<char> > >,std::__1::reverse_iterator<std::__1::basic_string<char,std::__1::char_traits<char>,std::__1::allocator<char> > *> > >::__complete()
FUNC 10660 3f 0 std::__1::__exception_guard_exceptions<std::__1::_AllocatorDestroyRangeReverse<std::__1::allocator<std::__1::basic_string<char,std::__1::char_traits<char>,std::__1::allocator<char> > >,std::__1::reverse_iterator<std::__1::basic_string<char,std::__1::char_traits<char>,std::__1::allocator<char> > *> > >::~__exception_guard_exceptions()
FUNC 106a0 31 0 std::__1::__exception_guard_exceptions<std::__1::_AllocatorDestroyRangeReverse<std::__1::allocator<std::__1::basic_string<char,std::__1::char_traits<char>,std::__1::allocator<char> > >,std::__1::reverse_iterator<std::__1::basic_string<char,std::__1::char_traits<char>,std::__1::allocator<char> > *> > >::__exception_guard_exceptions(std::__1::_AllocatorDestroyRangeReverse<std::__1::allocator<std::__1::basic_string<char,std::__1::char_traits<char>,std::__1::allocator<char> > >,std::__1::reverse_iterator<std::__1::basic_string<char,std::__1::char_traits<char>,std::__1::allocator<char> > *> >)
FUNC 106e0 36 0 std::__1::construct_at<std::__1::basic_string<char,std::__1::char_traits<char>,std::__1::allocator<char> >,std::__1::basic_string<char,std::__1::char_traits<char>,std::__1::allocator<char> >,std::__1::basic_string<char,std::__1::char_traits<char>,std::__1::allocator<char> > *>(std::__1::basic_string<char,std::__1::char_traits<char>,std::__1::allocator<char> >*, std::__1::basic_string<char,std::__1::char_traits<char>,std::__1::allocator<char> >&&)
FUNC 10720 36 0 std::__1::__to_address_helper<std::__1::reverse_iterator<std::__1::basic_string<char,std::__1::char_traits<char>,std::__1::allocator<char> > *>,void>::__call(std::__1::reverse_iterator<std::__1::basic_string<char,std::__1::char_traits<char>,std::__1::allocator<char> > *> const&)
FUNC 10760 22 0 std::__1::reverse_iterator<std::__1::basic_string<char,std::__1::char_traits<char>,std::__1::allocator<char> > *>::operator->() const
FUNC 10790 2b 0 std::__1::prev<std::__1::basic_string<char,std::__1::char_traits<char>,std::__1::allocator<char> > *>(std::__1::basic_string<char,std::__1::char_traits<char>,std::__1::allocator<char> >*, long long)
FUNC 107c0 37 0 std::__1::advance<std::__1::basic_string<char,std::__1::char_traits<char>,std::__1::allocator<char> > *,long long,long long,void>(std::__1::basic_string<char,std::__1::char_traits<char>,std::__1::allocator<char> >*&, long long)
FUNC 10800 2a 0 std::__1::__advance<std::__1::basic_string<char,std::__1::char_traits<char>,std::__1::allocator<char> > *>(std::__1::basic_string<char,std::__1::char_traits<char>,std::__1::allocator<char> >*&, long long, std::__1::random_access_iterator_tag)
FUNC 10830 8e 0 std::__1::_AllocatorDestroyRangeReverse<std::__1::allocator<std::__1::basic_string<char,std::__1::char_traits<char>,std::__1::allocator<char> > >,std::__1::reverse_iterator<std::__1::basic_string<char,std::__1::char_traits<char>,std::__1::allocator<char> > *> >::operator()() const
FUNC 108c0 6e 0 std::__1::__allocator_destroy<std::__1::allocator<std::__1::basic_string<char,std::__1::char_traits<char>,std::__1::allocator<char> > >,std::__1::reverse_iterator<std::__1::reverse_iterator<std::__1::basic_string<char,std::__1::char_traits<char>,std::__1::allocator<char> > *> >,std::__1::reverse_iterator<std::__1::reverse_iterator<std::__1::basic_string<char,std::__1::char_traits<char>,std::__1::allocator<char> > *> > >(std::__1::allocator<std::__1::basic_string<char,std::__1::char_traits<char>,std::__1::allocator<char> > >&, std::__1::reverse_iterator<std::__1::reverse_iterator<std::__1::basic_string<char,std::__1::char_traits<char>,std::__1::allocator<char> > *> >, std::__1::reverse_iterator<std::__1::reverse_iterator<std::__1::basic_string<char,std::__1::char_traits<char>,std::__1::allocator<char> > *> >)
FUNC 10930 35 0 std::__1::reverse_iterator<std::__1::reverse_iterator<std::__1::basic_string<char,std::__1::char_traits<char>,std::__1::allocator<char> > *> >::reverse_iterator(std::__1::reverse_iterator<std::__1::basic_string<char,std::__1::char_traits<char>,std::__1::allocator<char> > *>)
FUNC 10970 45 0 std::__1::operator!=<std::__1::reverse_iterator<std::__1::basic_string<char,std::__1::char_traits<char>,std::__1::allocator<char> > *>,std::__1::reverse_iterator<std::__1::basic_string<char,std::__1::char_traits<char>,std::__1::allocator<char> > *> >(std::__1::reverse_iterator<std::__1::reverse_iterator<std::__1::basic_string<char,std::__1::char_traits<char>,std::__1::allocator<char> > *> > const&, std::__1::reverse_iterator<std::__1::reverse_iterator<std::__1::basic_string<char,std::__1::char_traits<char>,std::__1::allocator<char> > *> > const&)
FUNC 109c0 1e 0 std::__1::allocator_traits<std::__1::allocator<std::__1::basic_string<char,std::__1::char_traits<char>,std::__1::allocator<char> > > >::destroy<std::__1::basic_string<char,std::__1::char_traits<char>,std::__1::allocator<char> >,void,void>(std::__1::allocator<std::__1::basic_string<char,std::__1::char_traits<char>,std::__1::allocator<char> > >&, std::__1::basic_string<char,std::__1::char_traits<char>,std::__1::allocator<char> >*)
FUNC 109e0 19 0 std::__1::__to_address<std::__1::reverse_iterator<std::__1::reverse_iterator<std::__1::basic_string<char,std::__1::char_traits<char>,std::__1::allocator<char> > *> >,void>(std::__1::reverse_iterator<std::__1::reverse_iterator<std::__1::basic_string<char,std::__1::char_traits<char>,std::__1::allocator<char> > *> > const&)
FUNC 10a00 26 0 std::__1::reverse_iterator<std::__1::reverse_iterator<std::__1::basic_string<char,std::__1::char_traits<char>,std::__1::allocator<char> > *> >::operator++()
FUNC 10a30 28 0 std::__1::reverse_iterator<std::__1::reverse_iterator<std::__1::basic_string<char,std::__1::char_traits<char>,std::__1::allocator<char> > *> >::base() const
FUNC 10a60 19 0 std::__1::destroy_at<std::__1::basic_string<char,std::__1::char_traits<char>,std::__1::allocator<char> >,0>(std::__1::basic_string<char,std::__1::char_traits<char>,std::__1::allocator<char> >*)
FUNC 10a80 19 0 std::__1::__destroy_at<std::__1::basic_string<char,std::__1::char_traits<char>,std::__1::allocator<char> >,0>(std::__1::basic_string<char,std::__1::char_traits<char>,std::__1::allocator<char> >*)
FUNC 10aa0 36 0 std::__1::__to_address_helper<std::__1::reverse_iterator<std::__1::reverse_iterator<std::__1::basic_string<char,std::__1::char_traits<char>,std::__1::allocator<char> > *> >,void>::__call(std::__1::reverse_iterator<std::__1::reverse_iterator<std::__1::basic_string<char,std::__1::char_traits<char>,std::__1::allocator<char> > *> > const&)
FUNC 10ae0 45 0 std::__1::reverse_iterator<std::__1::reverse_iterator<std::__1::basic_string<char,std::__1::char_traits<char>,std::__1::allocator<char> > *> >::operator->() const
FUNC 10b30 5d 0 std::__1::prev<std::__1::reverse_iterator<std::__1::basic_string<char,std::__1::char_traits<char>,std::__1::allocator<char> > *> >(std::__1::reverse_iterator<std::__1::basic_string<char,std::__1::char_traits<char>,std::__1::allocator<char> > *>, long long)
FUNC 10b90 37 0 std::__1::advance<std::__1::reverse_iterator<std::__1::basic_string<char,std::__1::char_traits<char>,std::__1::allocator<char> > *>,long long,long long,void>(std::__1::reverse_iterator<std::__1::basic_string<char,std::__1::char_traits<char>,std::__1::allocator<char> > *>&, long long)
FUNC 10bd0 28 0 std::__1::__advance<std::__1::reverse_iterator<std::__1::basic_string<char,std::__1::char_traits<char>,std::__1::allocator<char> > *> >(std::__1::reverse_iterator<std::__1::basic_string<char,std::__1::char_traits<char>,std::__1::allocator<char> > *>&, long long, std::__1::random_access_iterator_tag)
FUNC 10c00 2f 0 std::__1::reverse_iterator<std::__1::basic_string<char,std::__1::char_traits<char>,std::__1::allocator<char> > *>::operator+=(long long)
FUNC 10c30 17 0 std::__1::reverse_iterator<std::__1::basic_string<char,std::__1::char_traits<char>,std::__1::allocator<char> > *>::operator--()
FUNC 10c50 1d 0 std::__1::__split_buffer<std::__1::basic_string<char,std::__1::char_traits<char>,std::__1::allocator<char> >,std::__1::allocator<std::__1::basic_string<char,std::__1::char_traits<char>,std::__1::allocator<char> > > &>::clear()
FUNC 10c70 2d 0 std::__1::allocator_traits<std::__1::allocator<std::__1::basic_string<char,std::__1::char_traits<char>,std::__1::allocator<char> > > >::deallocate(std::__1::allocator<std::__1::basic_string<char,std::__1::char_traits<char>,std::__1::allocator<char> > >&, std::__1::basic_string<char,std::__1::char_traits<char>,std::__1::allocator<char> >*, unsigned long long)
FUNC 10ca0 35 0 std::__1::__split_buffer<std::__1::basic_string<char,std::__1::char_traits<char>,std::__1::allocator<char> >,std::__1::allocator<std::__1::basic_string<char,std::__1::char_traits<char>,std::__1::allocator<char> > > &>::capacity() const
FUNC 10ce0 28 0 std::__1::__split_buffer<std::__1::basic_string<char,std::__1::char_traits<char>,std::__1::allocator<char> >,std::__1::allocator<std::__1::basic_string<char,std::__1::char_traits<char>,std::__1::allocator<char> > > &>::__destruct_at_end(std::__1::basic_string<char,std::__1::char_traits<char>,std::__1::allocator<char> >*)
FUNC 10d10 7e 0 std::__1::__split_buffer<std::__1::basic_string<char,std::__1::char_traits<char>,std::__1::allocator<char> >,std::__1::allocator<std::__1::basic_string<char,std::__1::char_traits<char>,std::__1::allocator<char> > > &>::__destruct_at_end(std::__1::basic_string<char,std::__1::char_traits<char>,std::__1::allocator<char> >*, std::__1::integral_constant<bool,0>)
FUNC 10d90 43 0 std::__1::allocator<std::__1::basic_string<char,std::__1::char_traits<char>,std::__1::allocator<char> > >::deallocate(std::__1::basic_string<char,std::__1::char_traits<char>,std::__1::allocator<char> >*, unsigned long long)
FUNC 10de0 1d 0 std::__1::__split_buffer<std::__1::basic_string<char,std::__1::char_traits<char>,std::__1::allocator<char> >,std::__1::allocator<std::__1::basic_string<char,std::__1::char_traits<char>,std::__1::allocator<char> > > &>::__end_cap() const
FUNC 10e00 19 0 std::__1::__compressed_pair<std::__1::basic_string<char,std::__1::char_traits<char>,std::__1::allocator<char> > *,std::__1::allocator<std::__1::basic_string<char,std::__1::char_traits<char>,std::__1::allocator<char> > > &>::first() const
FUNC 10e20 1e 0 std::__1::vector<base::FilePath,std::__1::allocator<base::FilePath> >::__destroy_vector::__destroy_vector(std::__1::vector<base::FilePath,std::__1::allocator<base::FilePath> >&)
FUNC 10e40 7f 0 std::__1::vector<base::FilePath,std::__1::allocator<base::FilePath> >::__destroy_vector::operator()()
FUNC 10ec0 1c 0 std::__1::vector<base::FilePath,std::__1::allocator<base::FilePath> >::__clear()
FUNC 10ee0 86 0 std::__1::vector<base::FilePath,std::__1::allocator<base::FilePath> >::__base_destruct_at_end(base::FilePath*)
FUNC 10f70 1e 0 std::__1::vector<std::__1::basic_string<char,std::__1::char_traits<char>,std::__1::allocator<char> >,std::__1::allocator<std::__1::basic_string<char,std::__1::char_traits<char>,std::__1::allocator<char> > > >::__destroy_vector::__destroy_vector(std::__1::vector<std::__1::basic_string<char,std::__1::char_traits<char>,std::__1::allocator<char> >,std::__1::allocator<std::__1::basic_string<char,std::__1::char_traits<char>,std::__1::allocator<char> > > >&)
FUNC 10f90 7f 0 std::__1::vector<std::__1::basic_string<char,std::__1::char_traits<char>,std::__1::allocator<char> >,std::__1::allocator<std::__1::basic_string<char,std::__1::char_traits<char>,std::__1::allocator<char> > > >::__destroy_vector::operator()()
FUNC 11010 1c 0 std::__1::vector<std::__1::basic_string<char,std::__1::char_traits<char>,std::__1::allocator<char> >,std::__1::allocator<std::__1::basic_string<char,std::__1::char_traits<char>,std::__1::allocator<char> > > >::__clear()
FUNC 11030 86 0 std::__1::vector<std::__1::basic_string<char,std::__1::char_traits<char>,std::__1::allocator<char> >,std::__1::allocator<std::__1::basic_string<char,std::__1::char_traits<char>,std::__1::allocator<char> > > >::__base_destruct_at_end(std::__1::basic_string<char,std::__1::char_traits<char>,std::__1::allocator<char> >*)
FUNC 110c0 6a 0 std::__1::unique_ptr<workrave::crash::CrashReporter::Pimpl,std::__1::default_delete<workrave::crash::CrashReporter::Pimpl> >::reset(workrave::crash::CrashReporter::Pimpl*)
FUNC 11130 19 0 std::__1::__compressed_pair<workrave::crash::CrashReporter::Pimpl *,std::__1::default_delete<workrave::crash::CrashReporter::Pimpl> >::first()
FUNC 11150 19 0 std::__1::__compressed_pair<workrave::crash::CrashReporter::Pimpl *,std::__1::default_delete<workrave::crash::CrashReporter::Pimpl> >::second()
FUNC 11170 3c 0 std::__1::default_delete<workrave::crash::CrashReporter::Pimpl>::operator()(workrave::crash::CrashReporter::Pimpl*) const
FUNC 111b0 b 0 std::__1::__compressed_pair_elem<workrave::crash::CrashReporter::Pimpl *,0,0>::__get()
FUNC 111c0 b 0 std::__1::__compressed_pair_elem<std::__1::default_delete<workrave::crash::CrashReporter::Pimpl>,1,1>::__get()
FUNC 111d0 1d 0 workrave::crash::CrashReporter::Pimpl::~Pimpl()
FUNC 111f0 19 0 std::__1::list<workrave::crash::CrashHandler *,std::__1::allocator<workrave::crash::CrashHandler *> >::~list()
FUNC 11210 19 0 std::__1::__list_imp<workrave::crash::CrashHandler *,std::__1::allocator<workrave::crash::CrashHandler *> >::~__list_imp()
FUNC 11230 eb 0 std::__1::__list_imp<workrave::crash::CrashHandler *,std::__1::allocator<workrave::crash::CrashHandler *> >::clear()
FUNC 11320 24 0 std::__1::__list_imp<workrave::crash::CrashHandler *,std::__1::allocator<workrave::crash::CrashHandler *> >::empty() const
FUNC 11350 1d 0 std::__1::__list_imp<workrave::crash::CrashHandler *,std::__1::allocator<workrave::crash::CrashHandler *> >::__node_alloc()
FUNC 11370 44 0 std::__1::__list_imp<workrave::crash::CrashHandler *,std::__1::allocator<workrave::crash::CrashHandler *> >::__end_as_link() const
FUNC 113c0 39 0 std::__1::__list_imp<workrave::crash::CrashHandler *,std::__1::allocator<workrave::crash::CrashHandler *> >::__unlink_nodes(std::__1::__list_node_base<workrave::crash::CrashHandler *,void *>*, std::__1::__list_node_base<workrave::crash::CrashHandler *,void *>*)
FUNC 11400 1d 0 std::__1::__list_imp<workrave::crash::CrashHandler *,std::__1::allocator<workrave::crash::CrashHandler *> >::__sz()
FUNC 11420 19 0 std::__1::__list_node_base<workrave::crash::CrashHandler *,void *>::__as_node()
FUNC 11440 1e 0 std::__1::allocator_traits<std::__1::allocator<std::__1::__list_node<workrave::crash::CrashHandler *,void *> > >::destroy<workrave::crash::CrashHandler *,void,void>(std::__1::allocator<std::__1::__list_node<workrave::crash::CrashHandler *,void *> >&, workrave::crash::CrashHandler**)
FUNC 11460 2d 0 std::__1::allocator_traits<std::__1::allocator<std::__1::__list_node<workrave::crash::CrashHandler *,void *> > >::deallocate(std::__1::allocator<std::__1::__list_node<workrave::crash::CrashHandler *,void *> >&, std::__1::__list_node<workrave::crash::CrashHandler *,void *>*, unsigned long long)
FUNC 11490 1d 0 std::__1::__list_imp<workrave::crash::CrashHandler *,std::__1::allocator<workrave::crash::CrashHandler *> >::__sz() const
FUNC 114b0 19 0 std::__1::__compressed_pair<unsigned long long,std::__1::allocator<std::__1::__list_node<workrave::crash::CrashHandler *,void *> > >::first() const
FUNC 114d0 b 0 std::__1::__compressed_pair_elem<unsigned long long,0,0>::__get() const
FUNC 114e0 19 0 std::__1::__compressed_pair<unsigned long long,std::__1::allocator<std::__1::__list_node<workrave::crash::CrashHandler *,void *> > >::second()
FUNC 11500 b 0 std::__1::__compressed_pair_elem<std::__1::allocator<std::__1::__list_node<workrave::crash::CrashHandler *,void *> >,1,1>::__get()
FUNC 11510 b 0 std::__1::__list_node_pointer_traits<workrave::crash::CrashHandler *,void *>::__unsafe_link_pointer_cast(std::__1::__list_node_base<workrave::crash::CrashHandler *,void *>*)
FUNC 11520 19 0 std::__1::__list_node_base<workrave::crash::CrashHandler *,void *>::__self()
FUNC 11540 b 0 std::__1::pointer_traits<std::__1::__list_node_base<workrave::crash::CrashHandler *,void *> *>::pointer_to(std::__1::__list_node_base<workrave::crash::CrashHandler *,void *>&)
FUNC 11550 19 0 std::__1::__compressed_pair<unsigned long long,std::__1::allocator<std::__1::__list_node<workrave::crash::CrashHandler *,void *> > >::first()
FUNC 11570 b 0 std::__1::__compressed_pair_elem<unsigned long long,0,0>::__get()
FUNC 11580 19 0 std::__1::destroy_at<workrave::crash::CrashHandler *,0>(workrave::crash::CrashHandler**)
FUNC 115a0 7 0 std::__1::__destroy_at<workrave::crash::CrashHandler *,0>(workrave::crash::CrashHandler**)
FUNC 115b0 43 0 std::__1::allocator<std::__1::__list_node<workrave::crash::CrashHandler *,void *> >::deallocate(std::__1::__list_node<workrave::crash::CrashHandler *,void *>*, unsigned long long)
FUNC 11600 37 0 workrave::crash::CrashReporter::Pimpl::Pimpl()
FUNC 11640 35 0 std::__1::unique_ptr<workrave::crash::CrashReporter::Pimpl,std::__1::default_delete<workrave::crash::CrashReporter::Pimpl> >::unique_ptr<1,void>(workrave::crash::CrashReporter::Pimpl*)
FUNC 11680 19 0 std::__1::list<workrave::crash::CrashHandler *,std::__1::allocator<workrave::crash::CrashHandler *> >::list()
FUNC 116a0 50 0 std::__1::__list_imp<workrave::crash::CrashHandler *,std::__1::allocator<workrave::crash::CrashHandler *> >::__list_imp()
FUNC 116f0 46 0 std::__1::__list_node_base<workrave::crash::CrashHandler *,void *>::__list_node_base()
FUNC 11740 3b 0 std::__1::__compressed_pair<unsigned long long,std::__1::allocator<std::__1::__list_node<workrave::crash::CrashHandler *,void *> > >::__compressed_pair<int,std::__1::__default_init_tag>(int&&, std::__1::__default_init_tag&&)
FUNC 11780 21 0 std::__1::__compressed_pair_elem<unsigned long long,0,0>::__compressed_pair_elem<int,void>(int&&)
FUNC 117b0 1d 0 std::__1::__compressed_pair_elem<std::__1::allocator<std::__1::__list_node<workrave::crash::CrashHandler *,void *> >,1,1>::__compressed_pair_elem(std::__1::__default_init_tag)
FUNC 117d0 19 0 std::__1::allocator<std::__1::__list_node<workrave::crash::CrashHandler *,void *> >::allocator()
FUNC 117f0 7 0 std::__1::__non_trivial_if<1,std::__1::allocator<std::__1::__list_node<workrave::crash::CrashHandler *,void *> > >::__non_trivial_if()
FUNC 11800 3b 0 std::__1::__compressed_pair<workrave::crash::CrashReporter::Pimpl *,std::__1::default_delete<workrave::crash::CrashReporter::Pimpl> >::__compressed_pair<workrave::crash::CrashReporter::Pimpl *&,std::__1::__value_init_tag>(workrave::crash::CrashReporter::Pimpl*&, std::__1::__value_init_tag&&)
FUNC 11840 21 0 std::__1::__compressed_pair_elem<workrave::crash::CrashReporter::Pimpl *,0,0>::__compressed_pair_elem<workrave::crash::CrashReporter::Pimpl *&,void>(workrave::crash::CrashReporter::Pimpl*&)
FUNC 11870 3b 0 std::__1::unique_ptr<workrave::crash::CrashReporter::Pimpl,std::__1::default_delete<workrave::crash::CrashReporter::Pimpl> >::release()
FUNC 118b0 19 0 std::__1::unique_ptr<workrave::crash::CrashReporter::Pimpl,std::__1::default_delete<workrave::crash::CrashReporter::Pimpl> >::get_deleter()
FUNC 118d0 19 0 std::__1::__compressed_pair<workrave::crash::CrashReporter::Pimpl *,std::__1::default_delete<workrave::crash::CrashReporter::Pimpl> >::first() const
FUNC 118f0 b 0 std::__1::__compressed_pair_elem<workrave::crash::CrashReporter::Pimpl *,0,0>::__get() const
FUNC 11900 28 0 spdlog::logger::critical<char[7]>(char[7] const&)
FUNC 11930 a7 0 spdlog::logger::log<char[7]>(spdlog::level::level_enum, char[7] const&)
FUNC 119e0 40 0 std::__1::basic_string<wchar_t,std::__1::char_traits<wchar_t>,std::__1::allocator<wchar_t> >::basic_string()
FUNC 11a20 49 0 std::__1::__fs::filesystem::_PathCVT<char>::__append_source<char[18]>(std::__1::basic_string<wchar_t,std::__1::char_traits<wchar_t>,std::__1::allocator<wchar_t> >&, char[18] const&)
FUNC 11a70 73 0 std::__1::__fs::filesystem::_PathCVT<char>::__append_range<const char *>(std::__1::basic_string<wchar_t,std::__1::char_traits<wchar_t>,std::__1::allocator<wchar_t> >&, char const*, char const*)
FUNC 11af0 b 0 std::__1::__fs::filesystem::__is_pathable_char_array<char[18],char *,char,1>::__range_begin(char const*)
FUNC 11b00 46 0 std::__1::__fs::filesystem::__is_pathable_char_array<char[18],char *,char,1>::__range_end(char const*)
FUNC 11b50 46 0 std::__1::basic_string<char,std::__1::char_traits<char>,std::__1::allocator<char> >::basic_string<const char *,0>(char const*, char const*)
FUNC 11ba0 7f 0 std::__1::__fs::filesystem::_PathCVT<char>::__append_string(std::__1::basic_string<wchar_t,std::__1::char_traits<wchar_t>,std::__1::allocator<wchar_t> >&, std::__1::basic_string<char,std::__1::char_traits<char>,std::__1::allocator<char> > const&)
FUNC 11c20 50 0 std::__1::basic_string<char,std::__1::char_traits<char>,std::__1::allocator<char> >::__init<const char *,0>(char const*, char const*)
FUNC 11c70 28 0 std::__1::distance<const char *>(char const*, char const*)
FUNC 11ca0 15a 0 std::__1::basic_string<char,std::__1::char_traits<char>,std::__1::allocator<char> >::__init_with_size<const char *,const char *>(char const*, char const*, unsigned long long)
FUNC 11e00 23 0 std::__1::__distance<const char *>(char const*, char const*, std::__1::random_access_iterator_tag)
FUNC 11e30 9e 0 std::__1::basic_string<char,std::__1::char_traits<char>,std::__1::allocator<char> >::max_size() const
FUNC 11ed0 16 0 std::__1::basic_string<char,std::__1::char_traits<char>,std::__1::allocator<char> >::__throw_length_error() const
FUNC 11ef0 14 0 std::__1::basic_string<char,std::__1::char_traits<char>,std::__1::allocator<char> >::__fits_in_sso(unsigned long long)
FUNC 11f10 55 0 std::__1::basic_string<char,std::__1::char_traits<char>,std::__1::allocator<char> >::__set_short_size(unsigned long long)
FUNC 11f70 4d 0 std::__1::__allocate_at_least<std::__1::allocator<char> >(std::__1::allocator<char>&, unsigned long long)
FUNC 11fc0 19 0 std::__1::basic_string<char,std::__1::char_traits<char>,std::__1::allocator<char> >::__alloc()
FUNC 11fe0 68 0 std::__1::basic_string<char,std::__1::char_traits<char>,std::__1::allocator<char> >::__recommend(unsigned long long)
FUNC 12050 12 0 std::__1::basic_string<char,std::__1::char_traits<char>,std::__1::allocator<char> >::__begin_lifetime(char*, unsigned long long)
FUNC 12070 30 0 std::__1::basic_string<char,std::__1::char_traits<char>,std::__1::allocator<char> >::__set_long_pointer(char*)
FUNC 120a0 69 0 std::__1::basic_string<char,std::__1::char_traits<char>,std::__1::allocator<char> >::__set_long_cap(unsigned long long)
FUNC 12110 30 0 std::__1::basic_string<char,std::__1::char_traits<char>,std::__1::allocator<char> >::__set_long_size(unsigned long long)
FUNC 12140 1f 0 std::__1::char_traits<char>::assign(char&, char const&)
FUNC 12160 19 0 std::__1::basic_string<char,std::__1::char_traits<char>,std::__1::allocator<char> >::__alloc() const
FUNC 12180 19 0 std::__1::__compressed_pair<std::__1::basic_string<char,std::__1::char_traits<char>,std::__1::allocator<char> >::__rep,std::__1::allocator<char> >::second() const
FUNC 121a0 b 0 std::__1::__compressed_pair_elem<std::__1::allocator<char>,1,1>::__get() const
FUNC 121b0 19 0 std::__1::__compressed_pair<std::__1::basic_string<char,std::__1::char_traits<char>,std::__1::allocator<char> >::__rep,std::__1::allocator<char> >::second()
FUNC 121d0 b 0 std::__1::__compressed_pair_elem<std::__1::allocator<char>,1,1>::__get()
FUNC 121e0 13 0 std::__1::basic_string<char,std::__1::char_traits<char>,std::__1::allocator<char> >::__align_it<16>(unsigned long long)
FUNC 12200 26 0 std::__1::basic_string<wchar_t,std::__1::char_traits<wchar_t>,std::__1::allocator<wchar_t> >::resize(unsigned long long)
FUNC 12230 21 0 std::__1::basic_string<wchar_t,std::__1::char_traits<wchar_t>,std::__1::allocator<wchar_t> >::data()
FUNC 12260 b 0 std::__1::__to_address<wchar_t>(wchar_t*)
FUNC 12270 52 0 std::__1::basic_string<wchar_t,std::__1::char_traits<wchar_t>,std::__1::allocator<wchar_t> >::__get_pointer()
FUNC 122d0 1c 0 std::__1::basic_string<wchar_t,std::__1::char_traits<wchar_t>,std::__1::allocator<wchar_t> >::__get_long_pointer()
FUNC 122f0 25 0 std::__1::basic_string<wchar_t,std::__1::char_traits<wchar_t>,std::__1::allocator<wchar_t> >::__get_short_pointer()
FUNC 12320 b 0 std::__1::pointer_traits<wchar_t *>::pointer_to(wchar_t&)
FUNC 12330 49 0 std::__1::__fs::filesystem::_PathCVT<char>::__append_source<char[4]>(std::__1::basic_string<wchar_t,std::__1::char_traits<wchar_t>,std::__1::allocator<wchar_t> >&, char[4] const&)
FUNC 12380 b 0 std::__1::__fs::filesystem::__is_pathable_char_array<char[4],char *,char,1>::__range_begin(char const*)
FUNC 12390 46 0 std::__1::__fs::filesystem::__is_pathable_char_array<char[4],char *,char,1>::__range_end(char const*)
FUNC 123e0 49 0 std::__1::__fs::filesystem::_PathCVT<char>::__append_source<std::__1::basic_string<char,std::__1::char_traits<char>,std::__1::allocator<char> > >(std::__1::basic_string<wchar_t,std::__1::char_traits<wchar_t>,std::__1::allocator<wchar_t> >&, std::__1::basic_string<char,std::__1::char_traits<char>,std::__1::allocator<char> > const&)
FUNC 12430 19 0 std::__1::__fs::filesystem::__is_pathable_string<std::__1::basic_string<char,std::__1::char_traits<char>,std::__1::allocator<char> >,void>::__range_begin(std::__1::basic_string<char,std::__1::char_traits<char>,std::__1::allocator<char> > const&)
FUNC 12450 32 0 std::__1::__fs::filesystem::__is_pathable_string<std::__1::basic_string<char,std::__1::char_traits<char>,std::__1::allocator<char> >,void>::__range_end(std::__1::basic_string<char,std::__1::char_traits<char>,std::__1::allocator<char> > const&)
FUNC 12490 19 0 std::__1::basic_string<char,std::__1::char_traits<char>,std::__1::allocator<char> >::length() const
FUNC 124b0 11 0 std::__1::__map_value_compare<std::__1::basic_string<char,std::__1::char_traits<char>,std::__1::allocator<char> >,std::__1::__value_type<std::__1::basic_string<char,std::__1::char_traits<char>,std::__1::allocator<char> >,std::__1::basic_string<char,std::__1::char_traits<char>,std::__1::allocator<char> > >,std::__1::less<std::__1::basic_string<char,std::__1::char_traits<char>,std::__1::allocator<char> > >,1>::__map_value_compare(std::__1::less<std::__1::basic_string<char,std::__1::char_traits<char>,std::__1::allocator<char> > >)
FUNC 124d0 7a 0 std::__1::__tree<std::__1::__value_type<std::__1::basic_string<char,std::__1::char_traits<char>,std::__1::allocator<char> >,std::__1::basic_string<char,std::__1::char_traits<char>,std::__1::allocator<char> > >,std::__1::__map_value_compare<std::__1::basic_string<char,std::__1::char_traits<char>,std::__1::allocator<char> >,std::__1::__value_type<std::__1::basic_string<char,std::__1::char_traits<char>,std::__1::allocator<char> >,std::__1::basic_string<char,std::__1::char_traits<char>,std::__1::allocator<char> > >,std::__1::less<std::__1::basic_string<char,std::__1::char_traits<char>,std::__1::allocator<char> > >,1>,std::__1::allocator<std::__1::__value_type<std::__1::basic_string<char,std::__1::char_traits<char>,std::__1::allocator<char> >,std::__1::basic_string<char,std::__1::char_traits<char>,std::__1::allocator<char> > > > >::__tree(std::__1::__map_value_compare<std::__1::basic_string<char,std::__1::char_traits<char>,std::__1::allocator<char> >,std::__1::__value_type<std::__1::basic_string<char,std::__1::char_traits<char>,std::__1::allocator<char> >,std::__1::basic_string<char,std::__1::char_traits<char>,std::__1::allocator<char> > >,std::__1::less<std::__1::basic_string<char,std::__1::char_traits<char>,std::__1::allocator<char> > >,1> const&)
FUNC 12550 30 0 std::__1::__compressed_pair<std::__1::__tree_end_node<std::__1::__tree_node_base<void *> *>,std::__1::allocator<std::__1::__tree_node<std::__1::__value_type<std::__1::basic_string<char,std::__1::char_traits<char>,std::__1::allocator<char> >,std::__1::basic_string<char,std::__1::char_traits<char>,std::__1::allocator<char> > >,void *> > >::__compressed_pair<1,void>()
FUNC 12580 3c 0 std::__1::__compressed_pair<unsigned long long,std::__1::__map_value_compare<std::__1::basic_string<char,std::__1::char_traits<char>,std::__1::allocator<char> >,std::__1::__value_type<std::__1::basic_string<char,std::__1::char_traits<char>,std::__1::allocator<char> >,std::__1::basic_string<char,std::__1::char_traits<char>,std::__1::allocator<char> > >,std::__1::less<std::__1::basic_string<char,std::__1::char_traits<char>,std::__1::allocator<char> > >,1> >::__compressed_pair<int,const std::__1::__map_value_compare<std::__1::basic_string<char,std::__1::char_traits<char>,std::__1::allocator<char> >,std::__1::__value_type<std::__1::basic_string<char,std::__1::char_traits<char>,std::__1::allocator<char> >,std::__1::basic_string<char,std::__1::char_traits<char>,std::__1::allocator<char> > >,std::__1::less<std::__1::basic_string<char,std::__1::char_traits<char>,std::__1::allocator<char> > >,1> &>(int&&, std::__1::__map_value_compare<std::__1::basic_string<char,std::__1::char_traits<char>,std::__1::allocator<char> >,std::__1::__value_type<std::__1::basic_string<char,std::__1::char_traits<char>,std::__1::allocator<char> >,std::__1::basic_string<char,std::__1::char_traits<char>,std::__1::allocator<char> > >,std::__1::less<std::__1::basic_string<char,std::__1::char_traits<char>,std::__1::allocator<char> > >,1> const&)
FUNC 125c0 25 0 std::__1::__tree<std::__1::__value_type<std::__1::basic_string<char,std::__1::char_traits<char>,std::__1::allocator<char> >,std::__1::basic_string<char,std::__1::char_traits<char>,std::__1::allocator<char> > >,std::__1::__map_value_compare<std::__1::basic_string<char,std::__1::char_traits<char>,std::__1::allocator<char> >,std::__1::__value_type<std::__1::basic_string<char,std::__1::char_traits<char>,std::__1::allocator<char> >,std::__1::basic_string<char,std::__1::char_traits<char>,std::__1::allocator<char> > >,std::__1::less<std::__1::basic_string<char,std::__1::char_traits<char>,std::__1::allocator<char> > >,1>,std::__1::allocator<std::__1::__value_type<std::__1::basic_string<char,std::__1::char_traits<char>,std::__1::allocator<char> >,std::__1::basic_string<char,std::__1::char_traits<char>,std::__1::allocator<char> > > > >::__end_node()
FUNC 125f0 b 0 std::__1::__tree<std::__1::__value_type<std::__1::basic_string<char,std::__1::char_traits<char>,std::__1::allocator<char> >,std::__1::basic_string<char,std::__1::char_traits<char>,std::__1::allocator<char> > >,std::__1::__map_value_compare<std::__1::basic_string<char,std::__1::char_traits<char>,std::__1::allocator<char> >,std::__1::__value_type<std::__1::basic_string<char,std::__1::char_traits<char>,std::__1::allocator<char> >,std::__1::basic_string<char,std::__1::char_traits<char>,std::__1::allocator<char> > >,std::__1::less<std::__1::basic_string<char,std::__1::char_traits<char>,std::__1::allocator<char> > >,1>,std::__1::allocator<std::__1::__value_type<std::__1::basic_string<char,std::__1::char_traits<char>,std::__1::allocator<char> >,std::__1::basic_string<char,std::__1::char_traits<char>,std::__1::allocator<char> > > > >::__begin_node()
FUNC 12600 1d 0 std::__1::__compressed_pair_elem<std::__1::__tree_end_node<std::__1::__tree_node_base<void *> *>,0,0>::__compressed_pair_elem(std::__1::__value_init_tag)
FUNC 12620 1d 0 std::__1::__compressed_pair_elem<std::__1::allocator<std::__1::__tree_node<std::__1::__value_type<std::__1::basic_string<char,std::__1::char_traits<char>,std::__1::allocator<char> >,std::__1::basic_string<char,std::__1::char_traits<char>,std::__1::allocator<char> > >,void *> >,1,1>::__compressed_pair_elem(std::__1::__value_init_tag)
FUNC 12640 12 0 std::__1::__tree_end_node<std::__1::__tree_node_base<void *> *>::__tree_end_node()
FUNC 12660 19 0 std::__1::allocator<std::__1::__tree_node<std::__1::__value_type<std::__1::basic_string<char,std::__1::char_traits<char>,std::__1::allocator<char> >,std::__1::basic_string<char,std::__1::char_traits<char>,std::__1::allocator<char> > >,void *> >::allocator()
FUNC 12680 7 0 std::__1::__non_trivial_if<1,std::__1::allocator<std::__1::__tree_node<std::__1::__value_type<std::__1::basic_string<char,std::__1::char_traits<char>,std::__1::allocator<char> >,std::__1::basic_string<char,std::__1::char_traits<char>,std::__1::allocator<char> > >,void *> > >::__non_trivial_if()
FUNC 12690 12 0 std::__1::__compressed_pair_elem<std::__1::__map_value_compare<std::__1::basic_string<char,std::__1::char_traits<char>,std::__1::allocator<char> >,std::__1::__value_type<std::__1::basic_string<char,std::__1::char_traits<char>,std::__1::allocator<char> >,std::__1::basic_string<char,std::__1::char_traits<char>,std::__1::allocator<char> > >,std::__1::less<std::__1::basic_string<char,std::__1::char_traits<char>,std::__1::allocator<char> > >,1>,1,1>::__compressed_pair_elem<const std::__1::__map_value_compare<std::__1::basic_string<char,std::__1::char_traits<char>,std::__1::allocator<char> >,std::__1::__value_type<std::__1::basic_string<char,std::__1::char_traits<char>,std::__1::allocator<char> >,std::__1::basic_string<char,std::__1::char_traits<char>,std::__1::allocator<char> > >,std::__1::less<std::__1::basic_string<char,std::__1::char_traits<char>,std::__1::allocator<char> > >,1> &,void>(std::__1::__map_value_compare<std::__1::basic_string<char,std::__1::char_traits<char>,std::__1::allocator<char> >,std::__1::__value_type<std::__1::basic_string<char,std::__1::char_traits<char>,std::__1::allocator<char> >,std::__1::basic_string<char,std::__1::char_traits<char>,std::__1::allocator<char> > >,std::__1::less<std::__1::basic_string<char,std::__1::char_traits<char>,std::__1::allocator<char> > >,1> const&)
FUNC 126b0 b 0 std::__1::pointer_traits<std::__1::__tree_end_node<std::__1::__tree_node_base<void *> *> *>::pointer_to(std::__1::__tree_end_node<std::__1::__tree_node_base<void *> *>&)
FUNC 126c0 19 0 std::__1::__compressed_pair<std::__1::__tree_end_node<std::__1::__tree_node_base<void *> *>,std::__1::allocator<std::__1::__tree_node<std::__1::__value_type<std::__1::basic_string<char,std::__1::char_traits<char>,std::__1::allocator<char> >,std::__1::basic_string<char,std::__1::char_traits<char>,std::__1::allocator<char> > >,void *> > >::first()
FUNC 126e0 b 0 std::__1::__compressed_pair_elem<std::__1::__tree_end_node<std::__1::__tree_node_base<void *> *>,0,0>::__get()
FUNC 126f0 2b 0 std::__1::__tree<std::__1::__value_type<std::__1::basic_string<char,std::__1::char_traits<char>,std::__1::allocator<char> >,std::__1::basic_string<char,std::__1::char_traits<char>,std::__1::allocator<char> > >,std::__1::__map_value_compare<std::__1::basic_string<char,std::__1::char_traits<char>,std::__1::allocator<char> >,std::__1::__value_type<std::__1::basic_string<char,std::__1::char_traits<char>,std::__1::allocator<char> >,std::__1::basic_string<char,std::__1::char_traits<char>,std::__1::allocator<char> > >,std::__1::less<std::__1::basic_string<char,std::__1::char_traits<char>,std::__1::allocator<char> > >,1>,std::__1::allocator<std::__1::__value_type<std::__1::basic_string<char,std::__1::char_traits<char>,std::__1::allocator<char> >,std::__1::basic_string<char,std::__1::char_traits<char>,std::__1::allocator<char> > > > >::~__tree()
FUNC 12720 b2 0 std::__1::__tree<std::__1::__value_type<std::__1::basic_string<char,std::__1::char_traits<char>,std::__1::allocator<char> >,std::__1::basic_string<char,std::__1::char_traits<char>,std::__1::allocator<char> > >,std::__1::__map_value_compare<std::__1::basic_string<char,std::__1::char_traits<char>,std::__1::allocator<char> >,std::__1::__value_type<std::__1::basic_string<char,std::__1::char_traits<char>,std::__1::allocator<char> >,std::__1::basic_string<char,std::__1::char_traits<char>,std::__1::allocator<char> > >,std::__1::less<std::__1::basic_string<char,std::__1::char_traits<char>,std::__1::allocator<char> > >,1>,std::__1::allocator<std::__1::__value_type<std::__1::basic_string<char,std::__1::char_traits<char>,std::__1::allocator<char> >,std::__1::basic_string<char,std::__1::char_traits<char>,std::__1::allocator<char> > > > >::destroy(std::__1::__tree_node<std::__1::__value_type<std::__1::basic_string<char,std::__1::char_traits<char>,std::__1::allocator<char> >,std::__1::basic_string<char,std::__1::char_traits<char>,std::__1::allocator<char> > >,void *>*)
FUNC 127e0 1b 0 std::__1::__tree<std::__1::__value_type<std::__1::basic_string<char,std::__1::char_traits<char>,std::__1::allocator<char> >,std::__1::basic_string<char,std::__1::char_traits<char>,std::__1::allocator<char> > >,std::__1::__map_value_compare<std::__1::basic_string<char,std::__1::char_traits<char>,std::__1::allocator<char> >,std::__1::__value_type<std::__1::basic_string<char,std::__1::char_traits<char>,std::__1::allocator<char> >,std::__1::basic_string<char,std::__1::char_traits<char>,std::__1::allocator<char> > >,std::__1::less<std::__1::basic_string<char,std::__1::char_traits<char>,std::__1::allocator<char> > >,1>,std::__1::allocator<std::__1::__value_type<std::__1::basic_string<char,std::__1::char_traits<char>,std::__1::allocator<char> >,std::__1::basic_string<char,std::__1::char_traits<char>,std::__1::allocator<char> > > > >::__root() const
FUNC 12800 1d 0 std::__1::__tree<std::__1::__value_type<std::__1::basic_string<char,std::__1::char_traits<char>,std::__1::allocator<char> >,std::__1::basic_string<char,std::__1::char_traits<char>,std::__1::allocator<char> > >,std::__1::__map_value_compare<std::__1::basic_string<char,std::__1::char_traits<char>,std::__1::allocator<char> >,std::__1::__value_type<std::__1::basic_string<char,std::__1::char_traits<char>,std::__1::allocator<char> >,std::__1::basic_string<char,std::__1::char_traits<char>,std::__1::allocator<char> > >,std::__1::less<std::__1::basic_string<char,std::__1::char_traits<char>,std::__1::allocator<char> > >,1>,std::__1::allocator<std::__1::__value_type<std::__1::basic_string<char,std::__1::char_traits<char>,std::__1::allocator<char> >,std::__1::basic_string<char,std::__1::char_traits<char>,std::__1::allocator<char> > > > >::__node_alloc()
FUNC 12820 1e 0 std::__1::allocator_traits<std::__1::allocator<std::__1::__tree_node<std::__1::__value_type<std::__1::basic_string<char,std::__1::char_traits<char>,std::__1::allocator<char> >,std::__1::basic_string<char,std::__1::char_traits<char>,std::__1::allocator<char> > >,void *> > >::destroy<std::__1::pair<const std::__1::basic_string<char,std::__1::char_traits<char>,std::__1::allocator<char> >,std::__1::basic_string<char,std::__1::char_traits<char>,std::__1::allocator<char> > >,void,void>(std::__1::allocator<std::__1::__tree_node<std::__1::__value_type<std::__1::basic_string<char,std::__1::char_traits<char>,std::__1::allocator<char> >,std::__1::basic_string<char,std::__1::char_traits<char>,std::__1::allocator<char> > >,void *> >&, std::__1::pair<const std::__1::basic_string<char,std::__1::char_traits<char>,std::__1::allocator<char> >,std::__1::basic_string<char,std::__1::char_traits<char>,std::__1::allocator<char> > >*)
FUNC 12840 19 0 std::__1::__tree_key_value_types<std::__1::__value_type<std::__1::basic_string<char,std::__1::char_traits<char>,std::__1::allocator<char> >,std::__1::basic_string<char,std::__1::char_traits<char>,std::__1::allocator<char> > > >::__get_ptr(std::__1::__value_type<std::__1::basic_string<char,std::__1::char_traits<char>,std::__1::allocator<char> >,std::__1::basic_string<char,std::__1::char_traits<char>,std::__1::allocator<char> > >&)
FUNC 12860 2d 0 std::__1::allocator_traits<std::__1::allocator<std::__1::__tree_node<std::__1::__value_type<std::__1::basic_string<char,std::__1::char_traits<char>,std::__1::allocator<char> >,std::__1::basic_string<char,std::__1::char_traits<char>,std::__1::allocator<char> > >,void *> > >::deallocate(std::__1::allocator<std::__1::__tree_node<std::__1::__value_type<std::__1::basic_string<char,std::__1::char_traits<char>,std::__1::allocator<char> >,std::__1::basic_string<char,std::__1::char_traits<char>,std::__1::allocator<char> > >,void *> >&, std::__1::__tree_node<std::__1::__value_type<std::__1::basic_string<char,std::__1::char_traits<char>,std::__1::allocator<char> >,std::__1::basic_string<char,std::__1::char_traits<char>,std::__1::allocator<char> > >,void *>*, unsigned long long)
FUNC 12890 19 0 std::__1::__compressed_pair<std::__1::__tree_end_node<std::__1::__tree_node_base<void *> *>,std::__1::allocator<std::__1::__tree_node<std::__1::__value_type<std::__1::basic_string<char,std::__1::char_traits<char>,std::__1::allocator<char> >,std::__1::basic_string<char,std::__1::char_traits<char>,std::__1::allocator<char> > >,void *> > >::second()
FUNC 128b0 b 0 std::__1::__compressed_pair_elem<std::__1::allocator<std::__1::__tree_node<std::__1::__value_type<std::__1::basic_string<char,std::__1::char_traits<char>,std::__1::allocator<char> >,std::__1::basic_string<char,std::__1::char_traits<char>,std::__1::allocator<char> > >,void *> >,1,1>::__get()
FUNC 128c0 19 0 std::__1::destroy_at<std::__1::pair<const std::__1::basic_string<char,std::__1::char_traits<char>,std::__1::allocator<char> >,std::__1::basic_string<char,std::__1::char_traits<char>,std::__1::allocator<char> > >,0>(std::__1::pair<const std::__1::basic_string<char,std::__1::char_traits<char>,std::__1::allocator<char> >,std::__1::basic_string<char,std::__1::char_traits<char>,std::__1::allocator<char> > >*)
FUNC 128e0 19 0 std::__1::__destroy_at<std::__1::pair<const std::__1::basic_string<char,std::__1::char_traits<char>,std::__1::allocator<char> >,std::__1::basic_string<char,std::__1::char_traits<char>,std::__1::allocator<char> > >,0>(std::__1::pair<const std::__1::basic_string<char,std::__1::char_traits<char>,std::__1::allocator<char> >,std::__1::basic_string<char,std::__1::char_traits<char>,std::__1::allocator<char> > >*)
FUNC 12900 2c 0 std::__1::pair<const std::__1::basic_string<char,std::__1::char_traits<char>,std::__1::allocator<char> >,std::__1::basic_string<char,std::__1::char_traits<char>,std::__1::allocator<char> > >::~pair()
FUNC 12930 19 0 std::__1::__value_type<std::__1::basic_string<char,std::__1::char_traits<char>,std::__1::allocator<char> >,std::__1::basic_string<char,std::__1::char_traits<char>,std::__1::allocator<char> > >::__get_value()
FUNC 12950 19 0 std::__1::launder<std::__1::pair<const std::__1::basic_string<char,std::__1::char_traits<char>,std::__1::allocator<char> >,std::__1::basic_string<char,std::__1::char_traits<char>,std::__1::allocator<char> > > >(std::__1::pair<const std::__1::basic_string<char,std::__1::char_traits<char>,std::__1::allocator<char> >,std::__1::basic_string<char,std::__1::char_traits<char>,std::__1::allocator<char> > >*)
FUNC 12970 b 0 std::__1::__launder<std::__1::pair<const std::__1::basic_string<char,std::__1::char_traits<char>,std::__1::allocator<char> >,std::__1::basic_string<char,std::__1::char_traits<char>,std::__1::allocator<char> > > >(std::__1::pair<const std::__1::basic_string<char,std::__1::char_traits<char>,std::__1::allocator<char> >,std::__1::basic_string<char,std::__1::char_traits<char>,std::__1::allocator<char> > >*)
FUNC 12980 43 0 std::__1::allocator<std::__1::__tree_node<std::__1::__value_type<std::__1::basic_string<char,std::__1::char_traits<char>,std::__1::allocator<char> >,std::__1::basic_string<char,std::__1::char_traits<char>,std::__1::allocator<char> > >,void *> >::deallocate(std::__1::__tree_node<std::__1::__value_type<std::__1::basic_string<char,std::__1::char_traits<char>,std::__1::allocator<char> >,std::__1::basic_string<char,std::__1::char_traits<char>,std::__1::allocator<char> > >,void *>*, unsigned long long)
FUNC 129d0 25 0 std::__1::__tree<std::__1::__value_type<std::__1::basic_string<char,std::__1::char_traits<char>,std::__1::allocator<char> >,std::__1::basic_string<char,std::__1::char_traits<char>,std::__1::allocator<char> > >,std::__1::__map_value_compare<std::__1::basic_string<char,std::__1::char_traits<char>,std::__1::allocator<char> >,std::__1::__value_type<std::__1::basic_string<char,std::__1::char_traits<char>,std::__1::allocator<char> >,std::__1::basic_string<char,std::__1::char_traits<char>,std::__1::allocator<char> > >,std::__1::less<std::__1::basic_string<char,std::__1::char_traits<char>,std::__1::allocator<char> > >,1>,std::__1::allocator<std::__1::__value_type<std::__1::basic_string<char,std::__1::char_traits<char>,std::__1::allocator<char> >,std::__1::basic_string<char,std::__1::char_traits<char>,std::__1::allocator<char> > > > >::__end_node() const
FUNC 12a00 19 0 std::__1::__compressed_pair<std::__1::__tree_end_node<std::__1::__tree_node_base<void *> *>,std::__1::allocator<std::__1::__tree_node<std::__1::__value_type<std::__1::basic_string<char,std::__1::char_traits<char>,std::__1::allocator<char> >,std::__1::basic_string<char,std::__1::char_traits<char>,std::__1::allocator<char> > >,void *> > >::first() const
FUNC 12a20 b 0 std::__1::__compressed_pair_elem<std::__1::__tree_end_node<std::__1::__tree_node_base<void *> *>,0,0>::__get() const
FUNC 12a30 153 0 std::__1::__tree<std::__1::__value_type<std::__1::basic_string<char,std::__1::char_traits<char>,std::__1::allocator<char> >,std::__1::basic_string<char,std::__1::char_traits<char>,std::__1::allocator<char> > >,std::__1::__map_value_compare<std::__1::basic_string<char,std::__1::char_traits<char>,std::__1::allocator<char> >,std::__1::__value_type<std::__1::basic_string<char,std::__1::char_traits<char>,std::__1::allocator<char> >,std::__1::basic_string<char,std::__1::char_traits<char>,std::__1::allocator<char> > >,std::__1::less<std::__1::basic_string<char,std::__1::char_traits<char>,std::__1::allocator<char> > >,1>,std::__1::allocator<std::__1::__value_type<std::__1::basic_string<char,std::__1::char_traits<char>,std::__1::allocator<char> >,std::__1::basic_string<char,std::__1::char_traits<char>,std::__1::allocator<char> > > > >::__emplace_unique_key_args<std::__1::basic_string<char,std::__1::char_traits<char>,std::__1::allocator<char> >,const std::__1::piecewise_construct_t &,std::__1::tuple<std::__1::basic_string<char,std::__1::char_traits<char>,std::__1::allocator<char> > &&>,std::__1::tuple<> >(std::__1::basic_string<char,std::__1::char_traits<char>,std::__1::allocator<char> > const&, std::__1::piecewise_construct_t const&, std::__1::tuple<std::__1::basic_string<char,std::__1::char_traits<char>,std::__1::allocator<char> > &&>&&, std::__1::tuple<>&&)
FUNC 12b90 22 0 std::__1::forward_as_tuple<std::__1::basic_string<char,std::__1::char_traits<char>,std::__1::allocator<char> > >(std::__1::basic_string<char,std::__1::char_traits<char>,std::__1::allocator<char> >&&)
FUNC 12bc0 7 0 std::__1::forward_as_tuple<>()
FUNC 12bd0 25 0 std::__1::__tree_iterator<std::__1::__value_type<std::__1::basic_string<char,std::__1::char_traits<char>,std::__1::allocator<char> >,std::__1::basic_string<char,std::__1::char_traits<char>,std::__1::allocator<char> > >,std::__1::__tree_node<std::__1::__value_type<std::__1::basic_string<char,std::__1::char_traits<char>,std::__1::allocator<char> >,std::__1::basic_string<char,std::__1::char_traits<char>,std::__1::allocator<char> > >,void *> *,long long>::operator->() const
FUNC 12c00 198 0 std::__1::__tree<std::__1::__value_type<std::__1::basic_string<char,std::__1::char_traits<char>,std::__1::allocator<char> >,std::__1::basic_string<char,std::__1::char_traits<char>,std::__1::allocator<char> > >,std::__1::__map_value_compare<std::__1::basic_string<char,std::__1::char_traits<char>,std::__1::allocator<char> >,std::__1::__value_type<std::__1::basic_string<char,std::__1::char_traits<char>,std::__1::allocator<char> >,std::__1::basic_string<char,std::__1::char_traits<char>,std::__1::allocator<char> > >,std::__1::less<std::__1::basic_string<char,std::__1::char_traits<char>,std::__1::allocator<char> > >,1>,std::__1::allocator<std::__1::__value_type<std::__1::basic_string<char,std::__1::char_traits<char>,std::__1::allocator<char> >,std::__1::basic_string<char,std::__1::char_traits<char>,std::__1::allocator<char> > > > >::__find_equal<std::__1::basic_string<char,std::__1::char_traits<char>,std::__1::allocator<char> > >(std::__1::__tree_end_node<std::__1::__tree_node_base<void *> *>*&, std::__1::basic_string<char,std::__1::char_traits<char>,std::__1::allocator<char> > const&)
FUNC 12da0 170 0 std::__1::__tree<std::__1::__value_type<std::__1::basic_string<char,std::__1::char_traits<char>,std::__1::allocator<char> >,std::__1::basic_string<char,std::__1::char_traits<char>,std::__1::allocator<char> > >,std::__1::__map_value_compare<std::__1::basic_string<char,std::__1::char_traits<char>,std::__1::allocator<char> >,std::__1::__value_type<std::__1::basic_string<char,std::__1::char_traits<char>,std::__1::allocator<char> >,std::__1::basic_string<char,std::__1::char_traits<char>,std::__1::allocator<char> > >,std::__1::less<std::__1::basic_string<char,std::__1::char_traits<char>,std::__1::allocator<char> > >,1>,std::__1::allocator<std::__1::__value_type<std::__1::basic_string<char,std::__1::char_traits<char>,std::__1::allocator<char> >,std::__1::basic_string<char,std::__1::char_traits<char>,std::__1::allocator<char> > > > >::__construct_node<const std::__1::piecewise_construct_t &,std::__1::tuple<std::__1::basic_string<char,std::__1::char_traits<char>,std::__1::allocator<char> > &&>,std::__1::tuple<> >(std::__1::piecewise_construct_t const&, std::__1::tuple<std::__1::basic_string<char,std::__1::char_traits<char>,std::__1::allocator<char> > &&>&&, std::__1::tuple<>&&)
FUNC 12f10 c2 0 std::__1::__tree<std::__1::__value_type<std::__1::basic_string<char,std::__1::char_traits<char>,std::__1::allocator<char> >,std::__1::basic_string<char,std::__1::char_traits<char>,std::__1::allocator<char> > >,std::__1::__map_value_compare<std::__1::basic_string<char,std::__1::char_traits<char>,std::__1::allocator<char> >,std::__1::__value_type<std::__1::basic_string<char,std::__1::char_traits<char>,std::__1::allocator<char> >,std::__1::basic_string<char,std::__1::char_traits<char>,std::__1::allocator<char> > >,std::__1::less<std::__1::basic_string<char,std::__1::char_traits<char>,std::__1::allocator<char> > >,1>,std::__1::allocator<std::__1::__value_type<std::__1::basic_string<char,std::__1::char_traits<char>,std::__1::allocator<char> >,std::__1::basic_string<char,std::__1::char_traits<char>,std::__1::allocator<char> > > > >::__insert_node_at(std::__1::__tree_end_node<std::__1::__tree_node_base<void *> *>*, std::__1::__tree_node_base<void *>*&, std::__1::__tree_node_base<void *>*)
FUNC 12fe0 1b 0 std::__1::unique_ptr<std::__1::__tree_node<std::__1::__value_type<std::__1::basic_string<char,std::__1::char_traits<char>,std::__1::allocator<char> >,std::__1::basic_string<char,std::__1::char_traits<char>,std::__1::allocator<char> > >,void *>,std::__1::__tree_node_destructor<std::__1::allocator<std::__1::__tree_node<std::__1::__value_type<std::__1::basic_string<char,std::__1::char_traits<char>,std::__1::allocator<char> >,std::__1::basic_string<char,std::__1::char_traits<char>,std::__1::allocator<char> > >,void *> > > >::get() const
FUNC 13000 3b 0 std::__1::unique_ptr<std::__1::__tree_node<std::__1::__value_type<std::__1::basic_string<char,std::__1::char_traits<char>,std::__1::allocator<char> >,std::__1::basic_string<char,std::__1::char_traits<char>,std::__1::allocator<char> > >,void *>,std::__1::__tree_node_destructor<std::__1::allocator<std::__1::__tree_node<std::__1::__value_type<std::__1::basic_string<char,std::__1::char_traits<char>,std::__1::allocator<char> >,std::__1::basic_string<char,std::__1::char_traits<char>,std::__1::allocator<char> > >,void *> > > >::release()
FUNC 13040 1d 0 std::__1::unique_ptr<std::__1::__tree_node<std::__1::__value_type<std::__1::basic_string<char,std::__1::char_traits<char>,std::__1::allocator<char> >,std::__1::basic_string<char,std::__1::char_traits<char>,std::__1::allocator<char> > >,void *>,std::__1::__tree_node_destructor<std::__1::allocator<std::__1::__tree_node<std::__1::__value_type<std::__1::basic_string<char,std::__1::char_traits<char>,std::__1::allocator<char> >,std::__1::basic_string<char,std::__1::char_traits<char>,std::__1::allocator<char> > >,void *> > > >::~unique_ptr()
FUNC 13060 1e 0 std::__1::__tree_iterator<std::__1::__value_type<std::__1::basic_string<char,std::__1::char_traits<char>,std::__1::allocator<char> >,std::__1::basic_string<char,std::__1::char_traits<char>,std::__1::allocator<char> > >,std::__1::__tree_node<std::__1::__value_type<std::__1::basic_string<char,std::__1::char_traits<char>,std::__1::allocator<char> >,std::__1::basic_string<char,std::__1::char_traits<char>,std::__1::allocator<char> > >,void *> *,long long>::__tree_iterator(std::__1::__tree_node<std::__1::__value_type<std::__1::basic_string<char,std::__1::char_traits<char>,std::__1::allocator<char> >,std::__1::basic_string<char,std::__1::char_traits<char>,std::__1::allocator<char> > >,void *>*)
FUNC 13080 33 0 std::__1::pair<std::__1::__tree_iterator<std::__1::__value_type<std::__1::basic_string<char,std::__1::char_traits<char>,std::__1::allocator<char> >,std::__1::basic_string<char,std::__1::char_traits<char>,std::__1::allocator<char> > >,std::__1::__tree_node<std::__1::__value_type<std::__1::basic_string<char,std::__1::char_traits<char>,std::__1::allocator<char> >,std::__1::basic_string<char,std::__1::char_traits<char>,std::__1::allocator<char> > >,void *> *,long long>,bool>::pair<std::__1::__tree_iterator<std::__1::__value_type<std::__1::basic_string<char,std::__1::char_traits<char>,std::__1::allocator<char> >,std::__1::basic_string<char,std::__1::char_traits<char>,std::__1::allocator<char> > >,std::__1::__tree_node<std::__1::__value_type<std::__1::basic_string<char,std::__1::char_traits<char>,std::__1::allocator<char> >,std::__1::basic_string<char,std::__1::char_traits<char>,std::__1::allocator<char> > >,void *> *,long long>,bool &,nullptr>(std::__1::__tree_iterator<std::__1::__value_type<std::__1::basic_string<char,std::__1::char_traits<char>,std::__1::allocator<char> >,std::__1::basic_string<char,std::__1::char_traits<char>,std::__1::allocator<char> > >,std::__1::__tree_node<std::__1::__value_type<std::__1::basic_string<char,std::__1::char_traits<char>,std::__1::allocator<char> >,std::__1::basic_string<char,std::__1::char_traits<char>,std::__1::allocator<char> > >,void *> *,long long>&&, bool&)
FUNC 130c0 19 0 std::__1::__tree<std::__1::__value_type<std::__1::basic_string<char,std::__1::char_traits<char>,std::__1::allocator<char> >,std::__1::basic_string<char,std::__1::char_traits<char>,std::__1::allocator<char> > >,std::__1::__map_value_compare<std::__1::basic_string<char,std::__1::char_traits<char>,std::__1::allocator<char> >,std::__1::__value_type<std::__1::basic_string<char,std::__1::char_traits<char>,std::__1::allocator<char> >,std::__1::basic_string<char,std::__1::char_traits<char>,std::__1::allocator<char> > >,std::__1::less<std::__1::basic_string<char,std::__1::char_traits<char>,std::__1::allocator<char> > >,1>,std::__1::allocator<std::__1::__value_type<std::__1::basic_string<char,std::__1::char_traits<char>,std::__1::allocator<char> >,std::__1::basic_string<char,std::__1::char_traits<char>,std::__1::allocator<char> > > > >::__root_ptr() const
FUNC 130e0 1d 0 std::__1::__tree<std::__1::__value_type<std::__1::basic_string<char,std::__1::char_traits<char>,std::__1::allocator<char> >,std::__1::basic_string<char,std::__1::char_traits<char>,std::__1::allocator<char> > >,std::__1::__map_value_compare<std::__1::basic_string<char,std::__1::char_traits<char>,std::__1::allocator<char> >,std::__1::__value_type<std::__1::basic_string<char,std::__1::char_traits<char>,std::__1::allocator<char> >,std::__1::basic_string<char,std::__1::char_traits<char>,std::__1::allocator<char> > >,std::__1::less<std::__1::basic_string<char,std::__1::char_traits<char>,std::__1::allocator<char> > >,1>,std::__1::allocator<std::__1::__value_type<std::__1::basic_string<char,std::__1::char_traits<char>,std::__1::allocator<char> >,std::__1::basic_string<char,std::__1::char_traits<char>,std::__1::allocator<char> > > > >::value_comp()
FUNC 13100 4d 0 std::__1::__map_value_compare<std::__1::basic_string<char,std::__1::char_traits<char>,std::__1::allocator<char> >,std::__1::__value_type<std::__1::basic_string<char,std::__1::char_traits<char>,std::__1::allocator<char> >,std::__1::basic_string<char,std::__1::char_traits<char>,std::__1::allocator<char> > >,std::__1::less<std::__1::basic_string<char,std::__1::char_traits<char>,std::__1::allocator<char> > >,1>::operator()(std::__1::basic_string<char,std::__1::char_traits<char>,std::__1::allocator<char> > const&, std::__1::__value_type<std::__1::basic_string<char,std::__1::char_traits<char>,std::__1::allocator<char> >,std::__1::basic_string<char,std::__1::char_traits<char>,std::__1::allocator<char> > > const&) const
FUNC 13150 43 0 std::__1::__map_value_compare<std::__1::basic_string<char,std::__1::char_traits<char>,std::__1::allocator<char> >,std::__1::__value_type<std::__1::basic_string<char,std::__1::char_traits<char>,std::__1::allocator<char> >,std::__1::basic_string<char,std::__1::char_traits<char>,std::__1::allocator<char> > >,std::__1::less<std::__1::basic_string<char,std::__1::char_traits<char>,std::__1::allocator<char> > >,1>::operator()(std::__1::__value_type<std::__1::basic_string<char,std::__1::char_traits<char>,std::__1::allocator<char> >,std::__1::basic_string<char,std::__1::char_traits<char>,std::__1::allocator<char> > > const&, std::__1::basic_string<char,std::__1::char_traits<char>,std::__1::allocator<char> > const&) const
FUNC 131a0 19 0 std::__1::__compressed_pair<unsigned long long,std::__1::__map_value_compare<std::__1::basic_string<char,std::__1::char_traits<char>,std::__1::allocator<char> >,std::__1::__value_type<std::__1::basic_string<char,std::__1::char_traits<char>,std::__1::allocator<char> >,std::__1::basic_string<char,std::__1::char_traits<char>,std::__1::allocator<char> > >,std::__1::less<std::__1::basic_string<char,std::__1::char_traits<char>,std::__1::allocator<char> > >,1> >::second()
FUNC 131c0 b 0 std::__1::__compressed_pair_elem<std::__1::__map_value_compare<std::__1::basic_string<char,std::__1::char_traits<char>,std::__1::allocator<char> >,std::__1::__value_type<std::__1::basic_string<char,std::__1::char_traits<char>,std::__1::allocator<char> >,std::__1::basic_string<char,std::__1::char_traits<char>,std::__1::allocator<char> > >,std::__1::less<std::__1::basic_string<char,std::__1::char_traits<char>,std::__1::allocator<char> > >,1>,1,1>::__get()
FUNC 131d0 4e 0 std::__1::less<std::__1::basic_string<char,std::__1::char_traits<char>,std::__1::allocator<char> > >::operator()(std::__1::basic_string<char,std::__1::char_traits<char>,std::__1::allocator<char> > const&, std::__1::basic_string<char,std::__1::char_traits<char>,std::__1::allocator<char> > const&) const
FUNC 13220 19 0 std::__1::__value_type<std::__1::basic_string<char,std::__1::char_traits<char>,std::__1::allocator<char> >,std::__1::basic_string<char,std::__1::char_traits<char>,std::__1::allocator<char> > >::__get_value() const
FUNC 13240 1b 0 std::__1::operator<(std::__1::strong_ordering, std::__1::_CmpUnspecifiedParam)
FUNC 13260 48 0 std::__1::operator<=><char,std::__1::char_traits<char>,std::__1::allocator<char> >(std::__1::basic_string<char,std::__1::char_traits<char>,std::__1::allocator<char> > const&, std::__1::basic_string<char,std::__1::char_traits<char>,std::__1::allocator<char> > const&)
FUNC 132b0 12 0 std::__1::_CmpUnspecifiedParam::_CmpUnspecifiedParam(int::*)
FUNC 132d0 80 0 std::__1::operator<=><char,std::__1::char_traits<char> >(std::__1::basic_string_view<char,std::__1::char_traits<char> >, std::__1::basic_string_view<char,std::__1::char_traits<char> >)
FUNC 13350 55 0 std::__1::basic_string<char,std::__1::char_traits<char>,std::__1::allocator<char> >::operator basic_string_view() const
FUNC 133b0 126 0 std::__1::basic_string_view<char,std::__1::char_traits<char> >::compare(std::__1::basic_string_view<char,std::__1::char_traits<char> >) const
FUNC 134e0 2d 0 std::__1::char_traits<char>::compare(char const*, char const*, unsigned long long)
FUNC 13510 19 0 std::__1::launder<const std::__1::pair<const std::__1::basic_string<char,std::__1::char_traits<char>,std::__1::allocator<char> >,std::__1::basic_string<char,std::__1::char_traits<char>,std::__1::allocator<char> > > >(std::__1::pair<const std::__1::basic_string<char,std::__1::char_traits<char>,std::__1::allocator<char> >,std::__1::basic_string<char,std::__1::char_traits<char>,std::__1::allocator<char> > > const*)
FUNC 13530 b 0 std::__1::__launder<const std::__1::pair<const std::__1::basic_string<char,std::__1::char_traits<char>,std::__1::allocator<char> >,std::__1::basic_string<char,std::__1::char_traits<char>,std::__1::allocator<char> > > >(std::__1::pair<const std::__1::basic_string<char,std::__1::char_traits<char>,std::__1::allocator<char> >,std::__1::basic_string<char,std::__1::char_traits<char>,std::__1::allocator<char> > > const*)
FUNC 13540 23 0 std::__1::allocator_traits<std::__1::allocator<std::__1::__tree_node<std::__1::__value_type<std::__1::basic_string<char,std::__1::char_traits<char>,std::__1::allocator<char> >,std::__1::basic_string<char,std::__1::char_traits<char>,std::__1::allocator<char> > >,void *> > >::allocate(std::__1::allocator<std::__1::__tree_node<std::__1::__value_type<std::__1::basic_string<char,std::__1::char_traits<char>,std::__1::allocator<char> >,std::__1::basic_string<char,std::__1::char_traits<char>,std::__1::allocator<char> > >,void *> >&, unsigned long long)
FUNC 13570 33 0 std::__1::__tree_node_destructor<std::__1::allocator<std::__1::__tree_node<std::__1::__value_type<std::__1::basic_string<char,std::__1::char_traits<char>,std::__1::allocator<char> >,std::__1::basic_string<char,std::__1::char_traits<char>,std::__1::allocator<char> > >,void *> > >::__tree_node_destructor(std::__1::allocator<std::__1::__tree_node<std::__1::__value_type<std::__1::basic_string<char,std::__1::char_traits<char>,std::__1::allocator<char> >,std::__1::basic_string<char,std::__1::char_traits<char>,std::__1::allocator<char> > >,void *> >&, bool)
FUNC 135b0 3a 0 std::__1::unique_ptr<std::__1::__tree_node<std::__1::__value_type<std::__1::basic_string<char,std::__1::char_traits<char>,std::__1::allocator<char> >,std::__1::basic_string<char,std::__1::char_traits<char>,std::__1::allocator<char> > >,void *>,std::__1::__tree_node_destructor<std::__1::allocator<std::__1::__tree_node<std::__1::__value_type<std::__1::basic_string<char,std::__1::char_traits<char>,std::__1::allocator<char> >,std::__1::basic_string<char,std::__1::char_traits<char>,std::__1::allocator<char> > >,void *> > > >::unique_ptr<1,void>(std::__1::__tree_node<std::__1::__value_type<std::__1::basic_string<char,std::__1::char_traits<char>,std::__1::allocator<char> >,std::__1::basic_string<char,std::__1::char_traits<char>,std::__1::allocator<char> > >,void *>*, std::__1::__tree_node_destructor<std::__1::allocator<std::__1::__tree_node<std::__1::__value_type<std::__1::basic_string<char,std::__1::char_traits<char>,std::__1::allocator<char> >,std::__1::basic_string<char,std::__1::char_traits<char>,std::__1::allocator<char> > >,void *> > >&&)
FUNC 135f0 3c 0 std::__1::allocator_traits<std::__1::allocator<std::__1::__tree_node<std::__1::__value_type<std::__1::basic_string<char,std::__1::char_traits<char>,std::__1::allocator<char> >,std::__1::basic_string<char,std::__1::char_traits<char>,std::__1::allocator<char> > >,void *> > >::construct<std::__1::pair<const std::__1::basic_string<char,std::__1::char_traits<char>,std::__1::allocator<char> >,std::__1::basic_string<char,std::__1::char_traits<char>,std::__1::allocator<char> > >,const std::__1::piecewise_construct_t &,std::__1::tuple<std::__1::basic_string<char,std::__1::char_traits<char>,std::__1::allocator<char> > &&>,std::__1::tuple<>,void,void>(std::__1::allocator<std::__1::__tree_node<std::__1::__value_type<std::__1::basic_string<char,std::__1::char_traits<char>,std::__1::allocator<char> >,std::__1::basic_string<char,std::__1::char_traits<char>,std::__1::allocator<char> > >,void *> >&, std::__1::pair<const std::__1::basic_string<char,std::__1::char_traits<char>,std::__1::allocator<char> >,std::__1::basic_string<char,std::__1::char_traits<char>,std::__1::allocator<char> > >*, std::__1::piecewise_construct_t const&, std::__1::tuple<std::__1::basic_string<char,std::__1::char_traits<char>,std::__1::allocator<char> > &&>&&, std::__1::tuple<>&&)
FUNC 13630 1b 0 std::__1::unique_ptr<std::__1::__tree_node<std::__1::__value_type<std::__1::basic_string<char,std::__1::char_traits<char>,std::__1::allocator<char> >,std::__1::basic_string<char,std::__1::char_traits<char>,std::__1::allocator<char> > >,void *>,std::__1::__tree_node_destructor<std::__1::allocator<std::__1::__tree_node<std::__1::__value_type<std::__1::basic_string<char,std::__1::char_traits<char>,std::__1::allocator<char> >,std::__1::basic_string<char,std::__1::char_traits<char>,std::__1::allocator<char> > >,void *> > > >::operator->() const
FUNC 13650 19 0 std::__1::unique_ptr<std::__1::__tree_node<std::__1::__value_type<std::__1::basic_string<char,std::__1::char_traits<char>,std::__1::allocator<char> >,std::__1::basic_string<char,std::__1::char_traits<char>,std::__1::allocator<char> > >,void *>,std::__1::__tree_node_destructor<std::__1::allocator<std::__1::__tree_node<std::__1::__value_type<std::__1::basic_string<char,std::__1::char_traits<char>,std::__1::allocator<char> >,std::__1::basic_string<char,std::__1::char_traits<char>,std::__1::allocator<char> > >,void *> > > >::get_deleter()
FUNC 13670 4e 0 std::__1::allocator<std::__1::__tree_node<std::__1::__value_type<std::__1::basic_string<char,std::__1::char_traits<char>,std::__1::allocator<char> >,std::__1::basic_string<char,std::__1::char_traits<char>,std::__1::allocator<char> > >,void *> >::allocate(unsigned long long)
FUNC 136c0 1d 0 std::__1::allocator_traits<std::__1::allocator<std::__1::__tree_node<std::__1::__value_type<std::__1::basic_string<char,std::__1::char_traits<char>,std::__1::allocator<char> >,std::__1::basic_string<char,std::__1::char_traits<char>,std::__1::allocator<char> > >,void *> > >::max_size<std::__1::allocator<std::__1::__tree_node<std::__1::__value_type<std::__1::basic_string<char,std::__1::char_traits<char>,std::__1::allocator<char> >,std::__1::basic_string<char,std::__1::char_traits<char>,std::__1::allocator<char> > >,void *> >,void,void>(std::__1::allocator<std::__1::__tree_node<std::__1::__value_type<std::__1::basic_string<char,std::__1::char_traits<char>,std::__1::allocator<char> >,std::__1::basic_string<char,std::__1::char_traits<char>,std::__1::allocator<char> > >,void *> > const&)
FUNC 136e0 40 0 std::__1::__compressed_pair<std::__1::__tree_node<std::__1::__value_type<std::__1::basic_string<char,std::__1::char_traits<char>,std::__1::allocator<char> >,std::__1::basic_string<char,std::__1::char_traits<char>,std::__1::allocator<char> > >,void *> *,std::__1::__tree_node_destructor<std::__1::allocator<std::__1::__tree_node<std::__1::__value_type<std::__1::basic_string<char,std::__1::char_traits<char>,std::__1::allocator<char> >,std::__1::basic_string<char,std::__1::char_traits<char>,std::__1::allocator<char> > >,void *> > > >::__compressed_pair<std::__1::__tree_node<std::__1::__value_type<std::__1::basic_string<char,std::__1::char_traits<char>,std::__1::allocator<char> >,std::__1::basic_string<char,std::__1::char_traits<char>,std::__1::allocator<char> > >,void *> *&,std::__1::__tree_node_destructor<std::__1::allocator<std::__1::__tree_node<std::__1::__value_type<std::__1::basic_string<char,std::__1::char_traits<char>,std::__1::allocator<char> >,std::__1::basic_string<char,std::__1::char_traits<char>,std::__1::allocator<char> > >,void *> > > >(std::__1::__tree_node<std::__1::__value_type<std::__1::basic_string<char,std::__1::char_traits<char>,std::__1::allocator<char> >,std::__1::basic_string<char,std::__1::char_traits<char>,std::__1::allocator<char> > >,void *>*&, std::__1::__tree_node_destructor<std::__1::allocator<std::__1::__tree_node<std::__1::__value_type<std::__1::basic_string<char,std::__1::char_traits<char>,std::__1::allocator<char> >,std::__1::basic_string<char,std::__1::char_traits<char>,std::__1::allocator<char> > >,void *> > >&&)
FUNC 13720 21 0 std::__1::__compressed_pair_elem<std::__1::__tree_node<std::__1::__value_type<std::__1::basic_string<char,std::__1::char_traits<char>,std::__1::allocator<char> >,std::__1::basic_string<char,std::__1::char_traits<char>,std::__1::allocator<char> > >,void *> *,0,0>::__compressed_pair_elem<std::__1::__tree_node<std::__1::__value_type<std::__1::basic_string<char,std::__1::char_traits<char>,std::__1::allocator<char> >,std::__1::basic_string<char,std::__1::char_traits<char>,std::__1::allocator<char> > >,void *> *&,void>(std::__1::__tree_node<std::__1::__value_type<std::__1::basic_string<char,std::__1::char_traits<char>,std::__1::allocator<char> >,std::__1::basic_string<char,std::__1::char_traits<char>,std::__1::allocator<char> > >,void *>*&)
FUNC 13750 29 0 std::__1::__compressed_pair_elem<std::__1::__tree_node_destructor<std::__1::allocator<std::__1::__tree_node<std::__1::__value_type<std::__1::basic_string<char,std::__1::char_traits<char>,std::__1::allocator<char> >,std::__1::basic_string<char,std::__1::char_traits<char>,std::__1::allocator<char> > >,void *> > >,1,0>::__compressed_pair_elem<std::__1::__tree_node_destructor<std::__1::allocator<std::__1::__tree_node<std::__1::__value_type<std::__1::basic_string<char,std::__1::char_traits<char>,std::__1::allocator<char> >,std::__1::basic_string<char,std::__1::char_traits<char>,std::__1::allocator<char> > >,void *> > >,void>(std::__1::__tree_node_destructor<std::__1::allocator<std::__1::__tree_node<std::__1::__value_type<std::__1::basic_string<char,std::__1::char_traits<char>,std::__1::allocator<char> >,std::__1::basic_string<char,std::__1::char_traits<char>,std::__1::allocator<char> > >,void *> > >&&)
FUNC 13780 56 0 std::__1::construct_at<std::__1::pair<const std::__1::basic_string<char,std::__1::char_traits<char>,std::__1::allocator<char> >,std::__1::basic_string<char,std::__1::char_traits<char>,std::__1::allocator<char> > >,const std::__1::piecewise_construct_t &,std::__1::tuple<std::__1::basic_string<char,std::__1::char_traits<char>,std::__1::allocator<char> > &&>,std::__1::tuple<>,std::__1::pair<const std::__1::basic_string<char,std::__1::char_traits<char>,std::__1::allocator<char> >,std::__1::basic_string<char,std::__1::char_traits<char>,std::__1::allocator<char> > > *>(std::__1::pair<const std::__1::basic_string<char,std::__1::char_traits<char>,std::__1::allocator<char> >,std::__1::basic_string<char,std::__1::char_traits<char>,std::__1::allocator<char> > >*, std::__1::piecewise_construct_t const&, std::__1::tuple<std::__1::basic_string<char,std::__1::char_traits<char>,std::__1::allocator<char> > &&>&&, std::__1::tuple<>&&)
FUNC 137e0 57 0 std::__1::pair<const std::__1::basic_string<char,std::__1::char_traits<char>,std::__1::allocator<char> >,std::__1::basic_string<char,std::__1::char_traits<char>,std::__1::allocator<char> > >::pair<std::__1::basic_string<char,std::__1::char_traits<char>,std::__1::allocator<char> > &&>(std::__1::piecewise_construct_t, std::__1::tuple<std::__1::basic_string<char,std::__1::char_traits<char>,std::__1::allocator<char> > &&>, std::__1::tuple<>)
FUNC 13840 60 0 std::__1::pair<const std::__1::basic_string<char,std::__1::char_traits<char>,std::__1::allocator<char> >,std::__1::basic_string<char,std::__1::char_traits<char>,std::__1::allocator<char> > >::pair<std::__1::basic_string<char,std::__1::char_traits<char>,std::__1::allocator<char> > &&,0>(std::__1::piecewise_construct_t, std::__1::tuple<std::__1::basic_string<char,std::__1::char_traits<char>,std::__1::allocator<char> > &&>&, std::__1::tuple<>&, std::__1::__tuple_indices<0>, std::__1::__tuple_indices<>)
FUNC 138a0 19 0 std::__1::get<0,std::__1::basic_string<char,std::__1::char_traits<char>,std::__1::allocator<char> > &&>(std::__1::tuple<std::__1::basic_string<char,std::__1::char_traits<char>,std::__1::allocator<char> > &&>&)
FUNC 138c0 40 0 std::__1::basic_string<char,std::__1::char_traits<char>,std::__1::allocator<char> >::basic_string()
FUNC 13900 e 0 std::__1::__tuple_leaf<0,std::__1::basic_string<char,std::__1::char_traits<char>,std::__1::allocator<char> > &&,0>::get()
FUNC 13910 19 0 std::__1::__compressed_pair<std::__1::__tree_node<std::__1::__value_type<std::__1::basic_string<char,std::__1::char_traits<char>,std::__1::allocator<char> >,std::__1::basic_string<char,std::__1::char_traits<char>,std::__1::allocator<char> > >,void *> *,std::__1::__tree_node_destructor<std::__1::allocator<std::__1::__tree_node<std::__1::__value_type<std::__1::basic_string<char,std::__1::char_traits<char>,std::__1::allocator<char> >,std::__1::basic_string<char,std::__1::char_traits<char>,std::__1::allocator<char> > >,void *> > > >::first() const
FUNC 13930 b 0 std::__1::__compressed_pair_elem<std::__1::__tree_node<std::__1::__value_type<std::__1::basic_string<char,std::__1::char_traits<char>,std::__1::allocator<char> >,std::__1::basic_string<char,std::__1::char_traits<char>,std::__1::allocator<char> > >,void *> *,0,0>::__get() const
FUNC 13940 1d 0 std::__1::__compressed_pair<std::__1::__tree_node<std::__1::__value_type<std::__1::basic_string<char,std::__1::char_traits<char>,std::__1::allocator<char> >,std::__1::basic_string<char,std::__1::char_traits<char>,std::__1::allocator<char> > >,void *> *,std::__1::__tree_node_destructor<std::__1::allocator<std::__1::__tree_node<std::__1::__value_type<std::__1::basic_string<char,std::__1::char_traits<char>,std::__1::allocator<char> >,std::__1::basic_string<char,std::__1::char_traits<char>,std::__1::allocator<char> > >,void *> > > >::second()
FUNC 13960 b 0 std::__1::__compressed_pair_elem<std::__1::__tree_node_destructor<std::__1::allocator<std::__1::__tree_node<std::__1::__value_type<std::__1::basic_string<char,std::__1::char_traits<char>,std::__1::allocator<char> >,std::__1::basic_string<char,std::__1::char_traits<char>,std::__1::allocator<char> > >,void *> > >,1,0>::__get()
FUNC 13970 423 0 std::__1::__tree_balance_after_insert<std::__1::__tree_node_base<void *> *>(std::__1::__tree_node_base<void *>*, std::__1::__tree_node_base<void *>*)
FUNC 13da0 1d 0 std::__1::__tree<std::__1::__value_type<std::__1::basic_string<char,std::__1::char_traits<char>,std::__1::allocator<char> >,std::__1::basic_string<char,std::__1::char_traits<char>,std::__1::allocator<char> > >,std::__1::__map_value_compare<std::__1::basic_string<char,std::__1::char_traits<char>,std::__1::allocator<char> >,std::__1::__value_type<std::__1::basic_string<char,std::__1::char_traits<char>,std::__1::allocator<char> >,std::__1::basic_string<char,std::__1::char_traits<char>,std::__1::allocator<char> > >,std::__1::less<std::__1::basic_string<char,std::__1::char_traits<char>,std::__1::allocator<char> > >,1>,std::__1::allocator<std::__1::__value_type<std::__1::basic_string<char,std::__1::char_traits<char>,std::__1::allocator<char> >,std::__1::basic_string<char,std::__1::char_traits<char>,std::__1::allocator<char> > > > >::size()
FUNC 13dc0 f 0 std::__1::__tree_node_base<void *>::__parent_unsafe() const
FUNC 13dd0 1e 0 std::__1::__tree_is_left_child<std::__1::__tree_node_base<void *> *>(std::__1::__tree_node_base<void *>*)
FUNC 13df0 db 0 std::__1::__tree_left_rotate<std::__1::__tree_node_base<void *> *>(std::__1::__tree_node_base<void *>*)
FUNC 13ed0 c7 0 std::__1::__tree_right_rotate<std::__1::__tree_node_base<void *> *>(std::__1::__tree_node_base<void *>*)
FUNC 13fa0 1f 0 std::__1::__tree_node_base<void *>::__set_parent(std::__1::__tree_node_base<void *>*)
FUNC 13fc0 19 0 std::__1::__compressed_pair<unsigned long long,std::__1::__map_value_compare<std::__1::basic_string<char,std::__1::char_traits<char>,std::__1::allocator<char> >,std::__1::__value_type<std::__1::basic_string<char,std::__1::char_traits<char>,std::__1::allocator<char> >,std::__1::basic_string<char,std::__1::char_traits<char>,std::__1::allocator<char> > >,std::__1::less<std::__1::basic_string<char,std::__1::char_traits<char>,std::__1::allocator<char> > >,1> >::first()
FUNC 13fe0 19 0 std::__1::__compressed_pair<std::__1::__tree_node<std::__1::__value_type<std::__1::basic_string<char,std::__1::char_traits<char>,std::__1::allocator<char> >,std::__1::basic_string<char,std::__1::char_traits<char>,std::__1::allocator<char> > >,void *> *,std::__1::__tree_node_destructor<std::__1::allocator<std::__1::__tree_node<std::__1::__value_type<std::__1::basic_string<char,std::__1::char_traits<char>,std::__1::allocator<char> >,std::__1::basic_string<char,std::__1::char_traits<char>,std::__1::allocator<char> > >,void *> > > >::first()
FUNC 14000 b 0 std::__1::__compressed_pair_elem<std::__1::__tree_node<std::__1::__value_type<std::__1::basic_string<char,std::__1::char_traits<char>,std::__1::allocator<char> >,std::__1::basic_string<char,std::__1::char_traits<char>,std::__1::allocator<char> > >,void *> *,0,0>::__get()
FUNC 14010 6a 0 std::__1::unique_ptr<std::__1::__tree_node<std::__1::__value_type<std::__1::basic_string<char,std::__1::char_traits<char>,std::__1::allocator<char> >,std::__1::basic_string<char,std::__1::char_traits<char>,std::__1::allocator<char> > >,void *>,std::__1::__tree_node_destructor<std::__1::allocator<std::__1::__tree_node<std::__1::__value_type<std::__1::basic_string<char,std::__1::char_traits<char>,std::__1::allocator<char> >,std::__1::basic_string<char,std::__1::char_traits<char>,std::__1::allocator<char> > >,void *> > > >::reset(std::__1::__tree_node<std::__1::__value_type<std::__1::basic_string<char,std::__1::char_traits<char>,std::__1::allocator<char> >,std::__1::basic_string<char,std::__1::char_traits<char>,std::__1::allocator<char> > >,void *>*)
FUNC 14080 93 0 std::__1::__tree_node_destructor<std::__1::allocator<std::__1::__tree_node<std::__1::__value_type<std::__1::basic_string<char,std::__1::char_traits<char>,std::__1::allocator<char> >,std::__1::basic_string<char,std::__1::char_traits<char>,std::__1::allocator<char> > >,void *> > >::operator()(std::__1::__tree_node<std::__1::__value_type<std::__1::basic_string<char,std::__1::char_traits<char>,std::__1::allocator<char> >,std::__1::basic_string<char,std::__1::char_traits<char>,std::__1::allocator<char> > >,void *>*)
FUNC 14120 40 0 std::__1::tuple<std::__1::basic_string<char,std::__1::char_traits<char>,std::__1::allocator<char> > &&>::tuple<std::__1::basic_string<char,std::__1::char_traits<char>,std::__1::allocator<char> >,0>(std::__1::basic_string<char,std::__1::char_traits<char>,std::__1::allocator<char> >&&)
FUNC 14160 39 0 std::__1::__tuple_impl<std::__1::__tuple_indices<0>,std::__1::basic_string<char,std::__1::char_traits<char>,std::__1::allocator<char> > &&>::__tuple_impl<0,std::__1::basic_string<char,std::__1::char_traits<char>,std::__1::allocator<char> > &&,std::__1::basic_string<char,std::__1::char_traits<char>,std::__1::allocator<char> > >(std::__1::__tuple_indices<0>, std::__1::__tuple_types<std::__1::basic_string<char,std::__1::char_traits<char>,std::__1::allocator<char> > &&>, std::__1::__tuple_indices<>, std::__1::__tuple_types<>, std::__1::basic_string<char,std::__1::char_traits<char>,std::__1::allocator<char> >&&)
FUNC 141a0 1e 0 std::__1::__tuple_leaf<0,std::__1::basic_string<char,std::__1::char_traits<char>,std::__1::allocator<char> > &&,0>::__tuple_leaf<std::__1::basic_string<char,std::__1::char_traits<char>,std::__1::allocator<char> >,void>(std::__1::basic_string<char,std::__1::char_traits<char>,std::__1::allocator<char> >&&)
FUNC 141c0 b 0 std::__1::pointer_traits<std::__1::__value_type<std::__1::basic_string<char,std::__1::char_traits<char>,std::__1::allocator<char> >,std::__1::basic_string<char,std::__1::char_traits<char>,std::__1::allocator<char> > > *>::pointer_to(std::__1::__value_type<std::__1::basic_string<char,std::__1::char_traits<char>,std::__1::allocator<char> >,std::__1::basic_string<char,std::__1::char_traits<char>,std::__1::allocator<char> > >&)
FUNC 141d0 e 0 std::__1::__tree_iterator<std::__1::__value_type<std::__1::basic_string<char,std::__1::char_traits<char>,std::__1::allocator<char> >,std::__1::basic_string<char,std::__1::char_traits<char>,std::__1::allocator<char> > >,std::__1::__tree_node<std::__1::__value_type<std::__1::basic_string<char,std::__1::char_traits<char>,std::__1::allocator<char> >,std::__1::basic_string<char,std::__1::char_traits<char>,std::__1::allocator<char> > >,void *> *,long long>::__get_np() const
FUNC 141e0 46 0 std::__1::operator+<char,std::__1::char_traits<char>,std::__1::allocator<char> >(std::__1::basic_string<char,std::__1::char_traits<char>,std::__1::allocator<char> >&&, std::__1::basic_string<char,std::__1::char_traits<char>,std::__1::allocator<char> > const&)
FUNC 14230 49 0 std::__1::__fs::filesystem::_PathCVT<char>::__append_source<char[13]>(std::__1::basic_string<wchar_t,std::__1::char_traits<wchar_t>,std::__1::allocator<wchar_t> >&, char[13] const&)
FUNC 14280 b 0 std::__1::__fs::filesystem::__is_pathable_char_array<char[13],char *,char,1>::__range_begin(char const*)
FUNC 14290 46 0 std::__1::__fs::filesystem::__is_pathable_char_array<char[13],char *,char,1>::__range_end(char const*)
FUNC 142e0 49 0 std::__1::__fs::filesystem::_PathCVT<char>::__append_source<char[15]>(std::__1::basic_string<wchar_t,std::__1::char_traits<wchar_t>,std::__1::allocator<wchar_t> >&, char[15] const&)
FUNC 14330 b 0 std::__1::__fs::filesystem::__is_pathable_char_array<char[15],char *,char,1>::__range_begin(char const*)
FUNC 14340 46 0 std::__1::__fs::filesystem::__is_pathable_char_array<char[15],char *,char,1>::__range_end(char const*)
FUNC 14390 49 0 std::__1::__fs::filesystem::_PathCVT<char>::__append_source<char[19]>(std::__1::basic_string<wchar_t,std::__1::char_traits<wchar_t>,std::__1::allocator<wchar_t> >&, char[19] const&)
FUNC 143e0 b 0 std::__1::__fs::filesystem::__is_pathable_char_array<char[19],char *,char,1>::__range_begin(char const*)
FUNC 143f0 46 0 std::__1::__fs::filesystem::__is_pathable_char_array<char[19],char *,char,1>::__range_end(char const*)
FUNC 14440 49 0 std::__1::__fs::filesystem::_PathCVT<char>::__append_source<char[21]>(std::__1::basic_string<wchar_t,std::__1::char_traits<wchar_t>,std::__1::allocator<wchar_t> >&, char[21] const&)
FUNC 14490 b 0 std::__1::__fs::filesystem::__is_pathable_char_array<char[21],char *,char,1>::__range_begin(char const*)
FUNC 144a0 46 0 std::__1::__fs::filesystem::__is_pathable_char_array<char[21],char *,char,1>::__range_end(char const*)
FUNC 144f0 6a 0 std::__1::unique_ptr<crashpad::CrashReportDatabase,std::__1::default_delete<crashpad::CrashReportDatabase> >::reset(crashpad::CrashReportDatabase*)
FUNC 14560 19 0 std::__1::__compressed_pair<crashpad::CrashReportDatabase *,std::__1::default_delete<crashpad::CrashReportDatabase> >::first()
FUNC 14580 19 0 std::__1::__compressed_pair<crashpad::CrashReportDatabase *,std::__1::default_delete<crashpad::CrashReportDatabase> >::second()
FUNC 145a0 33 0 std::__1::default_delete<crashpad::CrashReportDatabase>::operator()(crashpad::CrashReportDatabase*) const
FUNC 145e0 b 0 std::__1::__compressed_pair_elem<crashpad::CrashReportDatabase *,0,0>::__get()
FUNC 145f0 b 0 std::__1::__compressed_pair_elem<std::__1::default_delete<crashpad::CrashReportDatabase>,1,1>::__get()
FUNC 14600 24 0 std::__1::unique_ptr<crashpad::CrashReportDatabase,std::__1::default_delete<crashpad::CrashReportDatabase> >::operator bool() const
FUNC 14630 19 0 std::__1::__compressed_pair<crashpad::CrashReportDatabase *,std::__1::default_delete<crashpad::CrashReportDatabase> >::first() const
FUNC 14650 b 0 std::__1::__compressed_pair_elem<crashpad::CrashReportDatabase *,0,0>::__get() const
FUNC 14660 28 0 spdlog::logger::warn<std::__1::basic_string<char,std::__1::char_traits<char>,std::__1::allocator<char> > >(std::__1::basic_string<char,std::__1::char_traits<char>,std::__1::allocator<char> > const&)
FUNC 14690 7d 0 std::__1::list<workrave::crash::CrashHandler *,std::__1::allocator<workrave::crash::CrashHandler *> >::__allocate_node(std::__1::allocator<std::__1::__list_node<workrave::crash::CrashHandler *,void *> >&)
FUNC 14710 28 0 std::__1::allocator_traits<std::__1::allocator<std::__1::__list_node<workrave::crash::CrashHandler *,void *> > >::construct<workrave::crash::CrashHandler *,workrave::crash::CrashHandler *const &,void,void>(std::__1::allocator<std::__1::__list_node<workrave::crash::CrashHandler *,void *> >&, workrave::crash::CrashHandler**, workrave::crash::CrashHandler* const&)
FUNC 14740 1b 0 std::__1::unique_ptr<std::__1::__list_node<workrave::crash::CrashHandler *,void *>,std::__1::__allocator_destructor<std::__1::allocator<std::__1::__list_node<workrave::crash::CrashHandler *,void *> > > >::operator->() const
FUNC 14760 5c 0 std::__1::list<workrave::crash::CrashHandler *,std::__1::allocator<workrave::crash::CrashHandler *> >::__link_nodes_at_back(std::__1::__list_node_base<workrave::crash::CrashHandler *,void *>*, std::__1::__list_node_base<workrave::crash::CrashHandler *,void *>*)
FUNC 147c0 1b 0 std::__1::unique_ptr<std::__1::__list_node<workrave::crash::CrashHandler *,void *>,std::__1::__allocator_destructor<std::__1::allocator<std::__1::__list_node<workrave::crash::CrashHandler *,void *> > > >::get() const
FUNC 147e0 19 0 std::__1::__list_node<workrave::crash::CrashHandler *,void *>::__as_link()
FUNC 14800 3b 0 std::__1::unique_ptr<std::__1::__list_node<workrave::crash::CrashHandler *,void *>,std::__1::__allocator_destructor<std::__1::allocator<std::__1::__list_node<workrave::crash::CrashHandler *,void *> > > >::release()
FUNC 14840 1d 0 std::__1::unique_ptr<std::__1::__list_node<workrave::crash::CrashHandler *,void *>,std::__1::__allocator_destructor<std::__1::allocator<std::__1::__list_node<workrave::crash::CrashHandler *,void *> > > >::~unique_ptr()
FUNC 14860 23 0 std::__1::allocator_traits<std::__1::allocator<std::__1::__list_node<workrave::crash::CrashHandler *,void *> > >::allocate(std::__1::allocator<std::__1::__list_node<workrave::crash::CrashHandler *,void *> >&, unsigned long long)
FUNC 14890 2c 0 std::__1::__allocator_destructor<std::__1::allocator<std::__1::__list_node<workrave::crash::CrashHandler *,void *> > >::__allocator_destructor(std::__1::allocator<std::__1::__list_node<workrave::crash::CrashHandler *,void *> >&, unsigned long long)
FUNC 148c0 3a 0 std::__1::unique_ptr<std::__1::__list_node<workrave::crash::CrashHandler *,void *>,std::__1::__allocator_destructor<std::__1::allocator<std::__1::__list_node<workrave::crash::CrashHandler *,void *> > > >::unique_ptr<1,void>(std::__1::__list_node<workrave::crash::CrashHandler *,void *>*, std::__1::__allocator_destructor<std::__1::allocator<std::__1::__list_node<workrave::crash::CrashHandler *,void *> > >&&)
FUNC 14900 4e 0 std::__1::allocator<std::__1::__list_node<workrave::crash::CrashHandler *,void *> >::allocate(unsigned long long)
FUNC 14950 1d 0 std::__1::allocator_traits<std::__1::allocator<std::__1::__list_node<workrave::crash::CrashHandler *,void *> > >::max_size<std::__1::allocator<std::__1::__list_node<workrave::crash::CrashHandler *,void *> >,void,void>(std::__1::allocator<std::__1::__list_node<workrave::crash::CrashHandler *,void *> > const&)
FUNC 14970 40 0 std::__1::__compressed_pair<std::__1::__list_node<workrave::crash::CrashHandler *,void *> *,std::__1::__allocator_destructor<std::__1::allocator<std::__1::__list_node<workrave::crash::CrashHandler *,void *> > > >::__compressed_pair<std::__1::__list_node<workrave::crash::CrashHandler *,void *> *&,std::__1::__allocator_destructor<std::__1::allocator<std::__1::__list_node<workrave::crash::CrashHandler *,void *> > > >(std::__1::__list_node<workrave::crash::CrashHandler *,void *>*&, std::__1::__allocator_destructor<std::__1::allocator<std::__1::__list_node<workrave::crash::CrashHandler *,void *> > >&&)
FUNC 149b0 21 0 std::__1::__compressed_pair_elem<std::__1::__list_node<workrave::crash::CrashHandler *,void *> *,0,0>::__compressed_pair_elem<std::__1::__list_node<workrave::crash::CrashHandler *,void *> *&,void>(std::__1::__list_node<workrave::crash::CrashHandler *,void *>*&)
FUNC 149e0 29 0 std::__1::__compressed_pair_elem<std::__1::__allocator_destructor<std::__1::allocator<std::__1::__list_node<workrave::crash::CrashHandler *,void *> > >,1,0>::__compressed_pair_elem<std::__1::__allocator_destructor<std::__1::allocator<std::__1::__list_node<workrave::crash::CrashHandler *,void *> > >,void>(std::__1::__allocator_destructor<std::__1::allocator<std::__1::__list_node<workrave::crash::CrashHandler *,void *> > >&&)
FUNC 14a10 2b 0 std::__1::construct_at<workrave::crash::CrashHandler *,workrave::crash::CrashHandler *const &,workrave::crash::CrashHandler **>(workrave::crash::CrashHandler**, workrave::crash::CrashHandler* const&)
FUNC 14a40 19 0 std::__1::__compressed_pair<std::__1::__list_node<workrave::crash::CrashHandler *,void *> *,std::__1::__allocator_destructor<std::__1::allocator<std::__1::__list_node<workrave::crash::CrashHandler *,void *> > > >::first() const
FUNC 14a60 b 0 std::__1::__compressed_pair_elem<std::__1::__list_node<workrave::crash::CrashHandler *,void *> *,0,0>::__get() const
FUNC 14a70 19 0 std::__1::__compressed_pair<std::__1::__list_node<workrave::crash::CrashHandler *,void *> *,std::__1::__allocator_destructor<std::__1::allocator<std::__1::__list_node<workrave::crash::CrashHandler *,void *> > > >::first()
FUNC 14a90 b 0 std::__1::__compressed_pair_elem<std::__1::__list_node<workrave::crash::CrashHandler *,void *> *,0,0>::__get()
FUNC 14aa0 6a 0 std::__1::unique_ptr<std::__1::__list_node<workrave::crash::CrashHandler *,void *>,std::__1::__allocator_destructor<std::__1::allocator<std::__1::__list_node<workrave::crash::CrashHandler *,void *> > > >::reset(std::__1::__list_node<workrave::crash::CrashHandler *,void *>*)
FUNC 14b10 1d 0 std::__1::__compressed_pair<std::__1::__list_node<workrave::crash::CrashHandler *,void *> *,std::__1::__allocator_destructor<std::__1::allocator<std::__1::__list_node<workrave::crash::CrashHandler *,void *> > > >::second()
FUNC 14b30 2a 0 std::__1::__allocator_destructor<std::__1::allocator<std::__1::__list_node<workrave::crash::CrashHandler *,void *> > >::operator()(std::__1::__list_node<workrave::crash::CrashHandler *,void *>*)
FUNC 14b60 b 0 std::__1::__compressed_pair_elem<std::__1::__allocator_destructor<std::__1::allocator<std::__1::__list_node<workrave::crash::CrashHandler *,void *> > >,1,0>::__get()
FUNC 14b70 29 0 std::__1::list<workrave::crash::CrashHandler *,std::__1::allocator<workrave::crash::CrashHandler *> >::get_allocator() const
FUNC 14ba0 23 0 std::__1::list<workrave::crash::CrashHandler *,std::__1::allocator<workrave::crash::CrashHandler *> >::list(std::__1::allocator<workrave::crash::CrashHandler *> const&)
FUNC 14bd0 21 0 std::__1::__list_const_iterator<workrave::crash::CrashHandler *,void *>::__list_const_iterator(std::__1::__list_iterator<workrave::crash::CrashHandler *,void *> const&)
FUNC 14c00 29 0 std::__1::operator!=(std::__1::__list_const_iterator<workrave::crash::CrashHandler *,void *> const&, std::__1::__list_const_iterator<workrave::crash::CrashHandler *,void *> const&)
FUNC 14c30 1f 0 std::__1::__list_const_iterator<workrave::crash::CrashHandler *,void *>::operator*() const
FUNC 14c50 31 0 std::__1::next<std::__1::__list_const_iterator<workrave::crash::CrashHandler *,void *> >(std::__1::__list_const_iterator<workrave::crash::CrashHandler *,void *>, long long)
FUNC 14c90 15 0 std::__1::__list_const_iterator<workrave::crash::CrashHandler *,void *>::operator++()
FUNC 14cb0 11b 0 std::__1::list<workrave::crash::CrashHandler *,std::__1::allocator<workrave::crash::CrashHandler *> >::splice(std::__1::__list_const_iterator<workrave::crash::CrashHandler *,void *>, std::__1::list<workrave::crash::CrashHandler *,std::__1::allocator<workrave::crash::CrashHandler *> >&, std::__1::__list_const_iterator<workrave::crash::CrashHandler *,void *>, std::__1::__list_const_iterator<workrave::crash::CrashHandler *,void *>)
FUNC 14dd0 1b 0 std::__1::list<workrave::crash::CrashHandler *,std::__1::allocator<workrave::crash::CrashHandler *> >::size() const
FUNC 14df0 1d 0 std::__1::__list_imp<workrave::crash::CrashHandler *,std::__1::allocator<workrave::crash::CrashHandler *> >::__node_alloc() const
FUNC 14e10 1e 0 std::__1::allocator<workrave::crash::CrashHandler *>::allocator<std::__1::__list_node<workrave::crash::CrashHandler *,void *> >(std::__1::allocator<std::__1::__list_node<workrave::crash::CrashHandler *,void *> > const&)
FUNC 14e30 19 0 std::__1::__compressed_pair<unsigned long long,std::__1::allocator<std::__1::__list_node<workrave::crash::CrashHandler *,void *> > >::second() const
FUNC 14e50 b 0 std::__1::__compressed_pair_elem<std::__1::allocator<std::__1::__list_node<workrave::crash::CrashHandler *,void *> >,1,1>::__get() const
FUNC 14e60 7 0 std::__1::__non_trivial_if<1,std::__1::allocator<workrave::crash::CrashHandler *> >::__non_trivial_if()
FUNC 14e70 5c 0 std::__1::__list_imp<workrave::crash::CrashHandler *,std::__1::allocator<workrave::crash::CrashHandler *> >::__list_imp(std::__1::allocator<workrave::crash::CrashHandler *> const&)
FUNC 14ed0 1e 0 std::__1::allocator<std::__1::__list_node<workrave::crash::CrashHandler *,void *> >::allocator<workrave::crash::CrashHandler *>(std::__1::allocator<workrave::crash::CrashHandler *> const&)
FUNC 14ef0 3c 0 std::__1::__compressed_pair<unsigned long long,std::__1::allocator<std::__1::__list_node<workrave::crash::CrashHandler *,void *> > >::__compressed_pair<int,std::__1::allocator<std::__1::__list_node<workrave::crash::CrashHandler *,void *> > >(int&&, std::__1::allocator<std::__1::__list_node<workrave::crash::CrashHandler *,void *> >&&)
FUNC 14f30 12 0 std::__1::__compressed_pair_elem<std::__1::allocator<std::__1::__list_node<workrave::crash::CrashHandler *,void *> >,1,1>::__compressed_pair_elem<std::__1::allocator<std::__1::__list_node<workrave::crash::CrashHandler *,void *> >,void>(std::__1::allocator<std::__1::__list_node<workrave::crash::CrashHandler *,void *> >&&)
FUNC 14f50 29 0 std::__1::operator==(std::__1::__list_const_iterator<workrave::crash::CrashHandler *,void *> const&, std::__1::__list_const_iterator<workrave::crash::CrashHandler *,void *> const&)
FUNC 14f80 37 0 std::__1::advance<std::__1::__list_const_iterator<workrave::crash::CrashHandler *,void *>,long long,long long,void>(std::__1::__list_const_iterator<workrave::crash::CrashHandler *,void *>&, long long)
FUNC 14fc0 8a 0 std::__1::__advance<std::__1::__list_const_iterator<workrave::crash::CrashHandler *,void *> >(std::__1::__list_const_iterator<workrave::crash::CrashHandler *,void *>&, long long, std::__1::bidirectional_iterator_tag)
FUNC 15050 14 0 std::__1::__list_const_iterator<workrave::crash::CrashHandler *,void *>::operator--()
FUNC 15070 3c 0 std::__1::distance<std::__1::__list_const_iterator<workrave::crash::CrashHandler *,void *> >(std::__1::__list_const_iterator<workrave::crash::CrashHandler *,void *>, std::__1::__list_const_iterator<workrave::crash::CrashHandler *,void *>)
FUNC 150b0 51 0 std::__1::list<workrave::crash::CrashHandler *,std::__1::allocator<workrave::crash::CrashHandler *> >::__link_nodes(std::__1::__list_node_base<workrave::crash::CrashHandler *,void *>*, std::__1::__list_node_base<workrave::crash::CrashHandler *,void *>*, std::__1::__list_node_base<workrave::crash::CrashHandler *,void *>*)
FUNC 15110 5f 0 std::__1::__distance<std::__1::__list_const_iterator<workrave::crash::CrashHandler *,void *> >(std::__1::__list_const_iterator<workrave::crash::CrashHandler *,void *>, std::__1::__list_const_iterator<workrave::crash::CrashHandler *,void *>, std::__1::input_iterator_tag)
FUNC 15170 26 0 std::__1::__list_imp<workrave::crash::CrashHandler *,std::__1::allocator<workrave::crash::CrashHandler *> >::begin()
FUNC 151a0 1e 0 std::__1::__list_iterator<workrave::crash::CrashHandler *,void *>::__list_iterator(std::__1::__list_node_base<workrave::crash::CrashHandler *,void *>*)
FUNC 151c0 2a 0 std::__1::__list_imp<workrave::crash::CrashHandler *,std::__1::allocator<workrave::crash::CrashHandler *> >::end()
FUNC 151f0 29 0 std::__1::operator==(std::__1::__list_iterator<workrave::crash::CrashHandler *,void *> const&, std::__1::__list_iterator<workrave::crash::CrashHandler *,void *> const&)
FUNC 15220 16 0 ScopedTrace::`dynamic initializer for 'logger'()
FUNC 15240 16 0 ScopedTrace::`dynamic atexit destructor for 'logger'()
FUNC 15260 f 0 _GLOBAL__sub_I_debug.cc()
PUBLIC 15270 0 _do_global_dtors
PUBLIC 152c0 0 _do_global_ctors
PUBLIC 15330 0 _main
PUBLIC 153c0 0 setargv
PUBLIC 153d0 0 _dyn_tls_init
PUBLIC 15440 0 _tlregdtor
PUBLIC 15470 0 matherr
PUBLIC m 154e0 0 fpreset
PUBLIC 154f0 0 pei386_runtime_relocator
PUBLIC 15a20 0 _mingw_raise_matherr
PUBLIC 15a70 0 _mingw_setusermatherr
PUBLIC 15a80 0 gnu_exception_handler
PUBLIC 15c00 0 _getmainargs
PUBLIC 15c70 0 _wgetmainargs
PUBLIC 15ce0 0 onexit
PUBLIC 15d00 0 at_quick_exit
PUBLIC 15d20 0 amsg_exit
PUBLIC 15d50 0 get_output_format
PUBLIC 15d60 0 tzset
PUBLIC 15da0 0 tzset
PUBLIC 15de0 0 _ms_fwprintf
PUBLIC 15e20 0 ZN7logging11InitLoggingERKNS_15LoggingSettingsE
PUBLIC 15f20 0 ZN7logging20SetLogMessageHandlerEPFbiPKciyRKNSt3__112basic_stringIcNS2_11char_traitsIcEENS2_9allocatorIcEEEEE
PUBLIC 15f40 0 ZN7logging20GetLogMessageHandlerEv
PUBLIC 15f50 0 ZN7logging23SystemErrorCodeToStringEm
PUBLIC m 16100 0 ZN7logging10LogMessageC1EPKcS2_ii
PUBLIC 161a0 0 ZN7logging10LogMessage4InitEPKc
PUBLIC m 16830 0 ZN7logging10LogMessageC1EPKcS2_iPNSt3__112basic_stringIcNS3_11char_traitsIcEENS3_9allocatorIcEEEE
PUBLIC m 16960 0 ZN7logging10LogMessageD1Ev
PUBLIC 16b40 0 ZN7logging22GetLastSystemErrorCodeEv
PUBLIC m 16b50 0 ZN7logging20Win32ErrorLogMessageC1EPKcS2_iim
PUBLIC m 16bc0 0 ZN7logging20Win32ErrorLogMessageD1Ev
PUBLIC 16c50 0 ZStlsRNSt3__113basic_ostreamIcNS_11char_traitsIcEEEERKNS_12basic_stringIDsNS1_IDsEENS_9allocatorIDsEEEE
PUBLIC 16cf0 0 ZN7logging11CheckEQImplIjjEEPNSt3__112basic_stringIcNS1_11char_traitsIcEENS1_9allocatorIcEEEERKT_RKT0_PKc
PUBLIC 16d50 0 ZN7logging10LogMessage6streamEv
PUBLIC 16d60 0 ZN4base4sizeIwLy256EEEyRAT0__KT_
PUBLIC 16d70 0 ZN4base16BasicStringPieceINSt3__112basic_stringIwNS1_11char_traitsIwEENS1_9allocatorIwEEEEEC2EPKw
PUBLIC 16dd0 0 ZNKSt3__112basic_stringIcNS_11char_traitsIcEENS_9allocatorIcEEE5c_strB7v170001Ev
PUBLIC 16df0 0 ZNSt3__119basic_ostringstreamIcNS_11char_traitsIcEENS_9allocatorIcEEEC1B7v170001Ev
PUBLIC 16ed0 0 ZNSt3__119basic_ostringstreamIcNS_11char_traitsIcEENS_9allocatorIcEEED1Ev
PUBLIC 16f10 0 ZNSt3__1lsB7v170001INS_11char_traitsIcEEEERNS_13basic_ostreamIcT_EES6_PKc
PUBLIC 16f60 0 ZNSt3__1lsB7v170001IcNS_11char_traitsIcEENS_9allocatorIcEEEERNS_13basic_ostreamIT_T0_EES9_RKNS_12basic_stringIS6_S7_T1_EE
PUBLIC 16fb0 0 ZNSt3__113basic_ostreamIcNS_11char_traitsIcEEElsB7v170001EPFRS3_S4_E
PUBLIC 16fd0 0 ZNSt3__14endlB7v170001IcNS_11char_traitsIcEEEERNS_13basic_ostreamIT_T0_EES7_
PUBLIC 17020 0 ZNKSt3__119basic_ostringstreamIcNS_11char_traitsIcEENS_9allocatorIcEEE3strB7v170001Ev
PUBLIC 17050 0 ZN4base16BasicStringPieceINSt3__112basic_stringIcNS1_11char_traitsIcEENS1_9allocatorIcEEEEEC2ERKS7_
PUBLIC 170a0 0 ZNKSt3__112basic_stringIwNS_11char_traitsIwEENS_9allocatorIwEEE5c_strB7v170001Ev
PUBLIC 170c0 0 ZNKSt3__112basic_stringIcNS_11char_traitsIcEENS_9allocatorIcEEE12find_last_ofB7v170001EPKcy
PUBLIC 17140 0 ZNSt3__112basic_stringIcNS_11char_traitsIcEENS_9allocatorIcEEE6assignB7v170001EOS5_
PUBLIC 17170 0 ZNKSt3__112basic_stringIcNS_11char_traitsIcEENS_9allocatorIcEEE6substrB7v170001Eyy
PUBLIC 171f0 0 ZNSt3__1lsB7v170001INS_11char_traitsIcEEEERNS_13basic_ostreamIcT_EES6_RKNS_8__iom_t4IcEE
PUBLIC 17220 0 ZNSt3__1lsB7v170001INS_11char_traitsIcEEEERNS_13basic_ostreamIcT_EES6_c
PUBLIC 17250 0 ZNSt3__17setfillB7v170001IcEENS_8__iom_t4IT_EES2_
PUBLIC 17270 0 ZNSt3__1lsB7v170001IcNS_11char_traitsIcEEEERNS_13basic_ostreamIT_T0_EES7_RKNS_8__iom_t6E
PUBLIC 172b0 0 ZNSt3__14setwB7v170001Ei
PUBLIC 172d0 0 ZN4base16BasicStringPieceINSt3__112basic_stringIDsNS1_11char_traitsIDsEENS1_9allocatorIDsEEEEEC2ERKS7_
PUBLIC 17320 0 ZNSt3__119basic_ostringstreamIcNS_11char_traitsIcEENS_9allocatorIcEEED2Ev
PUBLIC 17380 0 ZTv0_n24_NSt3__119basic_ostringstreamIcNS_11char_traitsIcEENS_9allocatorIcEEED1Ev
PUBLIC 173a0 0 ZNSt3__119basic_ostringstreamIcNS_11char_traitsIcEENS_9allocatorIcEEED0Ev
PUBLIC 173d0 0 ZTv0_n24_NSt3__119basic_ostringstreamIcNS_11char_traitsIcEENS_9allocatorIcEEED0Ev
PUBLIC 173f0 0 ZNSt3__115basic_stringbufIcNS_11char_traitsIcEENS_9allocatorIcEEED2Ev
PUBLIC 17430 0 ZNSt3__115basic_stringbufIcNS_11char_traitsIcEENS_9allocatorIcEEED0Ev
PUBLIC 17460 0 ZNSt3__115basic_stringbufIcNS_11char_traitsIcEENS_9allocatorIcEEE7seekoffExNS_8ios_base7seekdirEj
PUBLIC 177f0 0 ZNSt3__115basic_stringbufIcNS_11char_traitsIcEENS_9allocatorIcEEE7seekposENS_4fposI9_MbstatetEEj
PUBLIC 17860 0 ZNSt3__115basic_stringbufIcNS_11char_traitsIcEENS_9allocatorIcEEE9underflowEv
PUBLIC 17960 0 ZNSt3__115basic_stringbufIcNS_11char_traitsIcEENS_9allocatorIcEEE9pbackfailEi
PUBLIC 17b00 0 ZNSt3__115basic_stringbufIcNS_11char_traitsIcEENS_9allocatorIcEEE8overflowEi
PUBLIC 17de0 0 ZNKSt3__115basic_streambufIcNS_11char_traitsIcEEE4pptrB7v170001Ev
PUBLIC 17df0 0 ZNSt3__14fposI9_MbstatetEC2B7v170001Ex
PUBLIC 17e30 0 ZNKSt3__115basic_streambufIcNS_11char_traitsIcEEE4gptrB7v170001Ev
PUBLIC 17e40 0 ZNKSt3__115basic_streambufIcNS_11char_traitsIcEEE5ebackB7v170001Ev
PUBLIC 17e50 0 ZNKSt3__115basic_streambufIcNS_11char_traitsIcEEE5pbaseB7v170001Ev
PUBLIC 17e60 0 ZNSt3__115basic_streambufIcNS_11char_traitsIcEEE4setgB7v170001EPcS4_S4_
PUBLIC 17ea0 0 ZNSt3__115basic_streambufIcNS_11char_traitsIcEEE4setpB7v170001EPcS4_
PUBLIC 17ee0 0 ZNKSt3__115basic_streambufIcNS_11char_traitsIcEEE5epptrB7v170001Ev
PUBLIC 17ef0 0 ZNSt3__115basic_streambufIcNS_11char_traitsIcEEE7__pbumpB7v170001Ex
PUBLIC 17f20 0 ZNKSt3__14fposI9_MbstatetEcvxB7v170001Ev
PUBLIC 17f30 0 ZNKSt3__115basic_streambufIcNS_11char_traitsIcEEE5egptrB7v170001Ev
PUBLIC 17f40 0 ZNSt3__111char_traitsIcE11to_int_typeB7v170001Ec
PUBLIC 17f50 0 ZNSt3__111char_traitsIcE3eofB7v170001Ev
PUBLIC 17f60 0 ZNSt3__111char_traitsIcE11eq_int_typeB7v170001Eii
PUBLIC 17f80 0 ZNSt3__111char_traitsIcE7not_eofB7v170001Ei
PUBLIC 17fd0 0 ZNSt3__111char_traitsIcE12to_char_typeB7v170001Ei
PUBLIC 17fe0 0 ZNKSt3__112basic_stringIcNS_11char_traitsIcEENS_9allocatorIcEEE8capacityB7v170001Ev
PUBLIC 18040 0 ZNSt3__13maxB7v170001IPcEERKT_S4_S4_
PUBLIC 18070 0 ZNSt3__115basic_streambufIcNS_11char_traitsIcEEE5sputcB7v170001Ec
PUBLIC 180f0 0 ZNKSt3__112basic_stringIcNS_11char_traitsIcEENS_9allocatorIcEEE14__get_long_capB7v170001Ev
PUBLIC 18120 0 ZNSt3__13maxB7v170001IPcNS_6__lessIvvEEEERKT_S6_S6_T0_
PUBLIC 18180 0 ZNKSt3__16__lessIvvEclB7v170001IPcS3_EEbRKT_RKT0_
PUBLIC 181b0 0 ZNSt3__18__iom_t6C2B7v170001Ei
PUBLIC 181d0 0 ZN7logging17MakeCheckOpStringIjjEEPNSt3__112basic_stringIcNS1_11char_traitsIcEENS1_9allocatorIcEEEERKT_RKT0_PKc
PUBLIC 18360 0 ZNSt3__111char_traitsIwE6lengthB7v170001EPKw
PUBLIC 18390 0 ZNSt3__118__constexpr_wcslenB7v170001EPKw
PUBLIC 183b0 0 ZNSt3__19basic_iosIcNS_11char_traitsIcEEEC2B7v170001Ev
PUBLIC 183e0 0 ZNSt3__113basic_ostreamIcNS_11char_traitsIcEEEC2B7v170001EPNS_15basic_streambufIcS2_EE
PUBLIC 18430 0 ZNSt3__115basic_stringbufIcNS_11char_traitsIcEENS_9allocatorIcEEEC2B7v170001Ej
PUBLIC 18490 0 ZNSt3__18ios_baseC2B7v170001Ev
PUBLIC 184b0 0 ZNSt3__19basic_iosIcNS_11char_traitsIcEEE4initB7v170001EPNS_15basic_streambufIcS2_EE
PUBLIC 18500 0 ZNSt3__124__put_character_sequenceB7v170001IcNS_11char_traitsIcEEEERNS_13basic_ostreamIT_T0_EES7_PKS4_y
PUBLIC 18770 0 ZNSt3__113basic_ostreamIcNS_11char_traitsIcEEE6sentryC2ERS3_
PUBLIC 18800 0 ZNKSt3__113basic_ostreamIcNS_11char_traitsIcEEE6sentrycvbB7v170001Ev
PUBLIC 18820 0 ZNSt3__116__pad_and_outputB7v170001IcNS_11char_traitsIcEEEENS_19ostreambuf_iteratorIT_T0_EES6_PKS4_S8_S8_RNS_8ios_baseES4_
PUBLIC 18ad0 0 ZNSt3__119ostreambuf_iteratorIcNS_11char_traitsIcEEEC2B7v170001ERNS_13basic_ostreamIcS2_EE
PUBLIC 18b30 0 ZNKSt3__18ios_base5flagsB7v170001Ev
PUBLIC 18b40 0 ZNKSt3__19basic_iosIcNS_11char_traitsIcEEE4fillB7v170001Ev
PUBLIC 18bb0 0 ZNKSt3__119ostreambuf_iteratorIcNS_11char_traitsIcEEE6failedB7v170001Ev
PUBLIC 18bd0 0 ZNSt3__19basic_iosIcNS_11char_traitsIcEEE8setstateB7v170001Ej
PUBLIC 18c00 0 ZNSt3__113basic_ostreamIcNS_11char_traitsIcEEE6sentryD2Ev
PUBLIC 18d50 0 ZNKSt3__19basic_iosIcNS_11char_traitsIcEEE4goodB7v170001Ev
PUBLIC 18d70 0 ZNKSt3__19basic_iosIcNS_11char_traitsIcEEE3tieB7v170001Ev
PUBLIC 18d90 0 ZNKSt3__18ios_base4goodB7v170001Ev
PUBLIC 18db0 0 ZNKSt3__18ios_base5widthB7v170001Ev
PUBLIC 18dc0 0 ZNSt3__115basic_streambufIcNS_11char_traitsIcEEE5sputnB7v170001EPKcx
PUBLIC 18df0 0 ZNSt3__112basic_stringIcNS_11char_traitsIcEENS_9allocatorIcEEEC2B7v170001Eyc
PUBLIC 18e40 0 ZNSt3__18ios_base5widthB7v170001Ex
PUBLIC 18e70 0 ZNKSt3__19basic_iosIcNS_11char_traitsIcEEE5rdbufB7v170001Ev
PUBLIC 18e90 0 ZNKSt3__18ios_base5rdbufB7v170001Ev
PUBLIC 18ea0 0 ZNKSt3__19basic_iosIcNS_11char_traitsIcEEE5widenB7v170001Ec
PUBLIC 18f30 0 ZNSt3__19use_facetB7v170001INS_5ctypeIcEEEERKT_RKNS_6localeE
PUBLIC 18f50 0 ZNKSt3__15ctypeIcE5widenB7v170001Ec
PUBLIC 18f80 0 ZNSt3__18ios_base8setstateB7v170001Ej
PUBLIC 18fb0 0 ZNSt3__115basic_streambufIcNS_11char_traitsIcEEE7pubsyncB7v170001Ev
PUBLIC 18fd0 0 ZNKSt3__115basic_stringbufIcNS_11char_traitsIcEENS_9allocatorIcEEE3strEv
PUBLIC 19110 0 ZNKSt3__112basic_stringIcNS_11char_traitsIcEENS_9allocatorIcEEE13get_allocatorB7v170001Ev
PUBLIC 19130 0 ZNSt3__112basic_stringIcNS_11char_traitsIcEENS_9allocatorIcEEEC2B7v170001IPcLi0EEET_S8_RKS4_
PUBLIC 19180 0 ZNSt3__112basic_stringIcNS_11char_traitsIcEENS_9allocatorIcEEE6__initIPcLi0EEEvT_S8_
PUBLIC 191d0 0 ZNSt3__18distanceB7v170001IPcEENS_15iterator_traitsIT_E15difference_typeES3_S3_
PUBLIC 19200 0 ZNSt3__112basic_stringIcNS_11char_traitsIcEENS_9allocatorIcEEE16__init_with_sizeB7v170001IPcS7_EEvT_T0_y
PUBLIC 19360 0 ZNSt3__110__distanceB7v170001IPcEENS_15iterator_traitsIT_E15difference_typeES3_S3_NS_26random_access_iterator_tagE
PUBLIC 19390 0 ZNSt3__116allocator_traitsINS_9allocatorIcEEE8max_sizeB7v170001IS2_vEEyRKS2_
PUBLIC 193b0 0 ZNKSt3__19allocatorIcE8max_sizeB7v170001Ev
PUBLIC 193c0 0 ZNSt3__112basic_stringIcNS_11char_traitsIcEENS_9allocatorIcEEEaSB7v170001EOS5_
PUBLIC 19400 0 ZNSt3__112basic_stringIcNS_11char_traitsIcEENS_9allocatorIcEEE13__move_assignB7v170001ERS5_NS_17integral_constantIbLb1EEE
PUBLIC 194e0 0 ZNSt3__116allocator_traitsINS_9allocatorIcEEE10deallocateB7v170001ERS2_Pcy
PUBLIC 19510 0 ZNSt3__112basic_stringIcNS_11char_traitsIcEENS_9allocatorIcEEE19__move_assign_allocB7v170001ERS5_
PUBLIC 19540 0 ZNSt3__112basic_stringIcNS_11char_traitsIcEENS_9allocatorIcEEE19__move_assign_allocB7v170001ERS5_NS_17integral_constantIbLb1EEE
PUBLIC 19580 0 ZNSt3__18__iom_t4IcEC2B7v170001Ec
PUBLIC 195a0 0 ZNSt3__19basic_iosIcNS_11char_traitsIcEEE4fillB7v170001Ec
PUBLIC 19620 0 ZNKSt3__112basic_stringIDsNS_11char_traitsIDsEENS_9allocatorIDsEEE4dataB7v170001Ev
PUBLIC 19650 0 ZNKSt3__112basic_stringIDsNS_11char_traitsIDsEENS_9allocatorIDsEEE4sizeB7v170001Ev
PUBLIC 196b0 0 ZNSt3__112__to_addressB7v170001IKDsEEPT_S3_
PUBLIC 196c0 0 ZNKSt3__112basic_stringIDsNS_11char_traitsIDsEENS_9allocatorIDsEEE13__get_pointerB7v170001Ev
PUBLIC 19720 0 ZNKSt3__112basic_stringIDsNS_11char_traitsIDsEENS_9allocatorIDsEEE9__is_longB7v170001Ev
PUBLIC 19750 0 ZNKSt3__112basic_stringIDsNS_11char_traitsIDsEENS_9allocatorIDsEEE18__get_long_pointerB7v170001Ev
PUBLIC 19770 0 ZNKSt3__112basic_stringIDsNS_11char_traitsIDsEENS_9allocatorIDsEEE19__get_short_pointerB7v170001Ev
PUBLIC 197a0 0 ZNKSt3__117__compressed_pairINS_12basic_stringIDsNS_11char_traitsIDsEENS_9allocatorIDsEEE5__repES5_E5firstB7v170001Ev
PUBLIC 197c0 0 ZNKSt3__122__compressed_pair_elemINS_12basic_stringIDsNS_11char_traitsIDsEENS_9allocatorIDsEEE5__repELi0ELb0EE5__getB7v170001Ev
PUBLIC 197d0 0 ZNSt3__114pointer_traitsIPKDsE10pointer_toB7v170001ERS1_
PUBLIC 197e0 0 ZNKSt3__112basic_stringIDsNS_11char_traitsIDsEENS_9allocatorIDsEEE15__get_long_sizeB7v170001Ev
PUBLIC 19800 0 ZNKSt3__112basic_stringIDsNS_11char_traitsIDsEENS_9allocatorIDsEEE16__get_short_sizeB7v170001Ev
FUNC 19820 22 0 (anonymous namespace)::`dynamic initializer for 'portable_directory'()
FUNC 19850 16 0 (anonymous namespace)::`dynamic atexit destructor for 'portable_directory'()
FUNC 19870 351 0 workrave::utils::Paths::set_portable_directory(std::__1::basic_string<char,std::__1::char_traits<char>,std::__1::allocator<char> > const&)
FUNC 19bd0 272 0 workrave::utils::Paths::get_application_directory()
FUNC 19e50 27e 0 workrave::utils::Paths::get_home_directory()
FUNC 1a0d0 cf 0 (anonymous namespace)::get_special_folder(_GUID const&)
FUNC 1a1a0 6d4 0 workrave::utils::Paths::get_data_directories()
FUNC 1a880 17 0 _g_win32_get_system_data_dirs()
FUNC 1a8a0 210 0 workrave::utils::Paths::canonicalize(std::__1::list<std::__1::__fs::filesystem::path,std::__1::allocator<std::__1::__fs::filesystem::path> >)
FUNC 1aab0 70a 0 workrave::utils::Paths::get_config_directories()
FUNC 1b1c0 6a5 0 workrave::utils::Paths::get_config_directory()
FUNC 1b870 80 0 std::__1::find_if<std::__1::__list_iterator<std::__1::__fs::filesystem::path,void *>,`lambda at C:/mystuff/src/workrave-v1_11/libs/utils/src/Paths.cc:282:74'>(std::__1::__list_iterator<std::__1::__fs::filesystem::path,void *>, std::__1::__list_iterator<std::__1::__fs::filesystem::path,void *>, workrave::utils::Paths::get_config_directory::<lambda0>)
FUNC 1b8f0 792 0 workrave::utils::Paths::get_state_directory()
FUNC 1c090 80 0 std::__1::find_if<std::__1::__list_iterator<std::__1::__fs::filesystem::path,void *>,`lambda at C:/mystuff/src/workrave-v1_11/libs/utils/src/Paths.cc:331:74'>(std::__1::__list_iterator<std::__1::__fs::filesystem::path,void *>, std::__1::__list_iterator<std::__1::__fs::filesystem::path,void *>, workrave::utils::Paths::get_state_directory::<lambda0>)
FUNC 1c110 1b3 0 workrave::utils::Paths::get_log_directory()
FUNC 1c2d0 22 0 workrave::utils::Paths::get_config_directory::<lambda0>::operator()<std::__1::__fs::filesystem::path>(std::__1::__fs::filesystem::path const&) const
FUNC 1c300 ca 0 workrave::utils::Paths::get_state_directory::<lambda0>::operator()<std::__1::__fs::filesystem::path>(std::__1::__fs::filesystem::path const&) const
FUNC 1c3d0 f 0 _GLOBAL__sub_I_Paths.cc()
FUNC 1c3e0 19 0 std::__1::__fs::filesystem::path::path()
FUNC 1c400 1f 0 std::__1::__fs::filesystem::path::is_relative() const
FUNC 1c420 2c 0 std::__1::__fs::filesystem::path::operator=(std::__1::__fs::filesystem::path&&)
FUNC 1c450 2f 0 std::__1::__fs::filesystem::weakly_canonical(std::__1::__fs::filesystem::path const&)
FUNC 1c480 21 0 std::__1::__fs::filesystem::create_directories(std::__1::__fs::filesystem::path const&)
FUNC 1c4b0 30 0 std::__1::__fs::filesystem::permissions(std::__1::__fs::filesystem::path const&, std::__1::__fs::filesystem::perms, std::__1::__fs::filesystem::perm_options)
FUNC 1c4e0 11 0 std::__1::__fs::filesystem::operator|(std::__1::__fs::filesystem::perms, std::__1::__fs::filesystem::perms)
FUNC 1c500 1f3 0 ScopedTrace::var<const char *>(char const* const&)
FUNC 1c700 24 0 std::__1::__fs::filesystem::current_path()
FUNC 1c730 21 0 strrchr(char*, int)
FUNC 1c760 66 0 std::__1::__fs::filesystem::path::path<char[260],void>(char[260] const&, std::__1::__fs::filesystem::path::format)
FUNC 1c7d0 19 0 std::__1::list<std::__1::__fs::filesystem::path,std::__1::allocator<std::__1::__fs::filesystem::path> >::list()
FUNC 1c7f0 118 0 std::__1::list<std::__1::__fs::filesystem::path,std::__1::allocator<std::__1::__fs::filesystem::path> >::push_back(std::__1::__fs::filesystem::path&&)
FUNC 1c910 66 0 std::__1::__fs::filesystem::path::path<const char *,void>(char const* const&, std::__1::__fs::filesystem::path::format)
FUNC 1c980 66 0 std::__1::__fs::filesystem::path::path<char[9],void>(char[9] const&, std::__1::__fs::filesystem::path::format)
FUNC 1c9f0 ff 0 std::__1::list<std::__1::__fs::filesystem::path,std::__1::allocator<std::__1::__fs::filesystem::path> >::emplace_back<const char *const &>(char const* const&)
FUNC 1caf0 66 0 std::__1::__fs::filesystem::path::path<char[6],void>(char[6] const&, std::__1::__fs::filesystem::path::format)
FUNC 1cb60 f6 0 std::__1::list<std::__1::__fs::filesystem::path,std::__1::allocator<std::__1::__fs::filesystem::path> >::list(std::__1::list<std::__1::__fs::filesystem::path,std::__1::allocator<std::__1::__fs::filesystem::path> > const&)
FUNC 1cc60 19 0 std::__1::list<std::__1::__fs::filesystem::path,std::__1::allocator<std::__1::__fs::filesystem::path> >::~list()
FUNC 1cc80 22 0 std::__1::list<std::__1::__fs::filesystem::path,std::__1::allocator<std::__1::__fs::filesystem::path> >::begin()
FUNC 1ccb0 22 0 std::__1::list<std::__1::__fs::filesystem::path,std::__1::allocator<std::__1::__fs::filesystem::path> >::end()
FUNC 1cce0 29 0 std::__1::operator!=(std::__1::__list_iterator<std::__1::__fs::filesystem::path,void *> const&, std::__1::__list_iterator<std::__1::__fs::filesystem::path,void *> const&)
FUNC 1cd10 1f 0 std::__1::__list_iterator<std::__1::__fs::filesystem::path,void *>::operator*() const
FUNC 1cd30 15 0 std::__1::__list_iterator<std::__1::__fs::filesystem::path,void *>::operator++()
FUNC 1cd50 1d 0 std::__1::__fs::filesystem::path::empty() const
FUNC 1cd70 17b 0 ScopedTrace::msg<>(std::__1::basic_string<char,std::__1::char_traits<char>,std::__1::allocator<char> > const&)
FUNC 1cef0 29 0 std::__1::operator==(std::__1::__list_iterator<std::__1::__fs::filesystem::path,void *> const&, std::__1::__list_iterator<std::__1::__fs::filesystem::path,void *> const&)
FUNC 1cf20 20 0 std::__1::list<std::__1::__fs::filesystem::path,std::__1::allocator<std::__1::__fs::filesystem::path> >::front()
FUNC 1cf40 2c 0 std::__1::__fs::filesystem::path::operator=(std::__1::__fs::filesystem::path const&)
FUNC 1cf70 43 0 std::__1::__fs::filesystem::is_directory(std::__1::__fs::filesystem::path const&)
FUNC 1cfc0 1a5 0 ScopedTrace::msg<const char *>(std::__1::basic_string<char,std::__1::char_traits<char>,std::__1::allocator<char> > const&, char const* const&)
FUNC 1d170 8b 0 std::__1::find<std::__1::__list_iterator<std::__1::__fs::filesystem::path,void *>,std::__1::__fs::filesystem::path>(std::__1::__list_iterator<std::__1::__fs::filesystem::path,void *>, std::__1::__list_iterator<std::__1::__fs::filesystem::path,void *>, std::__1::__fs::filesystem::path const&)
FUNC 1d200 102 0 std::__1::list<std::__1::__fs::filesystem::path,std::__1::allocator<std::__1::__fs::filesystem::path> >::push_back(std::__1::__fs::filesystem::path const&)
FUNC 1d310 66 0 std::__1::__fs::filesystem::path::path<char[5],void>(char[5] const&, std::__1::__fs::filesystem::path::format)
FUNC 1d380 23 0 std::__1::__fs::filesystem::path::path(std::__1::__fs::filesystem::path&&)
FUNC 1d3b0 31 0 std::__1::basic_string<wchar_t,std::__1::char_traits<wchar_t>,std::__1::allocator<wchar_t> >::operator=(std::__1::basic_string<wchar_t,std::__1::char_traits<wchar_t>,std::__1::allocator<wchar_t> >&&)
FUNC 1d3f0 de 0 std::__1::basic_string<wchar_t,std::__1::char_traits<wchar_t>,std::__1::allocator<wchar_t> >::__move_assign(std::__1::basic_string<wchar_t,std::__1::char_traits<wchar_t>,std::__1::allocator<wchar_t> >&, std::__1::integral_constant<bool,1>)
FUNC 1d4d0 2d 0 std::__1::allocator_traits<std::__1::allocator<wchar_t> >::deallocate(std::__1::allocator<wchar_t>&, wchar_t*, unsigned long long)
FUNC 1d500 19 0 std::__1::basic_string<wchar_t,std::__1::char_traits<wchar_t>,std::__1::allocator<wchar_t> >::__alloc()
FUNC 1d520 21 0 std::__1::basic_string<wchar_t,std::__1::char_traits<wchar_t>,std::__1::allocator<wchar_t> >::__get_long_cap() const
FUNC 1d550 28 0 std::__1::basic_string<wchar_t,std::__1::char_traits<wchar_t>,std::__1::allocator<wchar_t> >::__move_assign_alloc(std::__1::basic_string<wchar_t,std::__1::char_traits<wchar_t>,std::__1::allocator<wchar_t> >&)
FUNC 1d580 55 0 std::__1::basic_string<wchar_t,std::__1::char_traits<wchar_t>,std::__1::allocator<wchar_t> >::__set_short_size(unsigned long long)
FUNC 1d5e0 21 0 std::__1::char_traits<wchar_t>::assign(wchar_t&, wchar_t const&)
FUNC 1d610 3e 0 std::__1::allocator<wchar_t>::deallocate(wchar_t*, unsigned long long)
FUNC 1d650 19 0 std::__1::__compressed_pair<std::__1::basic_string<wchar_t,std::__1::char_traits<wchar_t>,std::__1::allocator<wchar_t> >::__rep,std::__1::allocator<wchar_t> >::second()
FUNC 1d670 b 0 std::__1::__compressed_pair_elem<std::__1::allocator<wchar_t>,1,1>::__get()
FUNC 1d680 37 0 std::__1::basic_string<wchar_t,std::__1::char_traits<wchar_t>,std::__1::allocator<wchar_t> >::__move_assign_alloc(std::__1::basic_string<wchar_t,std::__1::char_traits<wchar_t>,std::__1::allocator<wchar_t> >&, std::__1::integral_constant<bool,1>)
FUNC 1d6c0 66 0 std::__1::__fs::filesystem::path::path<wchar_t *,void>(wchar_t* const&, std::__1::__fs::filesystem::path::format)
FUNC 1d730 2f 0 std::__1::__fs::filesystem::canonical(std::__1::__fs::filesystem::path const&)
FUNC 1d760 4f 0 std::__1::__fs::filesystem::_PathCVT<wchar_t>::__append_source<wchar_t *>(std::__1::basic_string<wchar_t,std::__1::char_traits<wchar_t>,std::__1::allocator<wchar_t> >&, wchar_t* const&)
FUNC 1d7b0 2d 0 std::__1::__fs::filesystem::_PathCVT<wchar_t>::__append_range<const wchar_t *>(std::__1::basic_string<wchar_t,std::__1::char_traits<wchar_t>,std::__1::allocator<wchar_t> >&, wchar_t const*, wchar_t const*)
FUNC 1d7e0 b 0 std::__1::__fs::filesystem::__is_pathable_char_array<wchar_t *,wchar_t *,wchar_t,1>::__range_begin(wchar_t const*)
FUNC 1d7f0 48 0 std::__1::__fs::filesystem::__is_pathable_char_array<wchar_t *,wchar_t *,wchar_t,1>::__range_end(wchar_t const*)
FUNC 1d840 272 0 std::__1::basic_string<wchar_t,std::__1::char_traits<wchar_t>,std::__1::allocator<wchar_t> >::append<const wchar_t *,0>(wchar_t const*, wchar_t const*)
FUNC 1dac0 56 0 std::__1::basic_string<wchar_t,std::__1::char_traits<wchar_t>,std::__1::allocator<wchar_t> >::capacity() const
FUNC 1db20 28 0 std::__1::distance<const wchar_t *>(wchar_t const*, wchar_t const*)
FUNC 1db50 63 0 std::__1::basic_string<wchar_t,std::__1::char_traits<wchar_t>,std::__1::allocator<wchar_t> >::__addr_in_range<wchar_t>(wchar_t const&) const
FUNC 1dbc0 9a 0 std::__1::basic_string<wchar_t,std::__1::char_traits<wchar_t>,std::__1::allocator<wchar_t> >::__grow_by_without_replace(unsigned long long, unsigned long long, unsigned long long, unsigned long long, unsigned long long, unsigned long long)
FUNC 1dc60 53 0 std::__1::basic_string<wchar_t,std::__1::char_traits<wchar_t>,std::__1::allocator<wchar_t> >::__set_size(unsigned long long)
FUNC 1dcc0 4b 0 std::__1::basic_string<wchar_t,std::__1::char_traits<wchar_t>,std::__1::allocator<wchar_t> >::basic_string<const wchar_t *,0>(wchar_t const*, wchar_t const*, std::__1::allocator<wchar_t> const&)
FUNC 1dd10 26 0 std::__1::__distance<const wchar_t *>(wchar_t const*, wchar_t const*, std::__1::random_access_iterator_tag)
FUNC 1dd40 5e 0 std::__1::__is_pointer_in_range<wchar_t,wchar_t,0>(wchar_t const*, wchar_t const*, wchar_t const*)
FUNC 1dda0 2e 0 std::__1::__less<void,void>::operator()<const wchar_t *,const wchar_t *>(wchar_t const* const&, wchar_t const* const&) const
FUNC 1ddd0 30 0 std::__1::basic_string<wchar_t,std::__1::char_traits<wchar_t>,std::__1::allocator<wchar_t> >::__set_long_size(unsigned long long)
FUNC 1de00 3b 0 std::__1::__compressed_pair<std::__1::basic_string<wchar_t,std::__1::char_traits<wchar_t>,std::__1::allocator<wchar_t> >::__rep,std::__1::allocator<wchar_t> >::__compressed_pair<std::__1::__default_init_tag,const std::__1::allocator<wchar_t> &>(std::__1::__default_init_tag&&, std::__1::allocator<wchar_t> const&)
FUNC 1de40 50 0 std::__1::basic_string<wchar_t,std::__1::char_traits<wchar_t>,std::__1::allocator<wchar_t> >::__init<const wchar_t *,0>(wchar_t const*, wchar_t const*)
FUNC 1de90 12 0 std::__1::__compressed_pair_elem<std::__1::allocator<wchar_t>,1,1>::__compressed_pair_elem<const std::__1::allocator<wchar_t> &,void>(std::__1::allocator<wchar_t> const&)
FUNC 1deb0 15c 0 std::__1::basic_string<wchar_t,std::__1::char_traits<wchar_t>,std::__1::allocator<wchar_t> >::__init_with_size<const wchar_t *,const wchar_t *>(wchar_t const*, wchar_t const*, unsigned long long)
FUNC 1e010 9e 0 std::__1::basic_string<wchar_t,std::__1::char_traits<wchar_t>,std::__1::allocator<wchar_t> >::max_size() const
FUNC 1e0b0 16 0 std::__1::basic_string<wchar_t,std::__1::char_traits<wchar_t>,std::__1::allocator<wchar_t> >::__throw_length_error() const
FUNC 1e0d0 14 0 std::__1::basic_string<wchar_t,std::__1::char_traits<wchar_t>,std::__1::allocator<wchar_t> >::__fits_in_sso(unsigned long long)
FUNC 1e0f0 4d 0 std::__1::__allocate_at_least<std::__1::allocator<wchar_t> >(std::__1::allocator<wchar_t>&, unsigned long long)
FUNC 1e140 68 0 std::__1::basic_string<wchar_t,std::__1::char_traits<wchar_t>,std::__1::allocator<wchar_t> >::__recommend(unsigned long long)
FUNC 1e1b0 12 0 std::__1::basic_string<wchar_t,std::__1::char_traits<wchar_t>,std::__1::allocator<wchar_t> >::__begin_lifetime(wchar_t*, unsigned long long)
FUNC 1e1d0 30 0 std::__1::basic_string<wchar_t,std::__1::char_traits<wchar_t>,std::__1::allocator<wchar_t> >::__set_long_pointer(wchar_t*)
FUNC 1e200 69 0 std::__1::basic_string<wchar_t,std::__1::char_traits<wchar_t>,std::__1::allocator<wchar_t> >::__set_long_cap(unsigned long long)
FUNC 1e270 16 0 std::__1::allocator_traits<std::__1::allocator<wchar_t> >::max_size<std::__1::allocator<wchar_t>,void,void>(std::__1::allocator<wchar_t> const&)
FUNC 1e290 19 0 std::__1::basic_string<wchar_t,std::__1::char_traits<wchar_t>,std::__1::allocator<wchar_t> >::__alloc() const
FUNC 1e2b0 19 0 std::__1::__compressed_pair<std::__1::basic_string<wchar_t,std::__1::char_traits<wchar_t>,std::__1::allocator<wchar_t> >::__rep,std::__1::allocator<wchar_t> >::second() const
FUNC 1e2d0 b 0 std::__1::__compressed_pair_elem<std::__1::allocator<wchar_t>,1,1>::__get() const
FUNC 1e2e0 50 0 std::__1::allocator<wchar_t>::allocate(unsigned long long)
FUNC 1e330 13 0 std::__1::basic_string<wchar_t,std::__1::char_traits<wchar_t>,std::__1::allocator<wchar_t> >::__align_it<8>(unsigned long long)
FUNC 1e350 19 0 std::__1::__list_imp<std::__1::__fs::filesystem::path,std::__1::allocator<std::__1::__fs::filesystem::path> >::~__list_imp()
FUNC 1e370 eb 0 std::__1::__list_imp<std::__1::__fs::filesystem::path,std::__1::allocator<std::__1::__fs::filesystem::path> >::clear()
FUNC 1e460 24 0 std::__1::__list_imp<std::__1::__fs::filesystem::path,std::__1::allocator<std::__1::__fs::filesystem::path> >::empty() const
FUNC 1e490 1d 0 std::__1::__list_imp<std::__1::__fs::filesystem::path,std::__1::allocator<std::__1::__fs::filesystem::path> >::__node_alloc()
FUNC 1e4b0 44 0 std::__1::__list_imp<std::__1::__fs::filesystem::path,std::__1::allocator<std::__1::__fs::filesystem::path> >::__end_as_link() const
FUNC 1e500 39 0 std::__1::__list_imp<std::__1::__fs::filesystem::path,std::__1::allocator<std::__1::__fs::filesystem::path> >::__unlink_nodes(std::__1::__list_node_base<std::__1::__fs::filesystem::path,void *>*, std::__1::__list_node_base<std::__1::__fs::filesystem::path,void *>*)
FUNC 1e540 1d 0 std::__1::__list_imp<std::__1::__fs::filesystem::path,std::__1::allocator<std::__1::__fs::filesystem::path> >::__sz()
FUNC 1e560 19 0 std::__1::__list_node_base<std::__1::__fs::filesystem::path,void *>::__as_node()
FUNC 1e580 1e 0 std::__1::allocator_traits<std::__1::allocator<std::__1::__list_node<std::__1::__fs::filesystem::path,void *> > >::destroy<std::__1::__fs::filesystem::path,void,void>(std::__1::allocator<std::__1::__list_node<std::__1::__fs::filesystem::path,void *> >&, std::__1::__fs::filesystem::path*)
FUNC 1e5a0 2d 0 std::__1::allocator_traits<std::__1::allocator<std::__1::__list_node<std::__1::__fs::filesystem::path,void *> > >::deallocate(std::__1::allocator<std::__1::__list_node<std::__1::__fs::filesystem::path,void *> >&, std::__1::__list_node<std::__1::__fs::filesystem::path,void *>*, unsigned long long)
FUNC 1e5d0 1d 0 std::__1::__list_imp<std::__1::__fs::filesystem::path,std::__1::allocator<std::__1::__fs::filesystem::path> >::__sz() const
FUNC 1e5f0 19 0 std::__1::__compressed_pair<unsigned long long,std::__1::allocator<std::__1::__list_node<std::__1::__fs::filesystem::path,void *> > >::first() const
FUNC 1e610 19 0 std::__1::__compressed_pair<unsigned long long,std::__1::allocator<std::__1::__list_node<std::__1::__fs::filesystem::path,void *> > >::second()
FUNC 1e630 b 0 std::__1::__compressed_pair_elem<std::__1::allocator<std::__1::__list_node<std::__1::__fs::filesystem::path,void *> >,1,1>::__get()
FUNC 1e640 b 0 std::__1::__list_node_pointer_traits<std::__1::__fs::filesystem::path,void *>::__unsafe_link_pointer_cast(std::__1::__list_node_base<std::__1::__fs::filesystem::path,void *>*)
FUNC 1e650 19 0 std::__1::__list_node_base<std::__1::__fs::filesystem::path,void *>::__self()
FUNC 1e670 b 0 std::__1::pointer_traits<std::__1::__list_node_base<std::__1::__fs::filesystem::path,void *> *>::pointer_to(std::__1::__list_node_base<std::__1::__fs::filesystem::path,void *>&)
FUNC 1e680 19 0 std::__1::__compressed_pair<unsigned long long,std::__1::allocator<std::__1::__list_node<std::__1::__fs::filesystem::path,void *> > >::first()
FUNC 1e6a0 19 0 std::__1::destroy_at<std::__1::__fs::filesystem::path,0>(std::__1::__fs::filesystem::path*)
FUNC 1e6c0 19 0 std::__1::__destroy_at<std::__1::__fs::filesystem::path,0>(std::__1::__fs::filesystem::path*)
FUNC 1e6e0 43 0 std::__1::allocator<std::__1::__list_node<std::__1::__fs::filesystem::path,void *> >::deallocate(std::__1::__list_node<std::__1::__fs::filesystem::path,void *>*, unsigned long long)
FUNC 1e730 24 0 std::__1::basic_string<wchar_t,std::__1::char_traits<wchar_t>,std::__1::allocator<wchar_t> >::empty() const
FUNC 1e760 1d 0 std::__1::__fs::filesystem::is_directory(std::__1::__fs::filesystem::file_status)
FUNC 1e780 7 0 std::__1::__fs::filesystem::file_status::~file_status()
FUNC 1e790 d 0 std::__1::__fs::filesystem::file_status::type() const
FUNC 1e7a0 43 0 std::__1::__fs::filesystem::is_regular_file(std::__1::__fs::filesystem::path const&)
FUNC 1e7f0 1d 0 std::__1::__fs::filesystem::is_regular_file(std::__1::__fs::filesystem::file_status)
FUNC 1e810 58 0 std::__1::__rewrap_iter<std::__1::__list_iterator<std::__1::__fs::filesystem::path,void *>,std::__1::__list_iterator<std::__1::__fs::filesystem::path,void *>,std::__1::__unwrap_iter_impl<std::__1::__list_iterator<std::__1::__fs::filesystem::path,void *>,0> >(std::__1::__list_iterator<std::__1::__fs::filesystem::path,void *>, std::__1::__list_iterator<std::__1::__fs::filesystem::path,void *>)
FUNC 1e870 9c 0 std::__1::__find_impl<std::__1::__list_iterator<std::__1::__fs::filesystem::path,void *>,std::__1::__list_iterator<std::__1::__fs::filesystem::path,void *>,std::__1::__fs::filesystem::path,std::__1::__identity>(std::__1::__list_iterator<std::__1::__fs::filesystem::path,void *>, std::__1::__list_iterator<std::__1::__fs::filesystem::path,void *>, std::__1::__fs::filesystem::path const&, std::__1::__identity&)
FUNC 1e910 2c 0 std::__1::__unwrap_iter<std::__1::__list_iterator<std::__1::__fs::filesystem::path,void *>,std::__1::__unwrap_iter_impl<std::__1::__list_iterator<std::__1::__fs::filesystem::path,void *>,0>,0>(std::__1::__list_iterator<std::__1::__fs::filesystem::path,void *>)
FUNC 1e940 20 0 std::__1::__unwrap_iter_impl<std::__1::__list_iterator<std::__1::__fs::filesystem::path,void *>,0>::__rewrap(std::__1::__list_iterator<std::__1::__fs::filesystem::path,void *>, std::__1::__list_iterator<std::__1::__fs::filesystem::path,void *>)
FUNC 1e960 61 0 std::__1::__fs::filesystem::operator==(std::__1::__fs::filesystem::path const&, std::__1::__fs::filesystem::path const&)
FUNC 1e9d0 23 0 std::__1::__invoke<std::__1::__identity &,std::__1::__fs::filesystem::path &>(std::__1::__identity&, std::__1::__fs::filesystem::path&)
FUNC 1ea00 16 0 std::__1::__identity::operator()<std::__1::__fs::filesystem::path &>(std::__1::__fs::filesystem::path&) const
FUNC 1ea20 1b 0 std::__1::__unwrap_iter_impl<std::__1::__list_iterator<std::__1::__fs::filesystem::path,void *>,0>::__unwrap(std::__1::__list_iterator<std::__1::__fs::filesystem::path,void *>)
FUNC 1ea40 40 0 spdlog::logger::trace<const char *const &>(fmt::v10::basic_format_string<char,const char *const &>, char const* const&)
FUNC 1ea80 25 0 fmt::v10::basic_format_string<char,const char *const &>::basic_format_string(fmt::v10::runtime_format_string<char>)
FUNC 1eab0 49 0 std::__1::__fs::filesystem::_PathCVT<char>::__append_source<char[260]>(std::__1::basic_string<wchar_t,std::__1::char_traits<wchar_t>,std::__1::allocator<wchar_t> >&, char[260] const&)
FUNC 1eb00 b 0 std::__1::__fs::filesystem::__is_pathable_char_array<char[260],char *,char,1>::__range_begin(char const*)
FUNC 1eb10 46 0 std::__1::__fs::filesystem::__is_pathable_char_array<char[260],char *,char,1>::__range_end(char const*)
FUNC 1eb60 50 0 std::__1::__list_imp<std::__1::__fs::filesystem::path,std::__1::allocator<std::__1::__fs::filesystem::path> >::__list_imp()
FUNC 1ebb0 46 0 std::__1::__list_node_base<std::__1::__fs::filesystem::path,void *>::__list_node_base()
FUNC 1ec00 3b 0 std::__1::__compressed_pair<unsigned long long,std::__1::allocator<std::__1::__list_node<std::__1::__fs::filesystem::path,void *> > >::__compressed_pair<int,std::__1::__default_init_tag>(int&&, std::__1::__default_init_tag&&)
FUNC 1ec40 1d 0 std::__1::__compressed_pair_elem<std::__1::allocator<std::__1::__list_node<std::__1::__fs::filesystem::path,void *> >,1,1>::__compressed_pair_elem(std::__1::__default_init_tag)
FUNC 1ec60 19 0 std::__1::allocator<std::__1::__list_node<std::__1::__fs::filesystem::path,void *> >::allocator()
FUNC 1ec80 7 0 std::__1::__non_trivial_if<1,std::__1::allocator<std::__1::__list_node<std::__1::__fs::filesystem::path,void *> > >::__non_trivial_if()
FUNC 1ec90 4f 0 std::__1::__fs::filesystem::_PathCVT<char>::__append_source<const char *>(std::__1::basic_string<wchar_t,std::__1::char_traits<wchar_t>,std::__1::allocator<wchar_t> >&, char const* const&)
FUNC 1ece0 b 0 std::__1::__fs::filesystem::__is_pathable_char_array<const char *,const char *,char,1>::__range_begin(char const*)
FUNC 1ecf0 46 0 std::__1::__fs::filesystem::__is_pathable_char_array<const char *,const char *,char,1>::__range_end(char const*)
FUNC 1ed40 49 0 std::__1::__fs::filesystem::_PathCVT<char>::__append_source<char[9]>(std::__1::basic_string<wchar_t,std::__1::char_traits<wchar_t>,std::__1::allocator<wchar_t> >&, char[9] const&)
FUNC 1ed90 b 0 std::__1::__fs::filesystem::__is_pathable_char_array<char[9],char *,char,1>::__range_begin(char const*)
FUNC 1eda0 46 0 std::__1::__fs::filesystem::__is_pathable_char_array<char[9],char *,char,1>::__range_end(char const*)
FUNC 1edf0 7d 0 std::__1::list<std::__1::__fs::filesystem::path,std::__1::allocator<std::__1::__fs::filesystem::path> >::__allocate_node(std::__1::allocator<std::__1::__list_node<std::__1::__fs::filesystem::path,void *> >&)
FUNC 1ee70 28 0 std::__1::allocator_traits<std::__1::allocator<std::__1::__list_node<std::__1::__fs::filesystem::path,void *> > >::construct<std::__1::__fs::filesystem::path,std::__1::__fs::filesystem::path,void,void>(std::__1::allocator<std::__1::__list_node<std::__1::__fs::filesystem::path,void *> >&, std::__1::__fs::filesystem::path*, std::__1::__fs::filesystem::path&&)
FUNC 1eea0 1b 0 std::__1::unique_ptr<std::__1::__list_node<std::__1::__fs::filesystem::path,void *>,std::__1::__allocator_destructor<std::__1::allocator<std::__1::__list_node<std::__1::__fs::filesystem::path,void *> > > >::operator->() const
FUNC 1eec0 5c 0 std::__1::list<std::__1::__fs::filesystem::path,std::__1::allocator<std::__1::__fs::filesystem::path> >::__link_nodes_at_back(std::__1::__list_node_base<std::__1::__fs::filesystem::path,void *>*, std::__1::__list_node_base<std::__1::__fs::filesystem::path,void *>*)
FUNC 1ef20 1b 0 std::__1::unique_ptr<std::__1::__list_node<std::__1::__fs::filesystem::path,void *>,std::__1::__allocator_destructor<std::__1::allocator<std::__1::__list_node<std::__1::__fs::filesystem::path,void *> > > >::get() const
FUNC 1ef40 19 0 std::__1::__list_node<std::__1::__fs::filesystem::path,void *>::__as_link()
FUNC 1ef60 3b 0 std::__1::unique_ptr<std::__1::__list_node<std::__1::__fs::filesystem::path,void *>,std::__1::__allocator_destructor<std::__1::allocator<std::__1::__list_node<std::__1::__fs::filesystem::path,void *> > > >::release()
FUNC 1efa0 1d 0 std::__1::unique_ptr<std::__1::__list_node<std::__1::__fs::filesystem::path,void *>,std::__1::__allocator_destructor<std::__1::allocator<std::__1::__list_node<std::__1::__fs::filesystem::path,void *> > > >::~unique_ptr()
FUNC 1efc0 23 0 std::__1::allocator_traits<std::__1::allocator<std::__1::__list_node<std::__1::__fs::filesystem::path,void *> > >::allocate(std::__1::allocator<std::__1::__list_node<std::__1::__fs::filesystem::path,void *> >&, unsigned long long)
FUNC 1eff0 2c 0 std::__1::__allocator_destructor<std::__1::allocator<std::__1::__list_node<std::__1::__fs::filesystem::path,void *> > >::__allocator_destructor(std::__1::allocator<std::__1::__list_node<std::__1::__fs::filesystem::path,void *> >&, unsigned long long)
FUNC 1f020 3a 0 std::__1::unique_ptr<std::__1::__list_node<std::__1::__fs::filesystem::path,void *>,std::__1::__allocator_destructor<std::__1::allocator<std::__1::__list_node<std::__1::__fs::filesystem::path,void *> > > >::unique_ptr<1,void>(std::__1::__list_node<std::__1::__fs::filesystem::path,void *>*, std::__1::__allocator_destructor<std::__1::allocator<std::__1::__list_node<std::__1::__fs::filesystem::path,void *> > >&&)
FUNC 1f060 4e 0 std::__1::allocator<std::__1::__list_node<std::__1::__fs::filesystem::path,void *> >::allocate(unsigned long long)
FUNC 1f0b0 1d 0 std::__1::allocator_traits<std::__1::allocator<std::__1::__list_node<std::__1::__fs::filesystem::path,void *> > >::max_size<std::__1::allocator<std::__1::__list_node<std::__1::__fs::filesystem::path,void *> >,void,void>(std::__1::allocator<std::__1::__list_node<std::__1::__fs::filesystem::path,void *> > const&)
FUNC 1f0d0 40 0 std::__1::__compressed_pair<std::__1::__list_node<std::__1::__fs::filesystem::path,void *> *,std::__1::__allocator_destructor<std::__1::allocator<std::__1::__list_node<std::__1::__fs::filesystem::path,void *> > > >::__compressed_pair<std::__1::__list_node<std::__1::__fs::filesystem::path,void *> *&,std::__1::__allocator_destructor<std::__1::allocator<std::__1::__list_node<std::__1::__fs::filesystem::path,void *> > > >(std::__1::__list_node<std::__1::__fs::filesystem::path,void *>*&, std::__1::__allocator_destructor<std::__1::allocator<std::__1::__list_node<std::__1::__fs::filesystem::path,void *> > >&&)
FUNC 1f110 21 0 std::__1::__compressed_pair_elem<std::__1::__list_node<std::__1::__fs::filesystem::path,void *> *,0,0>::__compressed_pair_elem<std::__1::__list_node<std::__1::__fs::filesystem::path,void *> *&,void>(std::__1::__list_node<std::__1::__fs::filesystem::path,void *>*&)
FUNC 1f140 29 0 std::__1::__compressed_pair_elem<std::__1::__allocator_destructor<std::__1::allocator<std::__1::__list_node<std::__1::__fs::filesystem::path,void *> > >,1,0>::__compressed_pair_elem<std::__1::__allocator_destructor<std::__1::allocator<std::__1::__list_node<std::__1::__fs::filesystem::path,void *> > >,void>(std::__1::__allocator_destructor<std::__1::allocator<std::__1::__list_node<std::__1::__fs::filesystem::path,void *> > >&&)
FUNC 1f170 36 0 std::__1::construct_at<std::__1::__fs::filesystem::path,std::__1::__fs::filesystem::path,std::__1::__fs::filesystem::path *>(std::__1::__fs::filesystem::path*, std::__1::__fs::filesystem::path&&)
FUNC 1f1b0 19 0 std::__1::__compressed_pair<std::__1::__list_node<std::__1::__fs::filesystem::path,void *> *,std::__1::__allocator_destructor<std::__1::allocator<std::__1::__list_node<std::__1::__fs::filesystem::path,void *> > > >::first() const
FUNC 1f1d0 b 0 std::__1::__compressed_pair_elem<std::__1::__list_node<std::__1::__fs::filesystem::path,void *> *,0,0>::__get() const
FUNC 1f1e0 19 0 std::__1::__compressed_pair<std::__1::__list_node<std::__1::__fs::filesystem::path,void *> *,std::__1::__allocator_destructor<std::__1::allocator<std::__1::__list_node<std::__1::__fs::filesystem::path,void *> > > >::first()
FUNC 1f200 b 0 std::__1::__compressed_pair_elem<std::__1::__list_node<std::__1::__fs::filesystem::path,void *> *,0,0>::__get()
FUNC 1f210 6a 0 std::__1::unique_ptr<std::__1::__list_node<std::__1::__fs::filesystem::path,void *>,std::__1::__allocator_destructor<std::__1::allocator<std::__1::__list_node<std::__1::__fs::filesystem::path,void *> > > >::reset(std::__1::__list_node<std::__1::__fs::filesystem::path,void *>*)
FUNC 1f280 1d 0 std::__1::__compressed_pair<std::__1::__list_node<std::__1::__fs::filesystem::path,void *> *,std::__1::__allocator_destructor<std::__1::allocator<std::__1::__list_node<std::__1::__fs::filesystem::path,void *> > > >::second()
FUNC 1f2a0 2a 0 std::__1::__allocator_destructor<std::__1::allocator<std::__1::__list_node<std::__1::__fs::filesystem::path,void *> > >::operator()(std::__1::__list_node<std::__1::__fs::filesystem::path,void *>*)
FUNC 1f2d0 b 0 std::__1::__compressed_pair_elem<std::__1::__allocator_destructor<std::__1::allocator<std::__1::__list_node<std::__1::__fs::filesystem::path,void *> > >,1,0>::__get()
FUNC 1f2e0 28 0 std::__1::allocator_traits<std::__1::allocator<std::__1::__list_node<std::__1::__fs::filesystem::path,void *> > >::construct<std::__1::__fs::filesystem::path,const char *const &,void,void>(std::__1::allocator<std::__1::__list_node<std::__1::__fs::filesystem::path,void *> >&, std::__1::__fs::filesystem::path*, char const* const&)
FUNC 1f310 39 0 std::__1::construct_at<std::__1::__fs::filesystem::path,const char *const &,std::__1::__fs::filesystem::path *>(std::__1::__fs::filesystem::path*, char const* const&)
FUNC 1f350 49 0 std::__1::__fs::filesystem::_PathCVT<char>::__append_source<char[6]>(std::__1::basic_string<wchar_t,std::__1::char_traits<wchar_t>,std::__1::allocator<wchar_t> >&, char[6] const&)
FUNC 1f3a0 b 0 std::__1::__fs::filesystem::__is_pathable_char_array<char[6],char *,char,1>::__range_begin(char const*)
FUNC 1f3b0 46 0 std::__1::__fs::filesystem::__is_pathable_char_array<char[6],char *,char,1>::__range_end(char const*)
FUNC 1f400 11 0 std::__1::allocator_traits<std::__1::allocator<std::__1::__list_node<std::__1::__fs::filesystem::path,void *> > >::select_on_container_copy_construction<std::__1::allocator<std::__1::__list_node<std::__1::__fs::filesystem::path,void *> >,void,void>(std::__1::allocator<std::__1::__list_node<std::__1::__fs::filesystem::path,void *> > const&)
FUNC 1f420 1d 0 std::__1::__list_imp<std::__1::__fs::filesystem::path,std::__1::allocator<std::__1::__fs::filesystem::path> >::__node_alloc() const
FUNC 1f440 55 0 std::__1::__list_imp<std::__1::__fs::filesystem::path,std::__1::allocator<std::__1::__fs::filesystem::path> >::__list_imp(std::__1::allocator<std::__1::__list_node<std::__1::__fs::filesystem::path,void *> >&&)
FUNC 1f4a0 22 0 std::__1::list<std::__1::__fs::filesystem::path,std::__1::allocator<std::__1::__fs::filesystem::path> >::begin() const
FUNC 1f4d0 22 0 std::__1::list<std::__1::__fs::filesystem::path,std::__1::allocator<std::__1::__fs::filesystem::path> >::end() const
FUNC 1f500 29 0 std::__1::operator!=(std::__1::__list_const_iterator<std::__1::__fs::filesystem::path,void *> const&, std::__1::__list_const_iterator<std::__1::__fs::filesystem::path,void *> const&)
FUNC 1f530 1f 0 std::__1::__list_const_iterator<std::__1::__fs::filesystem::path,void *>::operator*() const
FUNC 1f550 15 0 std::__1::__list_const_iterator<std::__1::__fs::filesystem::path,void *>::operator++()
FUNC 1f570 19 0 std::__1::__compressed_pair<unsigned long long,std::__1::allocator<std::__1::__list_node<std::__1::__fs::filesystem::path,void *> > >::second() const
FUNC 1f590 b 0 std::__1::__compressed_pair_elem<std::__1::allocator<std::__1::__list_node<std::__1::__fs::filesystem::path,void *> >,1,1>::__get() const
FUNC 1f5a0 3c 0 std::__1::__compressed_pair<unsigned long long,std::__1::allocator<std::__1::__list_node<std::__1::__fs::filesystem::path,void *> > >::__compressed_pair<int,std::__1::allocator<std::__1::__list_node<std::__1::__fs::filesystem::path,void *> > >(int&&, std::__1::allocator<std::__1::__list_node<std::__1::__fs::filesystem::path,void *> >&&)
FUNC 1f5e0 12 0 std::__1::__compressed_pair_elem<std::__1::allocator<std::__1::__list_node<std::__1::__fs::filesystem::path,void *> >,1,1>::__compressed_pair_elem<std::__1::allocator<std::__1::__list_node<std::__1::__fs::filesystem::path,void *> >,void>(std::__1::allocator<std::__1::__list_node<std::__1::__fs::filesystem::path,void *> >&&)
FUNC 1f600 26 0 std::__1::__list_imp<std::__1::__fs::filesystem::path,std::__1::allocator<std::__1::__fs::filesystem::path> >::begin() const
FUNC 1f630 1e 0 std::__1::__list_const_iterator<std::__1::__fs::filesystem::path,void *>::__list_const_iterator(std::__1::__list_node_base<std::__1::__fs::filesystem::path,void *>*)
FUNC 1f650 2a 0 std::__1::__list_imp<std::__1::__fs::filesystem::path,std::__1::allocator<std::__1::__fs::filesystem::path> >::end() const
FUNC 1f680 29 0 std::__1::operator==(std::__1::__list_const_iterator<std::__1::__fs::filesystem::path,void *> const&, std::__1::__list_const_iterator<std::__1::__fs::filesystem::path,void *> const&)
FUNC 1f6b0 26 0 std::__1::__list_imp<std::__1::__fs::filesystem::path,std::__1::allocator<std::__1::__fs::filesystem::path> >::begin()
FUNC 1f6e0 1e 0 std::__1::__list_iterator<std::__1::__fs::filesystem::path,void *>::__list_iterator(std::__1::__list_node_base<std::__1::__fs::filesystem::path,void *>*)
FUNC 1f700 2a 0 std::__1::__list_imp<std::__1::__fs::filesystem::path,std::__1::allocator<std::__1::__fs::filesystem::path> >::end()
FUNC 1f730 28 0 std::__1::allocator_traits<std::__1::allocator<std::__1::__list_node<std::__1::__fs::filesystem::path,void *> > >::construct<std::__1::__fs::filesystem::path,const std::__1::__fs::filesystem::path &,void,void>(std::__1::allocator<std::__1::__list_node<std::__1::__fs::filesystem::path,void *> >&, std::__1::__fs::filesystem::path*, std::__1::__fs::filesystem::path const&)
FUNC 1f760 36 0 std::__1::construct_at<std::__1::__fs::filesystem::path,const std::__1::__fs::filesystem::path &,std::__1::__fs::filesystem::path *>(std::__1::__fs::filesystem::path*, std::__1::__fs::filesystem::path const&)
FUNC 1f7a0 49 0 std::__1::__fs::filesystem::_PathCVT<char>::__append_source<char[5]>(std::__1::basic_string<wchar_t,std::__1::char_traits<wchar_t>,std::__1::allocator<wchar_t> >&, char[5] const&)
FUNC 1f7f0 b 0 std::__1::__fs::filesystem::__is_pathable_char_array<char[5],char *,char,1>::__range_begin(char const*)
FUNC 1f800 46 0 std::__1::__fs::filesystem::__is_pathable_char_array<char[5],char *,char,1>::__range_end(char const*)
PUBLIC m 1f850 0 ZN4base8FilePathC1Ev
PUBLIC m 1f870 0 ZN4base8FilePathC1ERKS0_
PUBLIC m 1f8a0 0 ZN4base8FilePathC1ERKNSt3__112basic_stringIwNS1_11char_traitsIwEENS1_9allocatorIwEEEE
PUBLIC m 1f940 0 ZN4base8FilePathD1Ev
PUBLIC 1f960 0 ZN4base8FilePathaSERKS0_
PUBLIC 1f990 0 ZNK4base8FilePatheqERKS0_
PUBLIC 1fb40 0 ZNK4base8FilePathneERKS0_
PUBLIC 1fb70 0 ZN4base8FilePath11IsSeparatorEw
PUBLIC 1fc00 0 ZNK4base8FilePath7DirNameEv
PUBLIC 1fe10 0 ZN4base8FilePath31StripTrailingSeparatorsInternalEv
PUBLIC 1fff0 0 ZNK4base8FilePath8BaseNameEv
PUBLIC 20160 0 ZNK4base8FilePath14FinalExtensionEv
PUBLIC 202f0 0 ZNK4base8FilePath20RemoveFinalExtensionEv
PUBLIC 20460 0 ZNK4base8FilePath6AppendERKNSt3__112basic_stringIwNS1_11char_traitsIwEENS1_9allocatorIwEEEE
PUBLIC 20990 0 ZNK4base8FilePath6AppendERKS0_
PUBLIC 209e0 0 ZNK4base8FilePath10IsAbsoluteEv
PUBLIC 20a00 0 Z7PrintToRKN4base8FilePathEPNSt3__113basic_ostreamIcNS3_11char_traitsIcEEEE
PUBLIC 20a40 0 ZN4base4sizeIwLy3EEEyRAT0__KT_
PUBLIC 20a50 0 ZNSt3__112basic_stringIwNS_11char_traitsIwEENS_9allocatorIwEEEixB7v170001Ey
PUBLIC 20a80 0 ZNKSt3__112basic_stringIwNS_11char_traitsIwEENS_9allocatorIwEEE6lengthB7v170001Ev
PUBLIC 20aa0 0 ZNSt3__112basic_stringIwNS_11char_traitsIwEENS_9allocatorIwEEEaSB7v170001EPKw
PUBLIC 20ad0 0 ZNK4base8FilePath5valueEv
PUBLIC 20ae0 0 ZNSt3__1eqB7v170001IwNS_11char_traitsIwEENS_9allocatorIwEEEEbRKNS_12basic_stringIT_T0_T1_EEPKS6_
PUBLIC 20b90 0 ZNKSt3__112basic_stringIwNS_11char_traitsIwEENS_9allocatorIwEEE6substrB7v170001Eyy
PUBLIC 20c10 0 ZN7logging17LogMessageVoidifyC2Ev
PUBLIC 20c20 0 ZNK7logging17LogMessageVoidifyanERKNSt3__113basic_ostreamIcNS1_11char_traitsIcEEEE
PUBLIC 20c40 0 ZNSt3__112basic_stringIwNS_11char_traitsIwEENS_9allocatorIwEEE6appendB7v170001ERKS5_
PUBLIC 20c90 0 ZNSt3__1eqB7v170001IwNS_11char_traitsIwEENS_9allocatorIwEEEEbRKNS_12basic_stringIT_T0_T1_EESB_
PUBLIC 20d20 0 ZNKSt3__112basic_stringIwNS_11char_traitsIwEENS_9allocatorIwEEEixB7v170001Ey
PUBLIC m 20d50 0 ZN8crashpad22CrashReportDatabaseWinC1ERKN4base8FilePathE
PUBLIC m 20e40 0 ZN8crashpad22CrashReportDatabaseWinD1Ev
PUBLIC 20ea0 0 ZN8crashpad22CrashReportDatabaseWinD0Ev
PUBLIC 20ed0 0 ZN8crashpad22CrashReportDatabaseWin10InitializeEb
PUBLIC 21940 0 ZN8crashpad22CrashReportDatabaseWin12DatabasePathEv
PUBLIC 21970 0 ZN8crashpad22CrashReportDatabaseWin11GetSettingsEv
PUBLIC 21a70 0 ZN8crashpad22CrashReportDatabaseWin21PrepareNewCrashReportEPNSt3__110unique_ptrINS_19CrashReportDatabase9NewReportENS1_14default_deleteIS4_EEEE
PUBLIC 21e00 0 ZN8crashpad22CrashReportDatabaseWin26FinishedWritingCrashReportENSt3__110unique_ptrINS_19CrashReportDatabase9NewReportENS1_14default_deleteIS4_EEEEPNS_4UUIDE
PUBLIC 227c0 0 ZN8crashpad22CrashReportDatabaseWin17LookUpCrashReportERKNS_4UUIDEPNS_19CrashReportDatabase6ReportE
PUBLIC 22a90 0 ZN8crashpad22CrashReportDatabaseWin17GetPendingReportsEPNSt3__16vectorINS_19CrashReportDatabase6ReportENS1_9allocatorIS4_EEEE
PUBLIC 22e50 0 ZN8crashpad22CrashReportDatabaseWin19GetCompletedReportsEPNSt3__16vectorINS_19CrashReportDatabase6ReportENS1_9allocatorIS4_EEEE
PUBLIC 22fe0 0 ZN8crashpad22CrashReportDatabaseWin21GetReportForUploadingERKNS_4UUIDEPNSt3__110unique_ptrIKNS_19CrashReportDatabase12UploadReportENS4_14default_deleteIS8_EEEEb
PUBLIC 23480 0 ZN8crashpad22CrashReportDatabaseWin19RecordUploadAttemptEPNS_19CrashReportDatabase12UploadReportEbRKNSt3__112basic_stringIcNS4_11char_traitsIcEENS4_9allocatorIcEEEE
PUBLIC 237a0 0 ZN8crashpad22CrashReportDatabaseWin12DeleteReportERKNS_4UUIDE
PUBLIC 23db0 0 ZN8crashpad22CrashReportDatabaseWin16SkipReportUploadERKNS_4UUIDENS_7Metrics18CrashSkippedReasonE
PUBLIC 23f90 0 ZN8crashpad18InitializeInternalERKN4base8FilePathEb
PUBLIC 240c0 0 ZN8crashpad22CrashReportDatabaseWin13RequestUploadERKNS_4UUIDE
PUBLIC 24310 0 ZN8crashpad22CrashReportDatabaseWin13CleanDatabaseEx
PUBLIC 24980 0 ZN8crashpad22CrashReportDatabaseWin24CleanOrphanedAttachmentsEv
PUBLIC 24f60 0 ZN8crashpad19CrashReportDatabase10InitializeERKN4base8FilePathE
PUBLIC 24f90 0 ZN8crashpad19CrashReportDatabase25InitializeWithoutCreatingERKN4base8FilePathE
PUBLIC 2bc80 0 ZN8crashpad19CrashReportDatabaseC2Ev
PUBLIC 2bca0 0 ZNSt3__19once_flagC2B7v170001Ev
PUBLIC 2bcc0 0 ZN8crashpad25InitializationStateDcheckC2Ev
PUBLIC 2bce0 0 ZN8crashpad25InitializationStateDcheckD2Ev
PUBLIC 2bd00 0 ZN7logging11CheckEQImplIN8crashpad19InitializationState5StateES3_EEPNSt3__112basic_stringIcNS4_11char_traitsIcEENS4_9allocatorIcEEEERKT_RKT0_PKc
PUBLIC 2bd60 0 ZNSt3__112basic_stringIwNS_11char_traitsIwEENS_9allocatorIwEEEC2B7v170001ILi0EEEPKw
PUBLIC 2bdc0 0 ZNK8crashpad25InitializationStateDcheck5stateEv
PUBLIC 2bde0 0 ZN8crashpad22CrashReportDatabaseWin16SettingsInternalEv
PUBLIC 2be20 0 ZNSt3__110unique_ptrIN8crashpad19CrashReportDatabase9NewReportENS_14default_deleteIS3_EEEC2B7v170001ILb1EvEEPS3_
PUBLIC 2be60 0 ZNKSt3__110unique_ptrIN8crashpad19CrashReportDatabase9NewReportENS_14default_deleteIS3_EEEptB7v170001Ev
PUBLIC 2be80 0 ZNSt3__1plB7v170001IwNS_11char_traitsIwEENS_9allocatorIwEEEENS_12basic_stringIT_T0_T1_EEOS9_PKS6_
PUBLIC 2bed0 0 ZNSt3__110unique_ptrIN8crashpad19CrashReportDatabase9NewReportENS_14default_deleteIS3_EEE5resetB7v170001EPS3_
PUBLIC 2bf40 0 ZNSt3__110unique_ptrIN8crashpad19CrashReportDatabase9NewReportENS_14default_deleteIS3_EEE7releaseB7v170001Ev
PUBLIC 2bf80 0 ZNSt3__110unique_ptrIN8crashpad19CrashReportDatabase9NewReportENS_14default_deleteIS3_EEED2B7v170001Ev
PUBLIC 2bfa0 0 ZNK8crashpad19CrashReportDatabase9NewReport8ReportIDEv
PUBLIC 2bfb0 0 ZNK4base13ScopedGenericINS_8FilePathEN8crashpad22ScopedRemoveFileTraitsEE3getEv
PUBLIC 2bfc0 0 ZN4base13ScopedGenericINS_8FilePathEN8crashpad22ScopedRemoveFileTraitsEE7releaseEv
PUBLIC 2c090 0 ZNKSt3__110__ignore_tIhEaSB7v170001IN4base8FilePathEEERKS1_OT_
PUBLIC 2c0b0 0 ZNSt3__16vectorINS_10unique_ptrIN8crashpad10FileWriterENS_14default_deleteIS3_EEEENS_9allocatorIS6_EEE5beginB7v170001Ev
PUBLIC 2c0e0 0 ZNSt3__16vectorINS_10unique_ptrIN8crashpad10FileWriterENS_14default_deleteIS3_EEEENS_9allocatorIS6_EEE3endB7v170001Ev
PUBLIC 2c110 0 ZNSt3__1neB7v170001IPNS_10unique_ptrIN8crashpad10FileWriterENS_14default_deleteIS3_EEEEEEbRKNS_11__wrap_iterIT_EESC_
PUBLIC 2c140 0 ZNKSt3__111__wrap_iterIPNS_10unique_ptrIN8crashpad10FileWriterENS_14default_deleteIS3_EEEEEdeB7v170001Ev
PUBLIC 2c150 0 ZNKSt3__110unique_ptrIN8crashpad10FileWriterENS_14default_deleteIS2_EEEptB7v170001Ev
PUBLIC 2c170 0 ZNSt3__111__wrap_iterIPNS_10unique_ptrIN8crashpad10FileWriterENS_14default_deleteIS3_EEEEEppB7v170001Ev
PUBLIC 2c190 0 ZNSt3__16vectorIN4base13ScopedGenericINS1_8FilePathEN8crashpad22ScopedRemoveFileTraitsEEENS_9allocatorIS6_EEE5beginB7v170001Ev
PUBLIC 2c1c0 0 ZNSt3__16vectorIN4base13ScopedGenericINS1_8FilePathEN8crashpad22ScopedRemoveFileTraitsEEENS_9allocatorIS6_EEE3endB7v170001Ev
PUBLIC 2c1f0 0 ZNSt3__1neB7v170001IPN4base13ScopedGenericINS1_8FilePathEN8crashpad22ScopedRemoveFileTraitsEEEEEbRKNS_11__wrap_iterIT_EESC_
PUBLIC 2c220 0 ZNKSt3__111__wrap_iterIPN4base13ScopedGenericINS1_8FilePathEN8crashpad22ScopedRemoveFileTraitsEEEEdeB7v170001Ev
PUBLIC 2c230 0 ZNSt3__111__wrap_iterIPN4base13ScopedGenericINS1_8FilePathEN8crashpad22ScopedRemoveFileTraitsEEEEppB7v170001Ev
PUBLIC 2c250 0 ZNK8crashpad19CrashReportDatabase9NewReport6WriterEv
PUBLIC 2c270 0 ZN8crashpad19CrashReportDatabase6ReportaSERKS1_
PUBLIC 2c2f0 0 ZNSt3__111make_uniqueB7v170001IN8crashpad19CrashReportDatabase12UploadReportEJEEENS_11__unique_ifIT_E15__unique_singleEDpOT0_
PUBLIC 2c370 0 ZN8crashpad13implicit_castIPNS_19CrashReportDatabase6ReportEPNS1_12UploadReportEEET_RKT0_
PUBLIC 2c3b0 0 ZNKSt3__110unique_ptrIN8crashpad19CrashReportDatabase12UploadReportENS_14default_deleteIS3_EEE3getB7v170001Ev
PUBLIC 2c3d0 0 ZNKSt3__110unique_ptrIN8crashpad19CrashReportDatabase12UploadReportENS_14default_deleteIS3_EEEptB7v170001Ev
PUBLIC 2c3f0 0 ZNSt3__110unique_ptrIKN8crashpad19CrashReportDatabase12UploadReportENS_14default_deleteIS4_EEE5resetB7v170001EPS4_
PUBLIC 2c460 0 ZNSt3__110unique_ptrIN8crashpad19CrashReportDatabase12UploadReportENS_14default_deleteIS3_EEE7releaseB7v170001Ev
PUBLIC 2c4a0 0 ZNSt3__110unique_ptrIN8crashpad19CrashReportDatabase12UploadReportENS_14default_deleteIS3_EEED2B7v170001Ev
PUBLIC 2c4c0 0 ZN4base16BasicStringPieceINSt3__112basic_stringIwNS1_11char_traitsIwEENS1_9allocatorIwEEEEEC2ERKS7_
PUBLIC 2c510 0 ZNSt3__110unique_ptrIN8crashpad22CrashReportDatabaseWinENS_14default_deleteIS2_EEEC2B7v170001ILb1EvEEPS2_
PUBLIC 2c550 0 ZNKSt3__110unique_ptrIN8crashpad22CrashReportDatabaseWinENS_14default_deleteIS2_EEEptB7v170001Ev
PUBLIC 2c570 0 ZNSt3__110unique_ptrIN8crashpad22CrashReportDatabaseWinENS_14default_deleteIS2_EEEC2B7v170001EOS5_
PUBLIC 2c5d0 0 ZNSt3__110unique_ptrIN8crashpad22CrashReportDatabaseWinENS_14default_deleteIS2_EEEC2B7v170001ILb1EvEEv
PUBLIC 2c600 0 ZNSt3__110unique_ptrIN8crashpad19CrashReportDatabaseENS_14default_deleteIS2_EEEC2B7v170001INS1_22CrashReportDatabaseWinENS3_IS7_EEvvEEONS0_IT_T0_EE
PUBLIC 2c660 0 ZNSt3__110unique_ptrIN8crashpad22CrashReportDatabaseWinENS_14default_deleteIS2_EEED2B7v170001Ev
PUBLIC 2c680 0 ZN8crashpad19CrashReportDatabaseD2Ev
PUBLIC 2c690 0 ZN8crashpad19CrashReportDatabaseD0Ev
PUBLIC 2c6a0 0 ZN8crashpad19CrashReportDatabase13CleanDatabaseEx
PUBLIC 2c6c0 0 ZN8crashpad19InitializationStateC2Ev
PUBLIC 2c6d0 0 ZN8crashpad19InitializationStateD2Ev
PUBLIC 2c6e0 0 ZNK8crashpad19InitializationState5stateEv
PUBLIC 2c6f0 0 ZNSt3__19call_onceB7v170001IZN8crashpad22CrashReportDatabaseWin16SettingsInternalEvEUlvE_JEEEvRNS_9once_flagEOT_DpOT0_
PUBLIC 2c750 0 ZNSt3__121__libcpp_acquire_loadB7v170001ImEET_PKS1_
PUBLIC 2c770 0 ZNSt3__15tupleIJOZN8crashpad22CrashReportDatabaseWin16SettingsInternalEvEUlvE_EEC2B7v170001IJS3_ELi0EEEDpOT_
PUBLIC 2c7b0 0 ZNSt3__117__call_once_paramINS_5tupleIJOZN8crashpad22CrashReportDatabaseWin16SettingsInternalEvEUlvE_EEEEC2B7v170001ERS6_
PUBLIC 2c7d0 0 ZNSt3__117__call_once_proxyB7v170001INS_5tupleIJOZN8crashpad22CrashReportDatabaseWin16SettingsInternalEvEUlvE_EEEEEvPv
PUBLIC 2c800 0 ZNSt3__112__tuple_implINS_15__tuple_indicesIJLy0EEEEJOZN8crashpad22CrashReportDatabaseWin16SettingsInternalEvEUlvE_EEC2B7v170001IJLy0EEJS6_EJEJEJS5_EEENS1_IJXspT_EEEENS_13__tuple_typesIJDpT0_EEENS1_IJXspT1_EEEENSA_IJDpT2_EEEDpOT3_
PUBLIC 2c840 0 ZNSt3__112__tuple_leafILy0EOZN8crashpad22CrashReportDatabaseWin16SettingsInternalEvEUlvE_Lb0EEC2B7v170001IS3_vEEOT_
PUBLIC 2c860 0 ZNSt3__117__call_once_paramINS_5tupleIJOZN8crashpad22CrashReportDatabaseWin16SettingsInternalEvEUlvE_EEEEclB7v170001Ev
PUBLIC 2c880 0 ZNSt3__117__call_once_paramINS_5tupleIJOZN8crashpad22CrashReportDatabaseWin16SettingsInternalEvEUlvE_EEEE9__executeB7v170001IJEEEvNS_15__tuple_indicesIJXspT_EEEE
PUBLIC 2c8b0 0 ZNSt3__18__invokeB7v170001IZN8crashpad22CrashReportDatabaseWin16SettingsInternalEvEUlvE_JEEEDTclclsr3stdE7declvalIT_EEspclsr3stdE7declvalIT0_EEEEOS4_DpOS5_
PUBLIC 2c8d0 0 ZNSt3__13getB7v170001ILy0EJOZN8crashpad22CrashReportDatabaseWin16SettingsInternalEvEUlvE_EEEONS_13tuple_elementIXT_ENS_5tupleIJDpT0_EEEE4typeEOS9_
PUBLIC 2c8f0 0 ZZN8crashpad22CrashReportDatabaseWin16SettingsInternalEvENKUlvE_clEv
PUBLIC 2c9c0 0 ZNSt3__112__tuple_leafILy0EOZN8crashpad22CrashReportDatabaseWin16SettingsInternalEvEUlvE_Lb0EE3getB7v170001Ev
PUBLIC 2c9d0 0 ZNSt3__1eqB7v170001IPNS_10unique_ptrIN8crashpad10FileWriterENS_14default_deleteIS3_EEEEEEbRKNS_11__wrap_iterIT_EESC_
PUBLIC 2ca10 0 ZNKSt3__111__wrap_iterIPNS_10unique_ptrIN8crashpad10FileWriterENS_14default_deleteIS3_EEEEE4baseB7v170001Ev
PUBLIC 2ca20 0 ZNSt3__1eqB7v170001IPN4base13ScopedGenericINS1_8FilePathEN8crashpad22ScopedRemoveFileTraitsEEEEEbRKNS_11__wrap_iterIT_EESC_
PUBLIC 2ca60 0 ZNKSt3__111__wrap_iterIPN4base13ScopedGenericINS1_8FilePathEN8crashpad22ScopedRemoveFileTraitsEEEE4baseB7v170001Ev
PUBLIC 2ca70 0 ZNKSt3__110unique_ptrIN8crashpad10FileWriterENS_14default_deleteIS2_EEE3getB7v170001Ev
PUBLIC 2ca90 0 ZNKSt3__117__compressed_pairIPN8crashpad10FileWriterENS_14default_deleteIS2_EEE5firstB7v170001Ev
PUBLIC 2cab0 0 ZNKSt3__122__compressed_pair_elemIPN8crashpad10FileWriterELi0ELb0EE5__getB7v170001Ev
PUBLIC 2cac0 0 ZNKSt3__16vectorIN8crashpad19CrashReportDatabase6ReportENS_9allocatorIS3_EEE5emptyB7v170001Ev
PUBLIC 2cae0 0 ZNSt3__16vectorIN8crashpad19CrashReportDatabase6ReportENS_9allocatorIS3_EEE9push_backB7v170001ERKS3_
PUBLIC 2cb40 0 ZNSt3__16vectorIN8crashpad19CrashReportDatabase6ReportENS_9allocatorIS3_EEE9__end_capB7v170001Ev
PUBLIC 2cb60 0 ZNSt3__16vectorIN8crashpad19CrashReportDatabase6ReportENS_9allocatorIS3_EEE22__construct_one_at_endB7v170001IJRKS3_EEEvDpOT_
PUBLIC 2cc00 0 ZNSt3__16vectorIN8crashpad19CrashReportDatabase6ReportENS_9allocatorIS3_EEE21__push_back_slow_pathIRKS3_EEvOT_
PUBLIC 2ccf0 0 ZNSt3__117__compressed_pairIPN8crashpad19CrashReportDatabase6ReportENS_9allocatorIS3_EEE5firstB7v170001Ev
PUBLIC 2cd10 0 ZNSt3__122__compressed_pair_elemIPN8crashpad19CrashReportDatabase6ReportELi0ELb0EE5__getB7v170001Ev
PUBLIC 2cd20 0 ZNSt3__16vectorIN8crashpad19CrashReportDatabase6ReportENS_9allocatorIS3_EEE21_ConstructTransactionC2B7v170001ERS6_y
PUBLIC 2cd70 0 ZNSt3__116allocator_traitsINS_9allocatorIN8crashpad19CrashReportDatabase6ReportEEEE9constructB7v170001IS4_JRKS4_EvEEvRS5_PT_DpOT0_
PUBLIC 2cda0 0 ZNSt3__16vectorIN8crashpad19CrashReportDatabase6ReportENS_9allocatorIS3_EEE7__allocB7v170001Ev
PUBLIC 2cdc0 0 ZNSt3__112__to_addressB7v170001IN8crashpad19CrashReportDatabase6ReportEEEPT_S5_
PUBLIC 2cdd0 0 ZNSt3__16vectorIN8crashpad19CrashReportDatabase6ReportENS_9allocatorIS3_EEE21_ConstructTransactionD2B7v170001Ev
PUBLIC 2cdf0 0 ZNSt3__19allocatorIN8crashpad19CrashReportDatabase6ReportEE9constructB7v170001IS3_JRKS3_EEEvPT_DpOT0_
PUBLIC 2ce20 0 ZN8crashpad19CrashReportDatabase6ReportC2ERKS1_
PUBLIC 2ced0 0 ZNSt3__117__compressed_pairIPN8crashpad19CrashReportDatabase6ReportENS_9allocatorIS3_EEE6secondB7v170001Ev
PUBLIC 2cef0 0 ZNSt3__122__compressed_pair_elemINS_9allocatorIN8crashpad19CrashReportDatabase6ReportEEELi1ELb1EE5__getB7v170001Ev
PUBLIC 2cf00 0 ZNKSt3__16vectorIN8crashpad19CrashReportDatabase6ReportENS_9allocatorIS3_EEE11__recommendB7v170001Ey
PUBLIC 2cfa0 0 ZNKSt3__16vectorIN8crashpad19CrashReportDatabase6ReportENS_9allocatorIS3_EEE4sizeB7v170001Ev
PUBLIC 2cfc0 0 ZNSt3__114__split_bufferIN8crashpad19CrashReportDatabase6ReportERNS_9allocatorIS3_EEEC2EyyS6_
PUBLIC 2d090 0 ZNSt3__16vectorIN8crashpad19CrashReportDatabase6ReportENS_9allocatorIS3_EEE26__swap_out_circular_bufferERNS_14__split_bufferIS3_RS5_EE
PUBLIC 2d1e0 0 ZNSt3__114__split_bufferIN8crashpad19CrashReportDatabase6ReportERNS_9allocatorIS3_EEED2Ev
PUBLIC 2d260 0 ZNKSt3__16vectorIN8crashpad19CrashReportDatabase6ReportENS_9allocatorIS3_EEE8max_sizeEv
PUBLIC 2d2c0 0 ZNKSt3__16vectorIN8crashpad19CrashReportDatabase6ReportENS_9allocatorIS3_EEE20__throw_length_errorB7v170001Ev
PUBLIC 2d2e0 0 ZNKSt3__16vectorIN8crashpad19CrashReportDatabase6ReportENS_9allocatorIS3_EEE8capacityB7v170001Ev
PUBLIC 2d320 0 ZNSt3__116allocator_traitsINS_9allocatorIN8crashpad19CrashReportDatabase6ReportEEEE8max_sizeB7v170001IS5_vEEyRKS5_
PUBLIC 2d340 0 ZNKSt3__16vectorIN8crashpad19CrashReportDatabase6ReportENS_9allocatorIS3_EEE7__allocB7v170001Ev
PUBLIC 2d360 0 ZNKSt3__19allocatorIN8crashpad19CrashReportDatabase6ReportEE8max_sizeB7v170001Ev
PUBLIC 2d380 0 ZNKSt3__117__compressed_pairIPN8crashpad19CrashReportDatabase6ReportENS_9allocatorIS3_EEE6secondB7v170001Ev
PUBLIC 2d3a0 0 ZNKSt3__122__compressed_pair_elemINS_9allocatorIN8crashpad19CrashReportDatabase6ReportEEELi1ELb1EE5__getB7v170001Ev
PUBLIC 2d3b0 0 ZNKSt3__16vectorIN8crashpad19CrashReportDatabase6ReportENS_9allocatorIS3_EEE9__end_capB7v170001Ev
PUBLIC 2d3d0 0 ZNKSt3__117__compressed_pairIPN8crashpad19CrashReportDatabase6ReportENS_9allocatorIS3_EEE5firstB7v170001Ev
PUBLIC 2d3f0 0 ZNKSt3__122__compressed_pair_elemIPN8crashpad19CrashReportDatabase6ReportELi0ELb0EE5__getB7v170001Ev
PUBLIC 2d400 0 ZNSt3__117__compressed_pairIPN8crashpad19CrashReportDatabase6ReportERNS_9allocatorIS3_EEEC2B7v170001IDnS7_EEOT_OT0_
PUBLIC 2d440 0 ZNSt3__119__allocate_at_leastB7v170001INS_9allocatorIN8crashpad19CrashReportDatabase6ReportEEEEENS_19__allocation_resultINS_16allocator_traitsIT_E7pointerEEERS8_y
PUBLIC 2d490 0 ZNSt3__114__split_bufferIN8crashpad19CrashReportDatabase6ReportERNS_9allocatorIS3_EEE7__allocB7v170001Ev
PUBLIC 2d4b0 0 ZNSt3__114__split_bufferIN8crashpad19CrashReportDatabase6ReportERNS_9allocatorIS3_EEE9__end_capB7v170001Ev
PUBLIC 2d4d0 0 ZNSt3__122__compressed_pair_elemIPN8crashpad19CrashReportDatabase6ReportELi0ELb0EEC2B7v170001IDnvEEOT_
PUBLIC 2d4f0 0 ZNSt3__122__compressed_pair_elemIRNS_9allocatorIN8crashpad19CrashReportDatabase6ReportEEELi1ELb0EEC2B7v170001IS6_vEEOT_
PUBLIC 2d510 0 ZNSt3__19allocatorIN8crashpad19CrashReportDatabase6ReportEE8allocateB7v170001Ey
PUBLIC 2d560 0 ZNSt3__117__compressed_pairIPN8crashpad19CrashReportDatabase6ReportERNS_9allocatorIS3_EEE6secondB7v170001Ev
PUBLIC 2d580 0 ZNSt3__122__compressed_pair_elemIRNS_9allocatorIN8crashpad19CrashReportDatabase6ReportEEELi1ELb0EE5__getB7v170001Ev
PUBLIC 2d590 0 ZNSt3__117__compressed_pairIPN8crashpad19CrashReportDatabase6ReportERNS_9allocatorIS3_EEE5firstB7v170001Ev
PUBLIC 2d5b0 0 ZNKSt3__16vectorIN8crashpad19CrashReportDatabase6ReportENS_9allocatorIS3_EEE17__annotate_deleteB7v170001Ev
PUBLIC 2d680 0 ZNSt3__142__uninitialized_allocator_move_if_noexceptB7v170001INS_9allocatorIN8crashpad19CrashReportDatabase6ReportEEENS_16reverse_iteratorIPS4_EES8_S8_EET2_RT_T0_T1_S9_
PUBLIC 2d820 0 ZNSt3__116reverse_iteratorIPN8crashpad19CrashReportDatabase6ReportEEC2B7v170001ES4_
PUBLIC 2d850 0 ZNKSt3__116reverse_iteratorIPN8crashpad19CrashReportDatabase6ReportEE4baseB7v170001Ev
PUBLIC 2d860 0 ZNSt3__14swapB7v170001IPN8crashpad19CrashReportDatabase6ReportEEENS_9enable_ifIXaasr21is_move_constructibleIT_EE5valuesr18is_move_assignableIS6_EE5valueEvE4typeERS6_S9_
PUBLIC 2d8a0 0 ZNKSt3__16vectorIN8crashpad19CrashReportDatabase6ReportENS_9allocatorIS3_EEE14__annotate_newB7v170001Ey
PUBLIC 2d960 0 ZNKSt3__16vectorIN8crashpad19CrashReportDatabase6ReportENS_9allocatorIS3_EEE31__annotate_contiguous_containerB7v170001EPKvS8_S8_S8_
PUBLIC 2d990 0 ZNKSt3__16vectorIN8crashpad19CrashReportDatabase6ReportENS_9allocatorIS3_EEE4dataB7v170001Ev
PUBLIC 2d9b0 0 ZNSt3__122__make_exception_guardB7v170001INS_29_AllocatorDestroyRangeReverseINS_9allocatorIN8crashpad19CrashReportDatabase6ReportEEENS_16reverse_iteratorIPS5_EEEEEENS_28__exception_guard_exceptionsIT_EESC_
PUBLIC 2da00 0 ZNSt3__129_AllocatorDestroyRangeReverseINS_9allocatorIN8crashpad19CrashReportDatabase6ReportEEENS_16reverse_iteratorIPS4_EEEC2B7v170001ERS5_RS8_SB_
PUBLIC 2da40 0 ZNSt3__1neB7v170001IPN8crashpad19CrashReportDatabase6ReportES4_EEbRKNS_16reverse_iteratorIT_EERKNS5_IT0_EE
PUBLIC 2da80 0 ZNSt3__112__to_addressB7v170001INS_16reverse_iteratorIPN8crashpad19CrashReportDatabase6ReportEEEvEEu7__decayIDTclsr19__to_address_helperIT_EE6__callclsr3stdE7declvalIRKS7_EEEEES9_
PUBLIC 2daa0 0 ZNKSt3__116reverse_iteratorIPN8crashpad19CrashReportDatabase6ReportEEdeB7v170001Ev
PUBLIC 2dad0 0 ZNSt3__116reverse_iteratorIPN8crashpad19CrashReportDatabase6ReportEEppB7v170001Ev
PUBLIC 2daf0 0 ZNSt3__128__exception_guard_exceptionsINS_29_AllocatorDestroyRangeReverseINS_9allocatorIN8crashpad19CrashReportDatabase6ReportEEENS_16reverse_iteratorIPS5_EEEEE10__completeB7v170001Ev
PUBLIC 2db00 0 ZNSt3__128__exception_guard_exceptionsINS_29_AllocatorDestroyRangeReverseINS_9allocatorIN8crashpad19CrashReportDatabase6ReportEEENS_16reverse_iteratorIPS5_EEEEED2B7v170001Ev
PUBLIC 2db40 0 ZNSt3__128__exception_guard_exceptionsINS_29_AllocatorDestroyRangeReverseINS_9allocatorIN8crashpad19CrashReportDatabase6ReportEEENS_16reverse_iteratorIPS5_EEEEEC2B7v170001ESA_
PUBLIC 2db80 0 ZNSt3__119__to_address_helperINS_16reverse_iteratorIPN8crashpad19CrashReportDatabase6ReportEEEvE6__callB7v170001ERKS6_
PUBLIC 2dbc0 0 ZNKSt3__116reverse_iteratorIPN8crashpad19CrashReportDatabase6ReportEEptB7v170001Ev
PUBLIC 2dbe0 0 ZNKSt3__129_AllocatorDestroyRangeReverseINS_9allocatorIN8crashpad19CrashReportDatabase6ReportEEENS_16reverse_iteratorIPS4_EEEclB7v170001Ev
PUBLIC 2dc70 0 ZNSt3__119__allocator_destroyB7v170001INS_9allocatorIN8crashpad19CrashReportDatabase6ReportEEENS_16reverse_iteratorINS6_IPS4_EEEES9_EEvRT_T0_T1_
PUBLIC 2dce0 0 ZNSt3__116reverse_iteratorINS0_IPN8crashpad19CrashReportDatabase6ReportEEEEC2B7v170001ES5_
PUBLIC 2dd20 0 ZNSt3__1neB7v170001INS_16reverse_iteratorIPN8crashpad19CrashReportDatabase6ReportEEES6_EEbRKNS1_IT_EERKNS1_IT0_EE
PUBLIC 2dd70 0 ZNSt3__116allocator_traitsINS_9allocatorIN8crashpad19CrashReportDatabase6ReportEEEE7destroyB7v170001IS4_vEEvRS5_PT_
PUBLIC 2dda0 0 ZNSt3__112__to_addressB7v170001INS_16reverse_iteratorINS1_IPN8crashpad19CrashReportDatabase6ReportEEEEEvEEu7__decayIDTclsr19__to_address_helperIT_EE6__callclsr3stdE7declvalIRKS8_EEEEESA_
PUBLIC 2ddc0 0 ZNSt3__116reverse_iteratorINS0_IPN8crashpad19CrashReportDatabase6ReportEEEEppB7v170001Ev
PUBLIC 2ddf0 0 ZNKSt3__116reverse_iteratorINS0_IPN8crashpad19CrashReportDatabase6ReportEEEE4baseB7v170001Ev
PUBLIC 2de20 0 ZNSt3__19allocatorIN8crashpad19CrashReportDatabase6ReportEE7destroyB7v170001EPS3_
PUBLIC 2de40 0 ZN8crashpad19CrashReportDatabase6ReportD2Ev
PUBLIC 2de70 0 ZNSt3__119__to_address_helperINS_16reverse_iteratorINS1_IPN8crashpad19CrashReportDatabase6ReportEEEEEvE6__callB7v170001ERKS7_
PUBLIC 2deb0 0 ZNKSt3__116reverse_iteratorINS0_IPN8crashpad19CrashReportDatabase6ReportEEEEptB7v170001Ev
PUBLIC 2ded0 0 ZNKSt3__116reverse_iteratorINS0_IPN8crashpad19CrashReportDatabase6ReportEEEEdeB7v170001Ev
PUBLIC 2df10 0 ZNSt3__116reverse_iteratorIPN8crashpad19CrashReportDatabase6ReportEEmmB7v170001Ev
PUBLIC 2df30 0 ZNSt3__114__split_bufferIN8crashpad19CrashReportDatabase6ReportERNS_9allocatorIS3_EEE5clearB7v170001Ev
PUBLIC 2df50 0 ZNSt3__116allocator_traitsINS_9allocatorIN8crashpad19CrashReportDatabase6ReportEEEE10deallocateB7v170001ERS5_PS4_y
PUBLIC 2df80 0 ZNKSt3__114__split_bufferIN8crashpad19CrashReportDatabase6ReportERNS_9allocatorIS3_EEE8capacityB7v170001Ev
PUBLIC 2dfc0 0 ZNSt3__114__split_bufferIN8crashpad19CrashReportDatabase6ReportERNS_9allocatorIS3_EEE17__destruct_at_endB7v170001EPS3_
PUBLIC 2dff0 0 ZNSt3__114__split_bufferIN8crashpad19CrashReportDatabase6ReportERNS_9allocatorIS3_EEE17__destruct_at_endB7v170001EPS3_NS_17integral_constantIbLb0EEE
PUBLIC 2e070 0 ZNSt3__19allocatorIN8crashpad19CrashReportDatabase6ReportEE10deallocateB7v170001EPS3_y
PUBLIC 2e0b0 0 ZNKSt3__114__split_bufferIN8crashpad19CrashReportDatabase6ReportERNS_9allocatorIS3_EEE9__end_capB7v170001Ev
PUBLIC 2e0d0 0 ZNKSt3__117__compressed_pairIPN8crashpad19CrashReportDatabase6ReportERNS_9allocatorIS3_EEE5firstB7v170001Ev
PUBLIC 2e0f0 0 ZN8crashpad19CrashReportDatabase6ReportaSEOS1_
PUBLIC 2e170 0 ZN4base13ScopedGenericIPvN8crashpad8internal27ScopedFileHANDLECloseTraitsEEC2ERKS1_
PUBLIC 2e1a0 0 ZN4base13ScopedGenericIPvN8crashpad8internal27ScopedFileHANDLECloseTraitsEED2Ev
PUBLIC 2e1d0 0 ZN4base13ScopedGenericIPvN8crashpad8internal27ScopedFileHANDLECloseTraitsEE4DataC2ERKS1_
PUBLIC 2e200 0 ZN4base13ScopedGenericIPvN8crashpad8internal27ScopedFileHANDLECloseTraitsEE15FreeIfNecessaryEv
PUBLIC 2e260 0 ZN8crashpad8internal27ScopedFileHANDLECloseTraits12InvalidValueEv
PUBLIC 2e270 0 ZNK4base13ScopedGenericIPvN8crashpad8internal27ScopedFileHANDLECloseTraitsEE3getEv
PUBLIC 2e280 0 ZN4base8internalmlINS0_14CheckedNumericIjEEjLPv0EEENS2_INS0_11MathWrapperINS0_12CheckedMulOpET_T0_E4typeEEES7_S8_
PUBLIC 2e2c0 0 ZN4base8internal14CheckedNumericIjEC2IjEET_
PUBLIC 2e2f0 0 ZNK4base8internal14CheckedNumericIjE7IsValidIjEEbv
PUBLIC 2e350 0 ZNK4base8internal14CheckedNumericIjE10ValueOrDieIjNS0_14CheckOnFailureEEENS0_13StrictNumericIT_EEv
PUBLIC 2e3b0 0 ZNK4base8internal13StrictNumericIjEcvT_IyLPv0EEEv
PUBLIC 2e3c0 0 ZNKSt3__112basic_stringIcNS_11char_traitsIcEENS_9allocatorIcEEE5emptyB7v170001Ev
PUBLIC 2e3f0 0 ZNSt3__112basic_stringIcNS_11char_traitsIcEENS_9allocatorIcEEE4backB7v170001Ev
PUBLIC 2e430 0 ZN7logging11CheckEQImplIxiEEPNSt3__112basic_stringIcNS1_11char_traitsIcEENS1_9allocatorIcEEEERKT_RKT0_PKc
PUBLIC 2e490 0 ZN7logging17MakeCheckOpStringIxiEEPNSt3__112basic_stringIcNS1_11char_traitsIcEENS1_9allocatorIcEEEERKT_RKT0_PKc
PUBLIC 2e620 0 ZN4base8internal14CheckedNumericIjE6MathOpINS0_12CheckedMulOpES2_jEES2_T0_T1_
PUBLIC 2e6e0 0 ZN4base8internal14CheckedNumericIjE7WrapperIS2_E8is_validES2_
PUBLIC 2e700 0 ZN4base8internal14CheckedNumericIjE7WrapperIjE8is_validEj
PUBLIC 2e710 0 ZN4base8internal12CheckedMulOpIjjvE2DoIjEEbjjPT_
PUBLIC 2e760 0 ZN4base8internal14CheckedNumericIjE7WrapperIS2_E5valueES2_
PUBLIC 2e780 0 ZN4base8internal14CheckedNumericIjE7WrapperIjE5valueEj
PUBLIC 2e790 0 ZN4base8internal14CheckedNumericIjEC2IjEET_b
PUBLIC 2e7d0 0 ZNK4base8internal19CheckedNumericStateIjLNS0_21NumericRepresentationE0EE5valueEv
PUBLIC 2e7e0 0 ZN4base8internal19CheckedNumericStateIjLNS0_21NumericRepresentationE0EEC2IjEET_b
PUBLIC 2e850 0 ZN4base8internal28IsValueInRangeForNumericTypeIjjEEbT0_
PUBLIC 2e880 0 ZN4base8internal19CheckedNumericStateIjLNS0_21NumericRepresentationE0EE27WellDefinedConversionOrZeroIjEEjT_b
PUBLIC 2e8a0 0 ZN4base8internal26DstRangeRelationToSrcRangeIjNSt3__114numeric_limitsEjEENS0_10RangeCheckET1_
PUBLIC 2e8c0 0 ZNK4base8internal10RangeCheck7IsValidEv
PUBLIC 2e900 0 ZN4base8internal30DstRangeRelationToSrcRangeImplIjjNSt3__114numeric_limitsELNS0_21IntegerRepresentationE0ELS4_0ELNS0_26NumericRangeRepresentationE1EE5CheckEj
PUBLIC 2e930 0 ZN4base8internal10RangeCheckC2Ebb
PUBLIC 2e970 0 ZN4base8internal19CheckedNumericStateIjLNS0_21NumericRepresentationE0EEC2IjEET_
PUBLIC 2e9c0 0 ZNK4base8internal19CheckedNumericStateIjLNS0_21NumericRepresentationE0EE8is_validEv
PUBLIC 2e9e0 0 ZN4base8internal14CheckOnFailure13HandleFailureIjEET_v
PUBLIC 2e9f0 0 ZN4base8internal13StrictNumericIjEC2IjEET_
PUBLIC 2ea20 0 ZN4base8internal11strict_castIjjEET_T0_
PUBLIC 2ea30 0 ZN7logging11CheckEQImplIxxEEPNSt3__112basic_stringIcNS1_11char_traitsIcEENS1_9allocatorIcEEEERKT_RKT0_PKc
PUBLIC 2ea90 0 ZN7logging11CheckGTImplIxxEEPNSt3__112basic_stringIcNS1_11char_traitsIcEENS1_9allocatorIcEEEERKT_RKT0_PKc
PUBLIC 2eaf0 0 ZNSt3__112basic_stringIcNS_11char_traitsIcEENS_9allocatorIcEEEixB7v170001Ey
PUBLIC 2eb20 0 ZN7logging17MakeCheckOpStringIxxEEPNSt3__112basic_stringIcNS1_11char_traitsIcEENS1_9allocatorIcEEEERKT_RKT0_PKc
PUBLIC 2ecb0 0 ZNKSt3__112basic_stringIcNS_11char_traitsIcEENS_9allocatorIcEEEixB7v170001Ey
PUBLIC 2ece0 0 ZN4base16BasicStringPieceINSt3__112basic_stringIcNS1_11char_traitsIcEENS1_9allocatorIcEEEEEC2EPKc
PUBLIC 2ed40 0 ZNSt3__117__compressed_pairIPN8crashpad22CrashReportDatabaseWinENS_14default_deleteIS2_EEEC2B7v170001INS_16__value_init_tagES8_EEOT_OT0_
PUBLIC 2ed80 0 ZNSt3__122__compressed_pair_elemIPN8crashpad22CrashReportDatabaseWinELi0ELb0EEC2B7v170001ENS_16__value_init_tagE
PUBLIC 2eda0 0 ZNSt3__122__compressed_pair_elemINS_14default_deleteIN8crashpad22CrashReportDatabaseWinEEELi1ELb1EEC2B7v170001ENS_16__value_init_tagE
PUBLIC 2edc0 0 ZN4base8internal12checked_castIjNS0_14CheckOnFailureEyEET_T1_
PUBLIC 2ee10 0 ZN4base8internal28IsValueInRangeForNumericTypeIjyEEbT0_
PUBLIC 2ee40 0 ZN4base8internal26DstRangeRelationToSrcRangeIjNSt3__114numeric_limitsEyEENS0_10RangeCheckET1_
PUBLIC 2ee70 0 ZN4base8internal30DstRangeRelationToSrcRangeImplIjyNSt3__114numeric_limitsELNS0_21IntegerRepresentationE0ELS4_0ELNS0_26NumericRangeRepresentationE0EE5CheckEy
PUBLIC 2eec0 0 ZN4base8internal14NarrowingRangeIjyNSt3__114numeric_limitsEE3maxEv
PUBLIC 2eee0 0 ZN4base8internal14NarrowingRangeIjyNSt3__114numeric_limitsEE6AdjustIjLPv0EEET_S7_
PUBLIC 2ef20 0 ZNSt3__114numeric_limitsIjE3maxB7v170001Ev
PUBLIC 2ef30 0 ZN4base8internal17ConditionalNegateIjEENSt3__111make_signedIT_E4typeES4_b
PUBLIC 2ef60 0 ZN4base8internal15SafeUnsignedAbsIjEENSt3__113make_unsignedIT_E4typeES4_
PUBLIC 2efa0 0 ZN4base8internal15IsValueNegativeIjLPv0EEEbT_
PUBLIC 2efb0 0 ZNSt3__123__libcpp_numeric_limitsIjLb1EE3maxB7v170001Ev
PUBLIC 2efc0 0 ZNSt3__112basic_stringIcNS_11char_traitsIcEENS_9allocatorIcEEEpLB7v170001ERKS5_
PUBLIC 2eff0 0 ZNSt3__112basic_stringIcNS_11char_traitsIcEENS_9allocatorIcEEEpLB7v170001Ec
PUBLIC 2f020 0 ZN7logging17MakeCheckOpStringIN8crashpad19InitializationState5StateES3_EEPNSt3__112basic_stringIcNS4_11char_traitsIcEENS4_9allocatorIcEEEERKT_RKT0_PKc
PUBLIC 2f1b0 0 ZNSt3__1lsB7v170001INS_11char_traitsIcEEEERNS_13basic_ostreamIcT_EES6_h
PUBLIC 2f1e0 0 ZNSt3__117__compressed_pairIPN8crashpad19CrashReportDatabase9NewReportENS_14default_deleteIS3_EEEC2B7v170001IRS4_NS_16__value_init_tagEEEOT_OT0_
PUBLIC 2f220 0 ZNSt3__122__compressed_pair_elemIPN8crashpad19CrashReportDatabase9NewReportELi0ELb0EEC2B7v170001IRS4_vEEOT_
PUBLIC 2f250 0 ZNSt3__122__compressed_pair_elemINS_14default_deleteIN8crashpad19CrashReportDatabase9NewReportEEELi1ELb1EEC2B7v170001ENS_16__value_init_tagE
PUBLIC 2f270 0 ZNKSt3__117__compressed_pairIPN8crashpad19CrashReportDatabase9NewReportENS_14default_deleteIS3_EEE5firstB7v170001Ev
PUBLIC 2f290 0 ZNKSt3__122__compressed_pair_elemIPN8crashpad19CrashReportDatabase9NewReportELi0ELb0EE5__getB7v170001Ev
PUBLIC 2f2a0 0 ZNSt3__117__compressed_pairIPN8crashpad19CrashReportDatabase9NewReportENS_14default_deleteIS3_EEE5firstB7v170001Ev
PUBLIC 2f2c0 0 ZNSt3__117__compressed_pairIPN8crashpad19CrashReportDatabase9NewReportENS_14default_deleteIS3_EEE6secondB7v170001Ev
PUBLIC 2f2e0 0 ZNKSt3__114default_deleteIN8crashpad19CrashReportDatabase9NewReportEEclB7v170001EPS3_
PUBLIC 2f320 0 ZNSt3__122__compressed_pair_elemIPN8crashpad19CrashReportDatabase9NewReportELi0ELb0EE5__getB7v170001Ev
PUBLIC 2f330 0 ZNSt3__122__compressed_pair_elemINS_14default_deleteIN8crashpad19CrashReportDatabase9NewReportEEELi1ELb1EE5__getB7v170001Ev
PUBLIC 2f340 0 ZN8crashpad22ScopedRemoveFileTraits12InvalidValueEv
PUBLIC 2f360 0 ZNSt3__16vectorINS_10unique_ptrIN8crashpad10FileWriterENS_14default_deleteIS3_EEEENS_9allocatorIS6_EEE11__make_iterB7v170001EPS6_
PUBLIC 2f390 0 ZNSt3__111__wrap_iterIPNS_10unique_ptrIN8crashpad10FileWriterENS_14default_deleteIS3_EEEEEC2B7v170001ES7_
PUBLIC 2f3b0 0 ZNSt3__16vectorIN4base13ScopedGenericINS1_8FilePathEN8crashpad22ScopedRemoveFileTraitsEEENS_9allocatorIS6_EEE11__make_iterB7v170001EPS6_
PUBLIC 2f3e0 0 ZNSt3__111__wrap_iterIPN4base13ScopedGenericINS1_8FilePathEN8crashpad22ScopedRemoveFileTraitsEEEEC2B7v170001ES7_
PUBLIC 2f400 0 ZNSt3__110unique_ptrIN8crashpad19CrashReportDatabase12UploadReportENS_14default_deleteIS3_EEEC2B7v170001ILb1EvEEPS3_
PUBLIC 2f440 0 ZNSt3__117__compressed_pairIPN8crashpad19CrashReportDatabase12UploadReportENS_14default_deleteIS3_EEEC2B7v170001IRS4_NS_16__value_init_tagEEEOT_OT0_
PUBLIC 2f480 0 ZNSt3__122__compressed_pair_elemIPN8crashpad19CrashReportDatabase12UploadReportELi0ELb0EEC2B7v170001IRS4_vEEOT_
PUBLIC 2f4b0 0 ZNSt3__122__compressed_pair_elemINS_14default_deleteIN8crashpad19CrashReportDatabase12UploadReportEEELi1ELb1EEC2B7v170001ENS_16__value_init_tagE
PUBLIC 2f4d0 0 ZNSt3__110unique_ptrIN8crashpad19CrashReportDatabase12UploadReportENS_14default_deleteIS3_EEE5resetB7v170001EPS3_
PUBLIC 2f540 0 ZNSt3__117__compressed_pairIPN8crashpad19CrashReportDatabase12UploadReportENS_14default_deleteIS3_EEE5firstB7v170001Ev
PUBLIC 2f560 0 ZNSt3__117__compressed_pairIPN8crashpad19CrashReportDatabase12UploadReportENS_14default_deleteIS3_EEE6secondB7v170001Ev
PUBLIC 2f580 0 ZNKSt3__114default_deleteIN8crashpad19CrashReportDatabase12UploadReportEEclB7v170001EPS3_
PUBLIC 2f5c0 0 ZNSt3__122__compressed_pair_elemIPN8crashpad19CrashReportDatabase12UploadReportELi0ELb0EE5__getB7v170001Ev
PUBLIC 2f5d0 0 ZNSt3__122__compressed_pair_elemINS_14default_deleteIN8crashpad19CrashReportDatabase12UploadReportEEELi1ELb1EE5__getB7v170001Ev
PUBLIC 2f5e0 0 ZNKSt3__117__compressed_pairIPN8crashpad19CrashReportDatabase12UploadReportENS_14default_deleteIS3_EEE5firstB7v170001Ev
PUBLIC 2f600 0 ZNKSt3__122__compressed_pair_elemIPN8crashpad19CrashReportDatabase12UploadReportELi0ELb0EE5__getB7v170001Ev
PUBLIC 2f610 0 ZNSt3__117__compressed_pairIPKN8crashpad19CrashReportDatabase12UploadReportENS_14default_deleteIS4_EEE5firstB7v170001Ev
PUBLIC 2f630 0 ZNSt3__117__compressed_pairIPKN8crashpad19CrashReportDatabase12UploadReportENS_14default_deleteIS4_EEE6secondB7v170001Ev
PUBLIC 2f650 0 ZNKSt3__114default_deleteIKN8crashpad19CrashReportDatabase12UploadReportEEclB7v170001EPS4_
PUBLIC 2f690 0 ZNSt3__122__compressed_pair_elemIPKN8crashpad19CrashReportDatabase12UploadReportELi0ELb0EE5__getB7v170001Ev
PUBLIC 2f6a0 0 ZNSt3__122__compressed_pair_elemINS_14default_deleteIKN8crashpad19CrashReportDatabase12UploadReportEEELi1ELb1EE5__getB7v170001Ev
PUBLIC 2f6b0 0 ZNSt3__117__compressed_pairIPN8crashpad22CrashReportDatabaseWinENS_14default_deleteIS2_EEEC2B7v170001IRS3_NS_16__value_init_tagEEEOT_OT0_
PUBLIC 2f6f0 0 ZNSt3__122__compressed_pair_elemIPN8crashpad22CrashReportDatabaseWinELi0ELb0EEC2B7v170001IRS3_vEEOT_
PUBLIC 2f720 0 ZNSt3__110unique_ptrIN8crashpad22CrashReportDatabaseWinENS_14default_deleteIS2_EEE5resetB7v170001EPS2_
PUBLIC 2f790 0 ZNSt3__117__compressed_pairIPN8crashpad22CrashReportDatabaseWinENS_14default_deleteIS2_EEE5firstB7v170001Ev
PUBLIC 2f7b0 0 ZNSt3__117__compressed_pairIPN8crashpad22CrashReportDatabaseWinENS_14default_deleteIS2_EEE6secondB7v170001Ev
PUBLIC 2f7d0 0 ZNKSt3__114default_deleteIN8crashpad22CrashReportDatabaseWinEEclB7v170001EPS2_
PUBLIC 2f810 0 ZNSt3__122__compressed_pair_elemIPN8crashpad22CrashReportDatabaseWinELi0ELb0EE5__getB7v170001Ev
PUBLIC 2f820 0 ZNSt3__122__compressed_pair_elemINS_14default_deleteIN8crashpad22CrashReportDatabaseWinEEELi1ELb1EE5__getB7v170001Ev
PUBLIC 2f830 0 ZNKSt3__117__compressed_pairIPN8crashpad22CrashReportDatabaseWinENS_14default_deleteIS2_EEE5firstB7v170001Ev
PUBLIC 2f850 0 ZNKSt3__122__compressed_pair_elemIPN8crashpad22CrashReportDatabaseWinELi0ELb0EE5__getB7v170001Ev
PUBLIC 2f860 0 ZNSt3__110unique_ptrIN8crashpad22CrashReportDatabaseWinENS_14default_deleteIS2_EEE7releaseB7v170001Ev
PUBLIC 2f8a0 0 ZNSt3__110unique_ptrIN8crashpad22CrashReportDatabaseWinENS_14default_deleteIS2_EEE11get_deleterB7v170001Ev
PUBLIC 2f8c0 0 ZNSt3__117__compressed_pairIPN8crashpad22CrashReportDatabaseWinENS_14default_deleteIS2_EEEC2B7v170001IS3_S5_EEOT_OT0_
PUBLIC 2f900 0 ZNSt3__122__compressed_pair_elemIPN8crashpad22CrashReportDatabaseWinELi0ELb0EEC2B7v170001IS3_vEEOT_
PUBLIC 2f930 0 ZNSt3__122__compressed_pair_elemINS_14default_deleteIN8crashpad22CrashReportDatabaseWinEEELi1ELb1EEC2B7v170001IS4_vEEOT_
PUBLIC 2f950 0 ZNSt3__117__compressed_pairIPN8crashpad19CrashReportDatabaseENS_14default_deleteIS2_EEEC2B7v170001IPNS1_22CrashReportDatabaseWinENS4_IS8_EEEEOT_OT0_
PUBLIC 2f990 0 ZNSt3__122__compressed_pair_elemIPN8crashpad19CrashReportDatabaseELi0ELb0EEC2B7v170001IPNS1_22CrashReportDatabaseWinEvEEOT_
PUBLIC 2f9c0 0 ZNSt3__122__compressed_pair_elemINS_14default_deleteIN8crashpad19CrashReportDatabaseEEELi1ELb1EEC2B7v170001INS1_INS2_22CrashReportDatabaseWinEEEvEEOT_
PUBLIC 2f9f0 0 ZNSt3__114default_deleteIN8crashpad19CrashReportDatabaseEEC2B7v170001INS1_22CrashReportDatabaseWinEEERKNS0_IT_EEPNS_9enable_ifIXsr14is_convertibleIPS6_PS2_EE5valueEvE4typeE
PUBLIC 2fa10 0 ZN8crashpad8internal28ScopedLockedFileHandleTraits4FreeEPv
PUBLIC m 2fa50 0 ZN8crashpad8SettingsC1Ev
PUBLIC m 2fab0 0 ZN8crashpad8SettingsD1Ev
PUBLIC 2fae0 0 ZN8crashpad8Settings10InitializeERKN4base8FilePathE
PUBLIC 2fd40 0 ZN8crashpad8Settings29OpenForWritingAndReadSettingsEPNS0_4DataE
PUBLIC 300e0 0 ZN8crashpad8Settings11GetClientIDEPNS_4UUIDE
PUBLIC 302c0 0 ZN8crashpad8Settings19OpenAndReadSettingsEPNS0_4DataE
PUBLIC 30440 0 ZN8crashpad8Settings17GetUploadsEnabledEPb
PUBLIC 30620 0 ZN8crashpad8Settings17SetUploadsEnabledEb
PUBLIC 308e0 0 ZN8crashpad8Settings13WriteSettingsEPvRKNS0_4DataE
PUBLIC 30960 0 ZN8crashpad8Settings24GetLastUploadAttemptTimeEPx
PUBLIC 30b50 0 ZN8crashpad8Settings24SetLastUploadAttemptTimeEx
PUBLIC 30e10 0 ZN8crashpad8Settings26MakeScopedLockedFileHandleERKNS_8internal33MakeScopedLockedFileHandleOptionsENS_11FileLockingERKN4base8FilePathE
PUBLIC 31010 0 ZN8crashpad8Settings20GetHandleFromOptionsERKN4base8FilePathERKNS_8internal33MakeScopedLockedFileHandleOptionsE
PUBLIC 311e0 0 ZN8crashpad8Settings14OpenForReadingEv
PUBLIC 31230 0 ZN8crashpad8Settings24OpenForReadingAndWritingENS_13FileWriteModeEb
PUBLIC 31420 0 ZN8crashpad8Settings12ReadSettingsEPvPNS0_4DataEb
PUBLIC 31790 0 ZN8crashpad8Settings15RecoverSettingsEPvPNS0_4DataE
PUBLIC 31ae0 0 ZN8crashpad8Settings18InitializeSettingsEPv
PUBLIC 31b50 0 ZNK8crashpad19InitializationState16is_uninitializedEv
PUBLIC 31b70 0 ZN8crashpad19InitializationState11set_invalidEv
PUBLIC 31b80 0 ZN8crashpad8Settings4DataC2Ev
PUBLIC 31bd0 0 ZNK4base13ScopedGenericIPvN8crashpad8internal28ScopedLockedFileHandleTraitsEE8is_validEv
PUBLIC 31c10 0 ZN4base13ScopedGenericIPvN8crashpad8internal28ScopedLockedFileHandleTraitsEED2Ev
PUBLIC 31c40 0 ZN8crashpad19InitializationState9set_validEv
PUBLIC 31c50 0 ZNK8crashpad19InitializationState8is_validEv
PUBLIC 31c70 0 ZNK4base13ScopedGenericIPvN8crashpad8internal28ScopedLockedFileHandleTraitsEE3getEv
PUBLIC 31c80 0 ZN8crashpad11InRangeCastIxxEET_T0_S1_
PUBLIC 31e10 0 ZN4base13ScopedGenericIPvN8crashpad8internal28ScopedLockedFileHandleTraitsEEC2ERKS1_
PUBLIC 31e40 0 ZNK4base13ScopedGenericIPvN8crashpad8internal27ScopedFileHANDLECloseTraitsEE8is_validEv
PUBLIC 31e80 0 ZN4base13ScopedGenericIPvN8crashpad8internal27ScopedFileHANDLECloseTraitsEE5resetERKS1_
PUBLIC 31ef0 0 ZN4base13ScopedGenericIPvN8crashpad8internal28ScopedLockedFileHandleTraitsEE5resetERKS1_
PUBLIC 31f60 0 ZN4base13ScopedGenericIPvN8crashpad8internal27ScopedFileHANDLECloseTraitsEE7releaseEv
PUBLIC 31fa0 0 ZNK8crashpad8Settings9file_pathEv
PUBLIC 31fb0 0 ZN8crashpad8internal28ScopedLockedFileHandleTraits12InvalidValueEv
PUBLIC 31fc0 0 ZN4base13ScopedGenericIPvN8crashpad8internal28ScopedLockedFileHandleTraitsEEC2Ev
PUBLIC 32000 0 ZN4base13ScopedGenericIPvN8crashpad8internal28ScopedLockedFileHandleTraitsEEaSEOS5_
PUBLIC 32040 0 ZN4base13ScopedGenericIPvN8crashpad8internal28ScopedLockedFileHandleTraitsEEC2EOS5_
PUBLIC 32090 0 ZN4base13ScopedGenericIPvN8crashpad8internal28ScopedLockedFileHandleTraitsEE15FreeIfNecessaryEv
PUBLIC 320f0 0 ZN4base8internal28IsValueInRangeForNumericTypeIxxEEbT0_
PUBLIC 32120 0 ZN4base8internal26DstRangeRelationToSrcRangeIxNSt3__114numeric_limitsExEENS0_10RangeCheckET1_
PUBLIC 32150 0 ZN4base8internal30DstRangeRelationToSrcRangeImplIxxNSt3__114numeric_limitsELNS0_21IntegerRepresentationE1ELS4_1ELNS0_26NumericRangeRepresentationE1EE5CheckEx
PUBLIC 32180 0 ZN4base13ScopedGenericIPvN8crashpad8internal28ScopedLockedFileHandleTraitsEE4DataC2ERKS1_
PUBLIC 321b0 0 ZN4base13ScopedGenericIPvN8crashpad8internal28ScopedLockedFileHandleTraitsEE7releaseEv
PUBLIC 321f0 0 ZN4base13ScopedGenericIPvN8crashpad8internal28ScopedLockedFileHandleTraitsEE10get_traitsEv
PUBLIC 32200 0 ZN4base13ScopedGenericIPvN8crashpad8internal28ScopedLockedFileHandleTraitsEE4DataC2ERKS1_RKS4_
PUBLIC m 322d0 0 ZN8crashpad14CrashpadClientC1Ev
PUBLIC m 32330 0 ZN8crashpad14CrashpadClientD1Ev
PUBLIC 32360 0 ZN8crashpad14CrashpadClient12StartHandlerERKN4base8FilePathES4_S4_RKNSt3__112basic_stringIcNS5_11char_traitsIcEENS5_9allocatorIcEEEESD_RKNS5_3mapISB_SB_NS5_4lessISB_EENS9_INS5_4pairISC_SB_EEEEEERKNS5_6vectorISB_NS9_ISB_EEEEbbRKNSN_IS2_NS9_IS2_EEEE
PUBLIC 358e0 0 ZN8crashpad14CrashpadClient17SetHandlerIPCPipeERKNSt3__112basic_stringIwNS1_11char_traitsIwEENS1_9allocatorIwEEEE
PUBLIC 36340 0 ZNK8crashpad14CrashpadClient17GetHandlerIPCPipeEv
PUBLIC 364d0 0 ZN8crashpad14CrashpadClient19WaitForHandlerStartEj
PUBLIC 36bd0 0 ZN8crashpad14CrashpadClient17RegisterWerModuleERKNSt3__112basic_stringIwNS1_11char_traitsIwEENS1_9allocatorIwEEEE
PUBLIC 36d90 0 ZN8crashpad14CrashpadClient16DumpWithoutCrashERK8_CONTEXT
PUBLIC 374a0 0 ZN8crashpad14CrashpadClient12DumpAndCrashEP19_EXCEPTION_POINTERS
PUBLIC 378f0 0 ZN8crashpad14CrashpadClient25DumpAndCrashTargetProcessEPvS1_m
PUBLIC 393d0 0 ZN8crashpad14CrashpadClient30SetFirstChanceExceptionHandlerEPFbP19_EXCEPTION_POINTERSE
PUBLIC 39e10 0 ZN4base13ScopedGenericIPvN8crashpad8internal29ScopedKernelHANDLECloseTraitsEEC2Ev
PUBLIC 39e50 0 ZN4base13ScopedGenericIPvN8crashpad8internal29ScopedKernelHANDLECloseTraitsEED2Ev
PUBLIC 39e80 0 ZN4base13ScopedGenericIPvN8crashpad8internal27ScopedFileHANDLECloseTraitsEEC2Ev
PUBLIC 39ec0 0 ZN4base13ScopedGenericIPvN8crashpad8internal27ScopedFileHANDLECloseTraitsEEC2EOS5_
PUBLIC 39f10 0 ZN4base13ScopedGenericIPvN8crashpad8internal29ScopedKernelHANDLECloseTraitsEE5resetERKS1_
PUBLIC 39f80 0 ZNK4base13ScopedGenericIPvN8crashpad8internal29ScopedKernelHANDLECloseTraitsEE8is_validEv
PUBLIC 39fc0 0 ZN7logging11CheckEQImplIPvS1_EEPNSt3__112basic_stringIcNS2_11char_traitsIcEENS2_9allocatorIcEEEERKT_RKT0_PKc
PUBLIC 3a020 0 ZN8crashpad15FromPointerCastIyPNS_20ExceptionInformationEEENSt3__19enable_ifIXaasr3std10is_pointerIT0_EE5valuesr3std11is_integralIT_EE5valueES6_E4typeES5_
PUBLIC 3a040 0 ZN8crashpad15FromPointerCastIyP21_RTL_CRITICAL_SECTIONEENSt3__19enable_ifIXaasr3std10is_pointerIT0_EE5valuesr3std11is_integralIT_EE5valueES6_E4typeES5_
PUBLIC 3a060 0 ZNK4base13ScopedGenericIPvN8crashpad8internal29ScopedKernelHANDLECloseTraitsEE3getEv
PUBLIC 3a070 0 ZN8crashpad8internal29ScopedKernelHANDLECloseTraits12InvalidValueEv
PUBLIC 3a080 0 ZN4base8AutoLockC2ERNS_4LockE
PUBLIC 3a0b0 0 ZN8crashpad25ProgramCounterFromCONTEXTEPK8_CONTEXT
PUBLIC 3a0d0 0 ZN8crashpad15FromPointerCastIyP19_EXCEPTION_POINTERSEENSt3__19enable_ifIXaasr3std10is_pointerIT0_EE5valuesr3std11is_integralIT_EE5valueES6_E4typeES5_
PUBLIC 3a0f0 0 ZN4base8AutoLockD2Ev
PUBLIC 3a130 0 ZN8crashpad20SafeTerminateProcessEPvj
PUBLIC 3a160 0 ZN8crashpad8internal11GetFunctionIFmPvEEEPT_PKwPKcb
PUBLIC 3a1a0 0 ZN8crashpad15FromPointerCastIyPvEENSt3__19enable_ifIXaasr3std10is_pointerIT0_EE5valuesr3std11is_integralIT_EE5valueES5_E4typeES4_
PUBLIC 3a1c0 0 ZN8crashpad15FromPointerCastIyPFvmmmPKyEEENSt3__19enable_ifIXaasr3std10is_pointerIT0_EE5valuesr3std11is_integralIT_EE5valueES8_E4typeES7_
PUBLIC 3a1e0 0 ZNSt3__16vectorIhNS_9allocatorIhEEEC2B7v170001Ev
PUBLIC 3a230 0 ZNKSt3__16vectorIhNS_9allocatorIhEEE4sizeB7v170001Ev
PUBLIC 3a250 0 ZNSt3__16vectorIhNS_9allocatorIhEEE9push_backB7v170001EOh
PUBLIC 3a2b0 0 ZN7logging11CheckLTImplIyyEEPNSt3__112basic_stringIcNS1_11char_traitsIcEENS1_9allocatorIcEEEERKT_RKT0_PKc
PUBLIC 3a310 0 ZNSt3__16vectorIhNS_9allocatorIhEEE4dataB7v170001Ev
PUBLIC 3a330 0 ZNSt3__16vectorIhNS_9allocatorIhEEED2B7v170001Ev
PUBLIC 3a370 0 ZNSt3__1plB7v170001IcNS_11char_traitsIcEENS_9allocatorIcEEEENS_12basic_stringIT_T0_T1_EERKS9_OS9_
PUBLIC 3a3c0 0 ZNSt3__112basic_stringIcNS_11char_traitsIcEENS_9allocatorIcEEE6insertB7v170001EyRKS5_
PUBLIC 3a420 0 ZN7logging11CheckNEImplIPFviES2_EEPNSt3__112basic_stringIcNS3_11char_traitsIcEENS3_9allocatorIcEEEERKT_RKT0_PKc
PUBLIC 3a480 0 ZN7logging11CheckEQImplEiiPKc
PUBLIC 3a4d0 0 ZN7logging17MakeCheckOpStringIiiEEPNSt3__112basic_stringIcNS1_11char_traitsIcEENS1_9allocatorIcEEEERKT_RKT0_PKc
PUBLIC 3a660 0 ZN7logging17MakeCheckOpStringIPFviES2_EEPNSt3__112basic_stringIcNS3_11char_traitsIcEENS3_9allocatorIcEEEERKT_RKT0_PKc
PUBLIC 3a7f0 0 ZNSt3__13mapINS_12basic_stringIcNS_11char_traitsIcEENS_9allocatorIcEEEES6_NS_4lessIS6_EENS4_INS_4pairIKS6_S6_EEEEEC2B7v170001ERKSD_
PUBLIC 3a880 0 ZNSt3__16vectorINS_12basic_stringIcNS_11char_traitsIcEENS_9allocatorIcEEEENS4_IS6_EEEC2ERKS8_
PUBLIC 3a930 0 ZNSt3__16vectorIN4base8FilePathENS_9allocatorIS2_EEEC2ERKS5_
PUBLIC 3a9e0 0 ZNSt3__16__treeINS_12__value_typeINS_12basic_stringIcNS_11char_traitsIcEENS_9allocatorIcEEEES7_EENS_19__map_value_compareIS7_S8_NS_4lessIS7_EELb1EEENS5_IS8_EEEC2ERKSE_
PUBLIC 3aa90 0 ZNSt3__13mapINS_12basic_stringIcNS_11char_traitsIcEENS_9allocatorIcEEEES6_NS_4lessIS6_EENS4_INS_4pairIKS6_S6_EEEEE6insertB7v170001INS_20__map_const_iteratorINS_21__tree_const_iteratorINS_12__value_typeIS6_S6_EEPNS_11__tree_nodeISI_PvEExEEEEEEvT_SP_
PUBLIC 3ab30 0 ZNKSt3__13mapINS_12basic_stringIcNS_11char_traitsIcEENS_9allocatorIcEEEES6_NS_4lessIS6_EENS4_INS_4pairIKS6_S6_EEEEE5beginB7v170001Ev
PUBLIC 3ab70 0 ZNKSt3__13mapINS_12basic_stringIcNS_11char_traitsIcEENS_9allocatorIcEEEES6_NS_4lessIS6_EENS4_INS_4pairIKS6_S6_EEEEE3endB7v170001Ev
PUBLIC 3abb0 0 ZNSt3__116allocator_traitsINS_9allocatorINS_11__tree_nodeINS_12__value_typeINS_12basic_stringIcNS_11char_traitsIcEENS1_IcEEEES8_EEPvEEEEE37select_on_container_copy_constructionB7v170001ISC_vvEESC_RKSC_
PUBLIC 3abd0 0 ZNKSt3__16__treeINS_12__value_typeINS_12basic_stringIcNS_11char_traitsIcEENS_9allocatorIcEEEES7_EENS_19__map_value_compareIS7_S8_NS_4lessIS7_EELb1EEENS5_IS8_EEE12__node_allocB7v170001Ev
PUBLIC 3abf0 0 ZNSt3__117__compressed_pairINS_15__tree_end_nodeIPNS_16__tree_node_baseIPvEEEENS_9allocatorINS_11__tree_nodeINS_12__value_typeINS_12basic_stringIcNS_11char_traitsIcEENS7_IcEEEESE_EES3_EEEEEC2B7v170001INS_18__default_init_tagESH_EEOT_OT0_
PUBLIC 3ac30 0 ZNKSt3__16__treeINS_12__value_typeINS_12basic_stringIcNS_11char_traitsIcEENS_9allocatorIcEEEES7_EENS_19__map_value_compareIS7_S8_NS_4lessIS7_EELb1EEENS5_IS8_EEE10value_compB7v170001Ev
PUBLIC 3ac50 0 ZNKSt3__117__compressed_pairINS_15__tree_end_nodeIPNS_16__tree_node_baseIPvEEEENS_9allocatorINS_11__tree_nodeINS_12__value_typeINS_12basic_stringIcNS_11char_traitsIcEENS7_IcEEEESE_EES3_EEEEE6secondB7v170001Ev
PUBLIC 3ac70 0 ZNKSt3__122__compressed_pair_elemINS_9allocatorINS_11__tree_nodeINS_12__value_typeINS_12basic_stringIcNS_11char_traitsIcEENS1_IcEEEES8_EEPvEEEELi1ELb1EE5__getB7v170001Ev
PUBLIC 3ac80 0 ZNSt3__122__compressed_pair_elemINS_15__tree_end_nodeIPNS_16__tree_node_baseIPvEEEELi0ELb0EEC2B7v170001ENS_18__default_init_tagE
PUBLIC 3aca0 0 ZNSt3__122__compressed_pair_elemINS_9allocatorINS_11__tree_nodeINS_12__value_typeINS_12basic_stringIcNS_11char_traitsIcEENS1_IcEEEES8_EEPvEEEELi1ELb1EEC2B7v170001ISC_vEEOT_
PUBLIC 3acc0 0 ZNKSt3__117__compressed_pairIyNS_19__map_value_compareINS_12basic_stringIcNS_11char_traitsIcEENS_9allocatorIcEEEENS_12__value_typeIS7_S7_EENS_4lessIS7_EELb1EEEE6secondB7v170001Ev
PUBLIC 3ace0 0 ZNKSt3__122__compressed_pair_elemINS_19__map_value_compareINS_12basic_stringIcNS_11char_traitsIcEENS_9allocatorIcEEEENS_12__value_typeIS7_S7_EENS_4lessIS7_EELb1EEELi1ELb1EE5__getB7v170001Ev
PUBLIC 3acf0 0 ZNKSt3__13mapINS_12basic_stringIcNS_11char_traitsIcEENS_9allocatorIcEEEES6_NS_4lessIS6_EENS4_INS_4pairIKS6_S6_EEEEE4cendB7v170001Ev
PUBLIC 3ad20 0 ZNSt3__1neB7v170001ERKNS_20__map_const_iteratorINS_21__tree_const_iteratorINS_12__value_typeINS_12basic_stringIcNS_11char_traitsIcEENS_9allocatorIcEEEES8_EEPNS_11__tree_nodeIS9_PvEExEEEESH_
PUBLIC 3ad50 0 ZNSt3__13mapINS_12basic_stringIcNS_11char_traitsIcEENS_9allocatorIcEEEES6_NS_4lessIS6_EENS4_INS_4pairIKS6_S6_EEEEE6insertB7v170001ENS_20__map_const_iteratorINS_21__tree_const_iteratorINS_12__value_typeIS6_S6_EEPNS_11__tree_nodeISH_PvEExEEEERKSB_
PUBLIC 3ada0 0 ZNSt3__120__map_const_iteratorINS_21__tree_const_iteratorINS_12__value_typeINS_12basic_stringIcNS_11char_traitsIcEENS_9allocatorIcEEEES8_EEPNS_11__tree_nodeIS9_PvEExEEEC2B7v170001ESE_
PUBLIC 3adc0 0 ZNKSt3__120__map_const_iteratorINS_21__tree_const_iteratorINS_12__value_typeINS_12basic_stringIcNS_11char_traitsIcEENS_9allocatorIcEEEES8_EEPNS_11__tree_nodeIS9_PvEExEEEdeB7v170001Ev
PUBLIC 3adf0 0 ZNSt3__120__map_const_iteratorINS_21__tree_const_iteratorINS_12__value_typeINS_12basic_stringIcNS_11char_traitsIcEENS_9allocatorIcEEEES8_EEPNS_11__tree_nodeIS9_PvEExEEEppB7v170001Ev
PUBLIC 3ae20 0 ZNSt3__1neB7v170001ERKNS_21__tree_const_iteratorINS_12__value_typeINS_12basic_stringIcNS_11char_traitsIcEENS_9allocatorIcEEEES7_EEPNS_11__tree_nodeIS8_PvEExEESF_
PUBLIC 3ae50 0 ZNSt3__1eqB7v170001ERKNS_21__tree_const_iteratorINS_12__value_typeINS_12basic_stringIcNS_11char_traitsIcEENS_9allocatorIcEEEES7_EEPNS_11__tree_nodeIS8_PvEExEESF_
PUBLIC 3ae80 0 ZNSt3__16__treeINS_12__value_typeINS_12basic_stringIcNS_11char_traitsIcEENS_9allocatorIcEEEES7_EENS_19__map_value_compareIS7_S8_NS_4lessIS7_EELb1EEENS5_IS8_EEE15__insert_uniqueB7v170001ENS_21__tree_const_iteratorIS8_PNS_11__tree_nodeIS8_PvEExEERKNS_4pairIKS7_S7_EE
PUBLIC 3aef0 0 ZNSt3__114__map_iteratorINS_15__tree_iteratorINS_12__value_typeINS_12basic_stringIcNS_11char_traitsIcEENS_9allocatorIcEEEES8_EEPNS_11__tree_nodeIS9_PvEExEEEC2B7v170001ESE_
PUBLIC 3af10 0 ZNSt3__16__treeINS_12__value_typeINS_12basic_stringIcNS_11char_traitsIcEENS_9allocatorIcEEEES7_EENS_19__map_value_compareIS7_S8_NS_4lessIS7_EELb1EEENS5_IS8_EEE30__emplace_hint_unique_key_argsIS7_JRKNS_4pairIKS7_S7_EEEEENSG_INS_15__tree_iteratorIS8_PNS_11__tree_nodeIS8_PvEExEEbEENS_21__tree_const_iteratorIS8_SP_xEERKT_DpOT0_
PUBLIC 3b070 0 ZNSt3__122__tree_key_value_typesINS_12__value_typeINS_12basic_stringIcNS_11char_traitsIcEENS_9allocatorIcEEEES7_EEE9__get_keyB7v170001IKNS_4pairIKS7_S7_EEEENS_9enable_ifIXsr17__is_same_uncvrefIT_SD_EE5valueERSC_E4typeERSG_
PUBLIC 3b080 0 ZNSt3__16__treeINS_12__value_typeINS_12basic_stringIcNS_11char_traitsIcEENS_9allocatorIcEEEES7_EENS_19__map_value_compareIS7_S8_NS_4lessIS7_EELb1EEENS5_IS8_EEE12__find_equalIS7_EERPNS_16__tree_node_baseIPvEENS_21__tree_const_iteratorIS8_PNS_11__tree_nodeIS8_SH_EExEERPNS_15__tree_end_nodeISJ_EESK_RKT_
PUBLIC 3b470 0 ZNSt3__16__treeINS_12__value_typeINS_12basic_stringIcNS_11char_traitsIcEENS_9allocatorIcEEEES7_EENS_19__map_value_compareIS7_S8_NS_4lessIS7_EELb1EEENS5_IS8_EEE16__construct_nodeIJRKNS_4pairIKS7_S7_EEEEENS_10unique_ptrINS_11__tree_nodeIS8_PvEENS_22__tree_node_destructorINS5_ISO_EEEEEEDpOT_
PUBLIC 3b5c0 0 ZNSt3__16__treeINS_12__value_typeINS_12basic_stringIcNS_11char_traitsIcEENS_9allocatorIcEEEES7_EENS_19__map_value_compareIS7_S8_NS_4lessIS7_EELb1EEENS5_IS8_EEE3endB7v170001Ev
PUBLIC 3b5f0 0 ZNSt3__121__tree_const_iteratorINS_12__value_typeINS_12basic_stringIcNS_11char_traitsIcEENS_9allocatorIcEEEES7_EEPNS_11__tree_nodeIS8_PvEExEC2B7v170001ENS_15__tree_iteratorIS8_SC_xEE
PUBLIC 3b610 0 ZNKSt3__121__tree_const_iteratorINS_12__value_typeINS_12basic_stringIcNS_11char_traitsIcEENS_9allocatorIcEEEES7_EEPNS_11__tree_nodeIS8_PvEExEdeB7v170001Ev
PUBLIC 3b630 0 ZNSt3__16__treeINS_12__value_typeINS_12basic_stringIcNS_11char_traitsIcEENS_9allocatorIcEEEES7_EENS_19__map_value_compareIS7_S8_NS_4lessIS7_EELb1EEENS5_IS8_EEE5beginB7v170001Ev
PUBLIC 3b660 0 ZNSt3__121__tree_const_iteratorINS_12__value_typeINS_12basic_stringIcNS_11char_traitsIcEENS_9allocatorIcEEEES7_EEPNS_11__tree_nodeIS8_PvEExEmmB7v170001Ev
PUBLIC 3b690 0 ZNSt3__14nextB7v170001INS_21__tree_const_iteratorINS_12__value_typeINS_12basic_stringIcNS_11char_traitsIcEENS_9allocatorIcEEEES8_EEPNS_11__tree_nodeIS9_PvEExEEEENS_9enable_ifIXsr29__has_input_iterator_categoryIT_EE5valueESG_E4typeESG_NS_15iterator_traitsISG_E15difference_typeE
PUBLIC 3b6d0 0 ZNKSt3__121__tree_const_iteratorINS_12__value_typeINS_12basic_stringIcNS_11char_traitsIcEENS_9allocatorIcEEEES7_EEPNS_11__tree_nodeIS8_PvEExE8__get_npB7v170001Ev
PUBLIC 3b6e0 0 ZNSt3__115__tree_iteratorINS_12__value_typeINS_12basic_stringIcNS_11char_traitsIcEENS_9allocatorIcEEEES7_EEPNS_11__tree_nodeIS8_PvEExEC2B7v170001EPNS_15__tree_end_nodeIPNS_16__tree_node_baseISA_EEEE
PUBLIC 3b700 0 ZNSt3__1ltB7v170001IcNS_11char_traitsIcEENS_9allocatorIcEEEEbRKNS_12basic_stringIT_T0_T1_EESB_
PUBLIC 3b730 0 ZNKSt3__112basic_stringIcNS_11char_traitsIcEENS_9allocatorIcEEE7compareB7v170001ERKS5_
PUBLIC 3b770 0 ZNKSt3__112basic_stringIcNS_11char_traitsIcEENS_9allocatorIcEEE7compareINS_17basic_string_viewIcS2_EELi0EEEiRKT_
PUBLIC 3b890 0 ZNSt3__116__tree_prev_iterB7v170001IPNS_16__tree_node_baseIPvEEPNS_15__tree_end_nodeIS4_EEEET_T0_
PUBLIC 3b940 0 ZNSt3__110__tree_maxB7v170001IPNS_16__tree_node_baseIPvEEEET_S5_
PUBLIC 3b970 0 ZNSt3__17advanceB7v170001INS_21__tree_const_iteratorINS_12__value_typeINS_12basic_stringIcNS_11char_traitsIcEENS_9allocatorIcEEEES8_EEPNS_11__tree_nodeIS9_PvEExEExxvEEvRT_T0_
PUBLIC 3b9b0 0 ZNSt3__19__advanceB7v170001INS_21__tree_const_iteratorINS_12__value_typeINS_12basic_stringIcNS_11char_traitsIcEENS_9allocatorIcEEEES8_EEPNS_11__tree_nodeIS9_PvEExEEEEvRT_NS_15iterator_traitsISF_E15difference_typeENS_26bidirectional_iterator_tagE
PUBLIC 3ba40 0 ZNSt3__121__tree_const_iteratorINS_12__value_typeINS_12basic_stringIcNS_11char_traitsIcEENS_9allocatorIcEEEES7_EEPNS_11__tree_nodeIS8_PvEExEppB7v170001Ev
PUBLIC 3ba70 0 ZNSt3__116__tree_next_iterB7v170001IPNS_15__tree_end_nodeIPNS_16__tree_node_baseIPvEEEES5_EET_T0_
PUBLIC 3baf0 0 ZNSt3__110__tree_minB7v170001IPNS_16__tree_node_baseIPvEEEET_S5_
PUBLIC 3bb20 0 ZNSt3__116allocator_traitsINS_9allocatorINS_11__tree_nodeINS_12__value_typeINS_12basic_stringIcNS_11char_traitsIcEENS1_IcEEEES8_EEPvEEEEE9constructB7v170001INS_4pairIKS8_S8_EEJRKSH_EvEEvRSC_PT_DpOT0_
PUBLIC 3bb50 0 ZNSt3__116allocator_traitsINS_9allocatorINS_11__tree_nodeINS_12__value_typeINS_12basic_stringIcNS_11char_traitsIcEENS1_IcEEEES8_EEPvEEEEE8max_sizeB7v170001ISC_vEEyRKSC_
PUBLIC 3bb70 0 ZNKSt3__19allocatorINS_11__tree_nodeINS_12__value_typeINS_12basic_stringIcNS_11char_traitsIcEENS0_IcEEEES7_EEPvEEE8max_sizeB7v170001Ev
PUBLIC 3bb90 0 ZNSt3__19allocatorINS_11__tree_nodeINS_12__value_typeINS_12basic_stringIcNS_11char_traitsIcEENS0_IcEEEES7_EEPvEEE9constructB7v170001INS_4pairIKS7_S7_EEJRKSF_EEEvPT_DpOT0_
PUBLIC 3bbc0 0 ZNSt3__14pairIKNS_12basic_stringIcNS_11char_traitsIcEENS_9allocatorIcEEEES6_EC2B7v170001ERKS8_
PUBLIC 3bc30 0 ZNKSt3__121__tree_const_iteratorINS_12__value_typeINS_12basic_stringIcNS_11char_traitsIcEENS_9allocatorIcEEEES7_EEPNS_11__tree_nodeIS8_PvEExEptB7v170001Ev
PUBLIC 3bc60 0 ZNSt3__114pointer_traitsIPKNS_12__value_typeINS_12basic_stringIcNS_11char_traitsIcEENS_9allocatorIcEEEES7_EEE10pointer_toB7v170001ERS9_
PUBLIC 3bc70 0 ZNKSt3__16__treeINS_12__value_typeINS_12basic_stringIcNS_11char_traitsIcEENS_9allocatorIcEEEES7_EENS_19__map_value_compareIS7_S8_NS_4lessIS7_EELb1EEENS5_IS8_EEE5beginB7v170001Ev
PUBLIC 3bca0 0 ZNKSt3__16__treeINS_12__value_typeINS_12basic_stringIcNS_11char_traitsIcEENS_9allocatorIcEEEES7_EENS_19__map_value_compareIS7_S8_NS_4lessIS7_EELb1EEENS5_IS8_EEE12__begin_nodeB7v170001Ev
PUBLIC 3bcb0 0 ZNSt3__121__tree_const_iteratorINS_12__value_typeINS_12basic_stringIcNS_11char_traitsIcEENS_9allocatorIcEEEES7_EEPNS_11__tree_nodeIS8_PvEExEC2B7v170001EPNS_15__tree_end_nodeIPNS_16__tree_node_baseISA_EEEE
PUBLIC 3bcd0 0 ZNKSt3__16__treeINS_12__value_typeINS_12basic_stringIcNS_11char_traitsIcEENS_9allocatorIcEEEES7_EENS_19__map_value_compareIS7_S8_NS_4lessIS7_EELb1EEENS5_IS8_EEE3endB7v170001Ev
PUBLIC 3bd00 0 ZNSt3__116allocator_traitsINS_9allocatorINS_12basic_stringIcNS_11char_traitsIcEENS1_IcEEEEEEE37select_on_container_copy_constructionB7v170001IS7_vvEES7_RKS7_
PUBLIC 3bd20 0 ZNSt3__117__compressed_pairIPNS_12basic_stringIcNS_11char_traitsIcEENS_9allocatorIcEEEENS4_IS6_EEEC2B7v170001IDnS8_EEOT_OT0_
PUBLIC 3bd60 0 ZNSt3__16vectorINS_12basic_stringIcNS_11char_traitsIcEENS_9allocatorIcEEEENS4_IS6_EEE16__init_with_sizeB7v170001IPS6_SA_EEvT_T0_y
PUBLIC 3be20 0 ZNSt3__122__compressed_pair_elemINS_9allocatorINS_12basic_stringIcNS_11char_traitsIcEENS1_IcEEEEEELi1ELb1EEC2B7v170001IS7_vEEOT_
PUBLIC 3be40 0 ZNSt3__122__make_exception_guardB7v170001INS_6vectorINS_12basic_stringIcNS_11char_traitsIcEENS_9allocatorIcEEEENS5_IS7_EEE16__destroy_vectorEEENS_28__exception_guard_exceptionsIT_EESC_
PUBLIC 3be80 0 ZNSt3__16vectorINS_12basic_stringIcNS_11char_traitsIcEENS_9allocatorIcEEEENS4_IS6_EEE11__vallocateB7v170001Ey
PUBLIC 3bf30 0 ZNSt3__16vectorINS_12basic_stringIcNS_11char_traitsIcEENS_9allocatorIcEEEENS4_IS6_EEE18__construct_at_endIPS6_SA_EEvT_T0_y
PUBLIC 3bfd0 0 ZNSt3__128__exception_guard_exceptionsINS_6vectorINS_12basic_stringIcNS_11char_traitsIcEENS_9allocatorIcEEEENS5_IS7_EEE16__destroy_vectorEE10__completeB7v170001Ev
PUBLIC 3bfe0 0 ZNSt3__128__exception_guard_exceptionsINS_6vectorINS_12basic_stringIcNS_11char_traitsIcEENS_9allocatorIcEEEENS5_IS7_EEE16__destroy_vectorEED2B7v170001Ev
PUBLIC 3c020 0 ZNSt3__128__exception_guard_exceptionsINS_6vectorINS_12basic_stringIcNS_11char_traitsIcEENS_9allocatorIcEEEENS5_IS7_EEE16__destroy_vectorEEC2B7v170001ESA_
PUBLIC 3c050 0 ZNSt3__116allocator_traitsINS_9allocatorINS_12basic_stringIcNS_11char_traitsIcEENS1_IcEEEEEEE8max_sizeB7v170001IS7_vEEyRKS7_
PUBLIC 3c070 0 ZNKSt3__19allocatorINS_12basic_stringIcNS_11char_traitsIcEENS0_IcEEEEE8max_sizeB7v170001Ev
PUBLIC 3c090 0 ZNSt3__130__uninitialized_allocator_copyB7v170001INS_9allocatorINS_12basic_stringIcNS_11char_traitsIcEENS1_IcEEEEEEPS6_S8_S8_EET2_RT_T0_T1_S9_
PUBLIC 3c120 0 ZNSt3__114__unwrap_rangeB7v170001IPNS_12basic_stringIcNS_11char_traitsIcEENS_9allocatorIcEEEES7_EENS_4pairIT0_S9_EET_SB_
PUBLIC 3c180 0 ZNSt3__135__uninitialized_allocator_copy_implB7v170001INS_9allocatorINS_12basic_stringIcNS_11char_traitsIcEENS1_IcEEEEEEPS6_S8_S8_EET2_RT_T0_T1_S9_
PUBLIC 3c2c0 0 ZNSt3__113__unwrap_iterB7v170001IPNS_12basic_stringIcNS_11char_traitsIcEENS_9allocatorIcEEEENS_18__unwrap_iter_implIS7_Lb1EEELi0EEEDTclsrT0_8__unwrapclsr3stdE7declvalIT_EEEESB_
PUBLIC 3c2e0 0 ZNSt3__113__rewrap_iterB7v170001IPNS_12basic_stringIcNS_11char_traitsIcEENS_9allocatorIcEEEES7_NS_18__unwrap_iter_implIS7_Lb1EEEEET_SA_T0_
PUBLIC 3c320 0 ZNSt3__19make_pairB7v170001IPNS_12basic_stringIcNS_11char_traitsIcEENS_9allocatorIcEEEES7_EENS_4pairINS_18__unwrap_ref_decayIT_E4typeENS9_IT0_E4typeEEEOSA_OSD_
PUBLIC 3c360 0 ZNSt3__14pairIPNS_12basic_stringIcNS_11char_traitsIcEENS_9allocatorIcEEEES7_EC2B7v170001IS7_S7_LPv0EEEOT_OT0_
PUBLIC 3c3a0 0 ZNSt3__122__make_exception_guardB7v170001INS_29_AllocatorDestroyRangeReverseINS_9allocatorINS_12basic_stringIcNS_11char_traitsIcEENS2_IcEEEEEEPS7_EEEENS_28__exception_guard_exceptionsIT_EESC_
PUBLIC 3c3f0 0 ZNSt3__129_AllocatorDestroyRangeReverseINS_9allocatorINS_12basic_stringIcNS_11char_traitsIcEENS1_IcEEEEEEPS6_EC2B7v170001ERS7_RS8_SB_
PUBLIC 3c430 0 ZNSt3__116allocator_traitsINS_9allocatorINS_12basic_stringIcNS_11char_traitsIcEENS1_IcEEEEEEE9constructB7v170001IS6_JRS6_EvEEvRS7_PT_DpOT0_
PUBLIC 3c460 0 ZNSt3__128__exception_guard_exceptionsINS_29_AllocatorDestroyRangeReverseINS_9allocatorINS_12basic_stringIcNS_11char_traitsIcEENS2_IcEEEEEEPS7_EEE10__completeB7v170001Ev
PUBLIC 3c470 0 ZNSt3__128__exception_guard_exceptionsINS_29_AllocatorDestroyRangeReverseINS_9allocatorINS_12basic_stringIcNS_11char_traitsIcEENS2_IcEEEEEEPS7_EEED2B7v170001Ev
PUBLIC 3c4b0 0 ZNSt3__128__exception_guard_exceptionsINS_29_AllocatorDestroyRangeReverseINS_9allocatorINS_12basic_stringIcNS_11char_traitsIcEENS2_IcEEEEEEPS7_EEEC2B7v170001ESA_
PUBLIC 3c4f0 0 ZNSt3__19allocatorINS_12basic_stringIcNS_11char_traitsIcEENS0_IcEEEEE9constructB7v170001IS5_JRS5_EEEvPT_DpOT0_
PUBLIC 3c520 0 ZNKSt3__129_AllocatorDestroyRangeReverseINS_9allocatorINS_12basic_stringIcNS_11char_traitsIcEENS1_IcEEEEEEPS6_EclB7v170001Ev
PUBLIC 3c580 0 ZNSt3__119__allocator_destroyB7v170001INS_9allocatorINS_12basic_stringIcNS_11char_traitsIcEENS1_IcEEEEEENS_16reverse_iteratorIPS6_EESA_EEvRT_T0_T1_
PUBLIC 3c5f0 0 ZNSt3__116allocator_traitsINS_9allocatorINS_12basic_stringIcNS_11char_traitsIcEENS1_IcEEEEEEE7destroyB7v170001IS6_vEEvRS7_PT_
PUBLIC 3c620 0 ZNSt3__19allocatorINS_12basic_stringIcNS_11char_traitsIcEENS0_IcEEEEE7destroyB7v170001EPS5_
PUBLIC 3c640 0 ZNSt3__118__unwrap_iter_implIPNS_12basic_stringIcNS_11char_traitsIcEENS_9allocatorIcEEEELb1EE8__unwrapB7v170001ES7_
PUBLIC 3c660 0 ZNSt3__118__unwrap_iter_implIPNS_12basic_stringIcNS_11char_traitsIcEENS_9allocatorIcEEEELb1EE8__rewrapB7v170001ES7_S7_
PUBLIC 3c6c0 0 ZNSt3__116allocator_traitsINS_9allocatorIN4base8FilePathEEEE37select_on_container_copy_constructionB7v170001IS4_vvEES4_RKS4_
PUBLIC 3c6e0 0 ZNSt3__117__compressed_pairIPN4base8FilePathENS_9allocatorIS2_EEEC2B7v170001IDnS5_EEOT_OT0_
PUBLIC 3c720 0 ZNSt3__16vectorIN4base8FilePathENS_9allocatorIS2_EEE16__init_with_sizeB7v170001IPS2_S7_EEvT_T0_y
PUBLIC 3c7e0 0 ZNSt3__122__compressed_pair_elemINS_9allocatorIN4base8FilePathEEELi1ELb1EEC2B7v170001IS4_vEEOT_
PUBLIC 3c800 0 ZNSt3__122__make_exception_guardB7v170001INS_6vectorIN4base8FilePathENS_9allocatorIS3_EEE16__destroy_vectorEEENS_28__exception_guard_exceptionsIT_EES9_
PUBLIC 3c840 0 ZNSt3__16vectorIN4base8FilePathENS_9allocatorIS2_EEE11__vallocateB7v170001Ey
PUBLIC 3c8f0 0 ZNSt3__16vectorIN4base8FilePathENS_9allocatorIS2_EEE18__construct_at_endIPS2_S7_EEvT_T0_y
PUBLIC 3c990 0 ZNSt3__128__exception_guard_exceptionsINS_6vectorIN4base8FilePathENS_9allocatorIS3_EEE16__destroy_vectorEE10__completeB7v170001Ev
PUBLIC 3c9a0 0 ZNSt3__128__exception_guard_exceptionsINS_6vectorIN4base8FilePathENS_9allocatorIS3_EEE16__destroy_vectorEED2B7v170001Ev
PUBLIC 3c9e0 0 ZNSt3__128__exception_guard_exceptionsINS_6vectorIN4base8FilePathENS_9allocatorIS3_EEE16__destroy_vectorEEC2B7v170001ES7_
PUBLIC 3ca10 0 ZNSt3__116allocator_traitsINS_9allocatorIN4base8FilePathEEEE8max_sizeB7v170001IS4_vEEyRKS4_
PUBLIC 3ca30 0 ZNKSt3__19allocatorIN4base8FilePathEE8max_sizeB7v170001Ev
PUBLIC 3ca50 0 ZNSt3__130__uninitialized_allocator_copyB7v170001INS_9allocatorIN4base8FilePathEEEPS3_S5_S5_EET2_RT_T0_T1_S6_
PUBLIC 3cae0 0 ZNSt3__114__unwrap_rangeB7v170001IPN4base8FilePathES3_EENS_4pairIT0_S5_EET_S7_
PUBLIC 3cb40 0 ZNSt3__135__uninitialized_allocator_copy_implB7v170001INS_9allocatorIN4base8FilePathEEEPS3_S5_S5_EET2_RT_T0_T1_S6_
PUBLIC 3cc80 0 ZNSt3__113__unwrap_iterB7v170001IPN4base8FilePathENS_18__unwrap_iter_implIS3_Lb1EEELi0EEEDTclsrT0_8__unwrapclsr3stdE7declvalIT_EEEES7_
PUBLIC 3cca0 0 ZNSt3__113__rewrap_iterB7v170001IPN4base8FilePathES3_NS_18__unwrap_iter_implIS3_Lb1EEEEET_S6_T0_
PUBLIC 3cce0 0 ZNSt3__19make_pairB7v170001IPN4base8FilePathES3_EENS_4pairINS_18__unwrap_ref_decayIT_E4typeENS5_IT0_E4typeEEEOS6_OS9_
PUBLIC 3cd20 0 ZNSt3__14pairIPN4base8FilePathES3_EC2B7v170001IS3_S3_LPv0EEEOT_OT0_
PUBLIC 3cd60 0 ZNSt3__122__make_exception_guardB7v170001INS_29_AllocatorDestroyRangeReverseINS_9allocatorIN4base8FilePathEEEPS4_EEEENS_28__exception_guard_exceptionsIT_EES9_
PUBLIC 3cdb0 0 ZNSt3__129_AllocatorDestroyRangeReverseINS_9allocatorIN4base8FilePathEEEPS3_EC2B7v170001ERS4_RS5_S8_
PUBLIC 3cdf0 0 ZNSt3__116allocator_traitsINS_9allocatorIN4base8FilePathEEEE9constructB7v170001IS3_JRS3_EvEEvRS4_PT_DpOT0_
PUBLIC 3ce20 0 ZNSt3__128__exception_guard_exceptionsINS_29_AllocatorDestroyRangeReverseINS_9allocatorIN4base8FilePathEEEPS4_EEE10__completeB7v170001Ev
PUBLIC 3ce30 0 ZNSt3__128__exception_guard_exceptionsINS_29_AllocatorDestroyRangeReverseINS_9allocatorIN4base8FilePathEEEPS4_EEED2B7v170001Ev
PUBLIC 3ce70 0 ZNSt3__128__exception_guard_exceptionsINS_29_AllocatorDestroyRangeReverseINS_9allocatorIN4base8FilePathEEEPS4_EEEC2B7v170001ES7_
PUBLIC 3ceb0 0 ZNSt3__19allocatorIN4base8FilePathEE9constructB7v170001IS2_JRS2_EEEvPT_DpOT0_
PUBLIC 3cee0 0 ZNKSt3__129_AllocatorDestroyRangeReverseINS_9allocatorIN4base8FilePathEEEPS3_EclB7v170001Ev
PUBLIC 3cf40 0 ZNSt3__119__allocator_destroyB7v170001INS_9allocatorIN4base8FilePathEEENS_16reverse_iteratorIPS3_EES7_EEvRT_T0_T1_
PUBLIC 3cfb0 0 ZNSt3__116allocator_traitsINS_9allocatorIN4base8FilePathEEEE7destroyB7v170001IS3_vEEvRS4_PT_
PUBLIC 3cfe0 0 ZNSt3__19allocatorIN4base8FilePathEE7destroyB7v170001EPS2_
PUBLIC 3d000 0 ZNSt3__118__unwrap_iter_implIPN4base8FilePathELb1EE8__unwrapB7v170001ES3_
PUBLIC 3d020 0 ZNSt3__118__unwrap_iter_implIPN4base8FilePathELb1EE8__rewrapB7v170001ES3_S3_
PUBLIC 3d080 0 ZN4base6subtle13Release_StoreEPVxx
PUBLIC 3d0b0 0 ZNVSt3__113__atomic_baseIxLb0EE5storeB7v170001ExNS_12memory_orderE
PUBLIC 3d0e0 0 ZNSt3__118__cxx_atomic_storeB7v170001IxEEvPVNS_22__cxx_atomic_base_implIT_EES2_NS_12memory_orderE
PUBLIC 3d170 0 ZNSt3__16vectorINS_12basic_stringIcNS_11char_traitsIcEENS_9allocatorIcEEEENS4_IS6_EEE5beginB7v170001Ev
PUBLIC 3d1a0 0 ZNSt3__16vectorINS_12basic_stringIcNS_11char_traitsIcEENS_9allocatorIcEEEENS4_IS6_EEE3endB7v170001Ev
PUBLIC 3d1d0 0 ZNSt3__1neB7v170001IPNS_12basic_stringIcNS_11char_traitsIcEENS_9allocatorIcEEEEEEbRKNS_11__wrap_iterIT_EESC_
PUBLIC 3d200 0 ZNKSt3__111__wrap_iterIPNS_12basic_stringIcNS_11char_traitsIcEENS_9allocatorIcEEEEEdeB7v170001Ev
PUBLIC 3d210 0 ZNSt3__111__wrap_iterIPNS_12basic_stringIcNS_11char_traitsIcEENS_9allocatorIcEEEEEppB7v170001Ev
PUBLIC 3d230 0 ZNSt3__13mapINS_12basic_stringIcNS_11char_traitsIcEENS_9allocatorIcEEEES6_NS_4lessIS6_EENS4_INS_4pairIKS6_S6_EEEEE5beginB7v170001Ev
PUBLIC 3d270 0 ZNSt3__13mapINS_12basic_stringIcNS_11char_traitsIcEENS_9allocatorIcEEEES6_NS_4lessIS6_EENS4_INS_4pairIKS6_S6_EEEEE3endB7v170001Ev
PUBLIC 3d2b0 0 ZNSt3__1neB7v170001ERKNS_14__map_iteratorINS_15__tree_iteratorINS_12__value_typeINS_12basic_stringIcNS_11char_traitsIcEENS_9allocatorIcEEEES8_EEPNS_11__tree_nodeIS9_PvEExEEEESH_
PUBLIC 3d2e0 0 ZNKSt3__114__map_iteratorINS_15__tree_iteratorINS_12__value_typeINS_12basic_stringIcNS_11char_traitsIcEENS_9allocatorIcEEEES8_EEPNS_11__tree_nodeIS9_PvEExEEEdeB7v170001Ev
PUBLIC 3d310 0 ZNSt3__1plB7v170001IcNS_11char_traitsIcEENS_9allocatorIcEEEENS_12basic_stringIT_T0_T1_EERKS9_S6_
PUBLIC 3d420 0 ZNSt3__114__map_iteratorINS_15__tree_iteratorINS_12__value_typeINS_12basic_stringIcNS_11char_traitsIcEENS_9allocatorIcEEEES8_EEPNS_11__tree_nodeIS9_PvEExEEEppB7v170001Ev
PUBLIC 3d450 0 ZNSt3__16vectorIN4base8FilePathENS_9allocatorIS2_EEE5beginB7v170001Ev
PUBLIC 3d480 0 ZNSt3__16vectorIN4base8FilePathENS_9allocatorIS2_EEE3endB7v170001Ev
PUBLIC 3d4b0 0 ZNSt3__1neB7v170001IPN4base8FilePathEEEbRKNS_11__wrap_iterIT_EES8_
PUBLIC 3d4e0 0 ZNKSt3__111__wrap_iterIPN4base8FilePathEEdeB7v170001Ev
PUBLIC 3d4f0 0 ZNSt3__111__wrap_iterIPN4base8FilePathEEppB7v170001Ev
PUBLIC 3d510 0 ZN4base13ScopedGenericIPvN8crashpad8internal29ScopedKernelHANDLECloseTraitsEEC2ERKS1_
PUBLIC 3d540 0 ZNSt3__16vectorIPvNS_9allocatorIS1_EEEC2B7v170001Ev
PUBLIC 3d590 0 ZNSt3__110unique_ptrIA_hNS_14default_deleteIS1_EEEC2B7v170001ILb1EvEEv
PUBLIC 3d5c0 0 ZN8crashpad8internal11GetFunctionIFiP27_PROC_THREAD_ATTRIBUTE_LISTmmPyEEEPT_PKwPKcb
PUBLIC 3d600 0 ZN8crashpad8internal11GetFunctionIFiP27_PROC_THREAD_ATTRIBUTE_LISTmyPvyS4_PyEEEPT_PKwPKcb
PUBLIC 3d640 0 ZNSt3__110unique_ptrIA_hNS_14default_deleteIS1_EEE5resetB7v170001IPhEENS_9enable_ifIXsr28_CheckArrayPointerConversionIT_EE5valueEvE4typeES8_
PUBLIC 3d6b0 0 ZNKSt3__110unique_ptrIA_hNS_14default_deleteIS1_EEE3getB7v170001Ev
PUBLIC 3d6d0 0 ZNSt3__16vectorIPvNS_9allocatorIS1_EEE7reserveEy
PUBLIC 3d7f0 0 ZNSt3__16vectorIPvNS_9allocatorIS1_EEE9push_backB7v170001ERKS1_
PUBLIC 3d850 0 ZNSt3__16vectorIPvNS_9allocatorIS1_EEEixB7v170001Ey
PUBLIC 3d880 0 ZNKSt3__16vectorIPvNS_9allocatorIS1_EEE4sizeB7v170001Ev
PUBLIC 3d8a0 0 ZNK4base16BasicStringPieceINSt3__112basic_stringIwNS1_11char_traitsIwEENS1_9allocatorIwEEEEE4sizeEv
PUBLIC 3d8b0 0 ZNK4base16BasicStringPieceINSt3__112basic_stringIwNS1_11char_traitsIwEENS1_9allocatorIwEEEEE4dataEv
PUBLIC 3d8c0 0 ZNSt3__110unique_ptrIA_hNS_14default_deleteIS1_EEED2B7v170001Ev
PUBLIC 3d8e0 0 ZNSt3__16vectorIPvNS_9allocatorIS1_EEED2B7v170001Ev
PUBLIC 3d920 0 ZNSt3__16vectorINS_12basic_stringIcNS_11char_traitsIcEENS_9allocatorIcEEEENS4_IS6_EEE11__make_iterB7v170001EPS6_
PUBLIC 3d950 0 ZNSt3__111__wrap_iterIPNS_12basic_stringIcNS_11char_traitsIcEENS_9allocatorIcEEEEEC2B7v170001ES7_
PUBLIC 3d970 0 ZNSt3__1eqB7v170001IPNS_12basic_stringIcNS_11char_traitsIcEENS_9allocatorIcEEEEEEbRKNS_11__wrap_iterIT_EESC_
PUBLIC 3d9b0 0 ZNKSt3__111__wrap_iterIPNS_12basic_stringIcNS_11char_traitsIcEENS_9allocatorIcEEEEE4baseB7v170001Ev
PUBLIC 3d9c0 0 ZNSt3__1plB7v170001IwNS_11char_traitsIwEENS_9allocatorIwEEEENS_12basic_stringIT_T0_T1_EEOS9_RKS9_
PUBLIC 3da10 0 ZNSt3__1plB7v170001IwNS_11char_traitsIwEENS_9allocatorIwEEEENS_12basic_stringIT_T0_T1_EEOS9_SA_
PUBLIC 3da60 0 ZNSt3__1neB7v170001ERKNS_15__tree_iteratorINS_12__value_typeINS_12basic_stringIcNS_11char_traitsIcEENS_9allocatorIcEEEES7_EEPNS_11__tree_nodeIS8_PvEExEESF_
PUBLIC 3da90 0 ZNSt3__1eqB7v170001ERKNS_15__tree_iteratorINS_12__value_typeINS_12basic_stringIcNS_11char_traitsIcEENS_9allocatorIcEEEES7_EEPNS_11__tree_nodeIS8_PvEExEESF_
PUBLIC 3dac0 0 ZNSt3__116allocator_traitsINS_9allocatorIcEEE37select_on_container_copy_constructionB7v170001IS2_vvEES2_RKS2_
PUBLIC 3dae0 0 ZNSt3__112basic_stringIcNS_11char_traitsIcEENS_9allocatorIcEEEC2B7v170001ENS_24__uninitialized_size_tagEyRKS4_
PUBLIC 3dc20 0 ZNSt3__111char_traitsIcE4copyB7v170001EPcPKcy
PUBLIC 3dc60 0 ZNSt3__111char_traitsIcE6assignB7v170001EPcyc
PUBLIC 3dca0 0 ZNSt3__16copy_nB7v170001IPKcyPcEENS_9enable_ifIXsr37__has_random_access_iterator_categoryIT_EE5valueET1_E4typeES5_T0_S6_
PUBLIC 3dce0 0 ZNSt3__14copyB7v170001IPKcPcEET0_T_S5_S4_
PUBLIC 3dd20 0 ZNSt3__16__copyB7v170001INS_17_ClassicAlgPolicyEPKcS3_PcEENS_4pairIT0_T2_EES6_T1_S7_
PUBLIC 3dd60 0 ZNSt3__123__dispatch_copy_or_moveB7v170001INS_17_ClassicAlgPolicyENS_11__copy_loopIS1_EENS_14__copy_trivialEPKcS6_PcEENS_4pairIT2_T4_EES9_T3_SA_
PUBLIC 3dda0 0 ZNSt3__121__unwrap_and_dispatchB7v170001INS_10__overloadINS_11__copy_loopINS_17_ClassicAlgPolicyEEENS_14__copy_trivialEEEPKcS8_PcLi0EEENS_4pairIT0_T2_EESB_T1_SC_
PUBLIC 3de80 0 ZNSt3__114__unwrap_rangeB7v170001IPKcS2_EENS_4pairIT0_S4_EET_S6_
PUBLIC 3dee0 0 ZNKSt3__114__copy_trivialclB7v170001IKccLi0EEENS_4pairIPT_PT0_EES5_S5_S7_
PUBLIC 3df30 0 ZNSt3__113__unwrap_iterB7v170001IPcNS_18__unwrap_iter_implIS1_Lb1EEELi0EEEDTclsrT0_8__unwrapclsr3stdE7declvalIT_EEEES5_
PUBLIC 3df50 0 ZNSt3__19make_pairB7v170001IPKcPcEENS_4pairINS_18__unwrap_ref_decayIT_E4typeENS5_IT0_E4typeEEEOS6_OS9_
PUBLIC 3df90 0 ZNSt3__114__rewrap_rangeB7v170001IPKcS2_EET_S3_T0_
PUBLIC 3dfc0 0 ZNSt3__113__rewrap_iterB7v170001IPcS1_NS_18__unwrap_iter_implIS1_Lb1EEEEET_S4_T0_
PUBLIC 3e000 0 ZNSt3__19make_pairB7v170001IPKcS2_EENS_4pairINS_18__unwrap_ref_decayIT_E4typeENS4_IT0_E4typeEEEOS5_OS8_
PUBLIC 3e040 0 ZNSt3__113__unwrap_iterB7v170001IPKcNS_18__unwrap_iter_implIS2_Lb1EEELi0EEEDTclsrT0_8__unwrapclsr3stdE7declvalIT_EEEES6_
PUBLIC 3e060 0 ZNSt3__14pairIPKcS2_EC2B7v170001IS2_S2_LPv0EEEOT_OT0_
PUBLIC 3e0a0 0 ZNSt3__118__unwrap_iter_implIPKcLb1EE8__unwrapB7v170001ES2_
PUBLIC 3e0c0 0 ZNSt3__119__copy_trivial_implB7v170001IKccEENS_4pairIPT_PT0_EES4_S4_S6_
PUBLIC 3e140 0 ZNSt3__119__constexpr_memmoveB7v170001IcKcLi0EEEPT_S3_PT0_NS_15__element_countE
PUBLIC 3e1a0 0 ZNSt3__19make_pairB7v170001IRPKcPcEENS_4pairINS_18__unwrap_ref_decayIT_E4typeENS6_IT0_E4typeEEEOS7_OSA_
PUBLIC 3e1e0 0 ZNSt3__14pairIPKcPcEC2B7v170001IRS2_S3_LPv0EEEOT_OT0_
PUBLIC 3e220 0 ZNSt3__118__unwrap_iter_implIPcLb1EE8__unwrapB7v170001ES1_
PUBLIC 3e240 0 ZNSt3__14pairIPKcPcEC2B7v170001IS2_S3_LPv0EEEOT_OT0_
PUBLIC 3e280 0 ZNSt3__113__rewrap_iterB7v170001IPKcS2_NS_18__unwrap_iter_implIS2_Lb1EEEEET_S5_T0_
PUBLIC 3e2c0 0 ZNSt3__118__unwrap_iter_implIPKcLb1EE8__rewrapB7v170001ES2_S2_
PUBLIC 3e310 0 ZNSt3__118__unwrap_iter_implIPcLb1EE8__rewrapB7v170001ES1_S1_
PUBLIC 3e360 0 ZNSt3__16fill_nB7v170001IPcycEET_S2_T0_RKT1_
PUBLIC 3e3a0 0 ZNSt3__18__fill_nB7v170001IPcycEET_S2_T0_RKT1_
PUBLIC 3e400 0 ZNSt3__121__convert_to_integralB7v170001Ey
PUBLIC 3e410 0 ZNSt3__115__tree_iteratorINS_12__value_typeINS_12basic_stringIcNS_11char_traitsIcEENS_9allocatorIcEEEES7_EEPNS_11__tree_nodeIS8_PvEExEppB7v170001Ev
PUBLIC 3e440 0 ZNSt3__16vectorIN4base8FilePathENS_9allocatorIS2_EEE11__make_iterB7v170001EPS2_
PUBLIC 3e470 0 ZNSt3__111__wrap_iterIPN4base8FilePathEEC2B7v170001ES3_
PUBLIC 3e490 0 ZNSt3__1eqB7v170001IPN4base8FilePathEEEbRKNS_11__wrap_iterIT_EES8_
PUBLIC 3e4d0 0 ZNKSt3__111__wrap_iterIPN4base8FilePathEE4baseB7v170001Ev
PUBLIC 3e4e0 0 ZN4base13ScopedGenericIPvN8crashpad8internal29ScopedKernelHANDLECloseTraitsEE4DataC2ERKS1_
PUBLIC 3e510 0 ZNSt3__117__compressed_pairIPPvNS_9allocatorIS1_EEEC2B7v170001IDnNS_18__default_init_tagEEEOT_OT0_
PUBLIC 3e550 0 ZNSt3__122__compressed_pair_elemIPPvLi0ELb0EEC2B7v170001IDnvEEOT_
PUBLIC 3e570 0 ZNSt3__122__compressed_pair_elemINS_9allocatorIPvEELi1ELb1EEC2B7v170001ENS_18__default_init_tagE
PUBLIC 3e590 0 ZNSt3__19allocatorIPvEC2B7v170001Ev
PUBLIC 3e5b0 0 ZNSt3__116__non_trivial_ifILb1ENS_9allocatorIPvEEEC2B7v170001Ev
PUBLIC 3e5c0 0 ZNSt3__117__compressed_pairIPhNS_14default_deleteIA_hEEEC2B7v170001INS_16__value_init_tagES7_EEOT_OT0_
PUBLIC 3e600 0 ZNSt3__122__compressed_pair_elemIPhLi0ELb0EEC2B7v170001ENS_16__value_init_tagE
PUBLIC 3e620 0 ZNSt3__122__compressed_pair_elemINS_14default_deleteIA_hEELi1ELb1EEC2B7v170001ENS_16__value_init_tagE
PUBLIC 3e640 0 ZNSt3__117__compressed_pairIPhNS_14default_deleteIA_hEEE5firstB7v170001Ev
PUBLIC 3e660 0 ZNSt3__117__compressed_pairIPhNS_14default_deleteIA_hEEE6secondB7v170001Ev
PUBLIC 3e680 0 ZNKSt3__114default_deleteIA_hEclB7v170001IhEENS2_20_EnableIfConvertibleIT_E4typeEPS5_
PUBLIC 3e6c0 0 ZNSt3__122__compressed_pair_elemIPhLi0ELb0EE5__getB7v170001Ev
PUBLIC 3e6d0 0 ZNSt3__122__compressed_pair_elemINS_14default_deleteIA_hEELi1ELb1EE5__getB7v170001Ev
PUBLIC 3e6e0 0 ZNKSt3__117__compressed_pairIPhNS_14default_deleteIA_hEEE5firstB7v170001Ev
PUBLIC 3e700 0 ZNKSt3__122__compressed_pair_elemIPhLi0ELb0EE5__getB7v170001Ev
PUBLIC 3e710 0 ZN8crashpad8internal11GetFunctionIFvP27_PROC_THREAD_ATTRIBUTE_LISTEEEPT_PKwPKcb
PUBLIC 3e750 0 ZNKSt3__16vectorIPvNS_9allocatorIS1_EEE8capacityB7v170001Ev
PUBLIC 3e780 0 ZNKSt3__16vectorIPvNS_9allocatorIS1_EEE8max_sizeEv
PUBLIC 3e7e0 0 ZNKSt3__16vectorIPvNS_9allocatorIS1_EEE20__throw_length_errorB7v170001Ev
PUBLIC 3e800 0 ZNSt3__16vectorIPvNS_9allocatorIS1_EEE7__allocB7v170001Ev
PUBLIC 3e820 0 ZNSt3__114__split_bufferIPvRNS_9allocatorIS1_EEEC2EyyS4_
PUBLIC 3e8f0 0 ZNSt3__16vectorIPvNS_9allocatorIS1_EEE26__swap_out_circular_bufferERNS_14__split_bufferIS1_RS3_EE
PUBLIC 3ea40 0 ZNSt3__114__split_bufferIPvRNS_9allocatorIS1_EEED2Ev
PUBLIC 3eac0 0 ZNKSt3__16vectorIPvNS_9allocatorIS1_EEE9__end_capB7v170001Ev
PUBLIC 3eae0 0 ZNKSt3__117__compressed_pairIPPvNS_9allocatorIS1_EEE5firstB7v170001Ev
PUBLIC 3eb00 0 ZNKSt3__122__compressed_pair_elemIPPvLi0ELb0EE5__getB7v170001Ev
PUBLIC 3eb10 0 ZNSt3__116allocator_traitsINS_9allocatorIPvEEE8max_sizeB7v170001IS3_vEEyRKS3_
PUBLIC 3eb30 0 ZNKSt3__16vectorIPvNS_9allocatorIS1_EEE7__allocB7v170001Ev
PUBLIC 3eb50 0 ZNKSt3__19allocatorIPvE8max_sizeB7v170001Ev
PUBLIC 3eb70 0 ZNKSt3__117__compressed_pairIPPvNS_9allocatorIS1_EEE6secondB7v170001Ev
PUBLIC 3eb90 0 ZNKSt3__122__compressed_pair_elemINS_9allocatorIPvEELi1ELb1EE5__getB7v170001Ev
PUBLIC 3eba0 0 ZNSt3__117__compressed_pairIPPvNS_9allocatorIS1_EEE6secondB7v170001Ev
PUBLIC 3ebc0 0 ZNSt3__122__compressed_pair_elemINS_9allocatorIPvEELi1ELb1EE5__getB7v170001Ev
PUBLIC 3ebd0 0 ZNSt3__117__compressed_pairIPPvRNS_9allocatorIS1_EEEC2B7v170001IDnS5_EEOT_OT0_
PUBLIC 3ec10 0 ZNSt3__119__allocate_at_leastB7v170001INS_9allocatorIPvEEEENS_19__allocation_resultINS_16allocator_traitsIT_E7pointerEEERS6_y
PUBLIC 3ec60 0 ZNSt3__114__split_bufferIPvRNS_9allocatorIS1_EEE7__allocB7v170001Ev
PUBLIC 3ec80 0 ZNSt3__114__split_bufferIPvRNS_9allocatorIS1_EEE9__end_capB7v170001Ev
PUBLIC 3eca0 0 ZNSt3__122__compressed_pair_elemIRNS_9allocatorIPvEELi1ELb0EEC2B7v170001IS4_vEEOT_
PUBLIC 3ecc0 0 ZNSt3__19allocatorIPvE8allocateB7v170001Ey
PUBLIC 3ed20 0 ZNSt3__117__compressed_pairIPPvRNS_9allocatorIS1_EEE6secondB7v170001Ev
PUBLIC 3ed40 0 ZNSt3__122__compressed_pair_elemIRNS_9allocatorIPvEELi1ELb0EE5__getB7v170001Ev
PUBLIC 3ed50 0 ZNSt3__117__compressed_pairIPPvRNS_9allocatorIS1_EEE5firstB7v170001Ev
PUBLIC 3ed70 0 ZNSt3__122__compressed_pair_elemIPPvLi0ELb0EE5__getB7v170001Ev
PUBLIC 3ed80 0 ZNKSt3__16vectorIPvNS_9allocatorIS1_EEE17__annotate_deleteB7v170001Ev
PUBLIC 3ee50 0 ZNSt3__142__uninitialized_allocator_move_if_noexceptB7v170001INS_9allocatorIPvEENS_16reverse_iteratorIPS2_EES6_S2_vEET1_RT_T0_SA_S7_
PUBLIC 3eed0 0 ZNSt3__116reverse_iteratorIPPvEC2B7v170001ES2_
PUBLIC 3ef00 0 ZNKSt3__116reverse_iteratorIPPvE4baseB7v170001Ev
PUBLIC 3ef10 0 ZNSt3__14swapB7v170001IPPvEENS_9enable_ifIXaasr21is_move_constructibleIT_EE5valuesr18is_move_assignableIS4_EE5valueEvE4typeERS4_S7_
PUBLIC 3ef50 0 ZNSt3__16vectorIPvNS_9allocatorIS1_EEE9__end_capB7v170001Ev
PUBLIC 3ef70 0 ZNKSt3__16vectorIPvNS_9allocatorIS1_EEE14__annotate_newB7v170001Ey
PUBLIC 3f030 0 ZNKSt3__16vectorIPvNS_9allocatorIS1_EEE31__annotate_contiguous_containerB7v170001EPKvS6_S6_S6_
PUBLIC 3f060 0 ZNKSt3__16vectorIPvNS_9allocatorIS1_EEE4dataB7v170001Ev
PUBLIC 3f080 0 ZNSt3__112__to_addressB7v170001IPvEEPT_S3_
PUBLIC 3f090 0 ZNSt3__14moveB7v170001INS_16reverse_iteratorIPPvEES4_EET0_T_S6_S5_
PUBLIC 3f140 0 ZNSt3__16__moveB7v170001INS_17_ClassicAlgPolicyENS_16reverse_iteratorIPPvEES5_S5_EENS_4pairIT0_T2_EES7_T1_S8_
PUBLIC 3f1c0 0 ZNSt3__123__dispatch_copy_or_moveB7v170001INS_17_ClassicAlgPolicyENS_11__move_loopIS1_EENS_14__move_trivialENS_16reverse_iteratorIPPvEES8_S8_EENS_4pairIT2_T4_EESA_T3_SB_
PUBLIC 3f240 0 ZNSt3__121__unwrap_and_dispatchB7v170001INS_10__overloadINS_11__move_loopINS_17_ClassicAlgPolicyEEENS_14__move_trivialEEENS_16reverse_iteratorIPPvEESA_SA_Li0EEENS_4pairIT0_T2_EESC_T1_SD_
PUBLIC 3f430 0 ZNSt3__114__unwrap_rangeB7v170001INS_16reverse_iteratorIPPvEES4_EENS_4pairIT0_S6_EET_S8_
PUBLIC 3f4d0 0 ZNKSt3__111__move_loopINS_17_ClassicAlgPolicyEEclB7v170001INS_16reverse_iteratorIPPvEES7_S7_EENS_4pairIT_T1_EES9_T0_SA_
PUBLIC 3f590 0 ZNSt3__113__unwrap_iterB7v170001INS_16reverse_iteratorIPPvEENS_18__unwrap_iter_implIS4_Lb0EEELi0EEEDTclsrT0_8__unwrapclsr3stdE7declvalIT_EEEES8_
PUBLIC 3f5d0 0 ZNSt3__19make_pairB7v170001INS_16reverse_iteratorIPPvEES4_EENS_4pairINS_18__unwrap_ref_decayIT_E4typeENS6_IT0_E4typeEEEOS7_OSA_
PUBLIC 3f610 0 ZNSt3__114__rewrap_rangeB7v170001INS_16reverse_iteratorIPPvEES4_EET_S5_T0_
PUBLIC 3f670 0 ZNSt3__113__rewrap_iterB7v170001INS_16reverse_iteratorIPPvEES4_NS_18__unwrap_iter_implIS4_Lb0EEEEET_S7_T0_
PUBLIC 3f6d0 0 ZNSt3__1neB7v170001IPPvS2_EEbRKNS_16reverse_iteratorIT_EERKNS3_IT0_EE
PUBLIC 3f710 0 ZNSt3__18_IterOpsINS_17_ClassicAlgPolicyEE11__iter_moveB7v170001IRNS_16reverse_iteratorIPPvEEEENS_9enable_ifIXsr12is_referenceIDTdeclsr3stdE7declvalIRT_EEEEE5valueEDTclsr3stdE4movedeclsr3stdE7declvalISB_EEEEE4typeEOSA_
PUBLIC 3f730 0 ZNKSt3__116reverse_iteratorIPPvEdeB7v170001Ev
PUBLIC 3f760 0 ZNSt3__116reverse_iteratorIPPvEppB7v170001Ev
PUBLIC 3f780 0 ZNSt3__18_IterOpsINS_17_ClassicAlgPolicyEE25__validate_iter_referenceB7v170001IRNS_16reverse_iteratorIPPvEEEEvv
PUBLIC 3f790 0 ZNSt3__118__unwrap_iter_implINS_16reverse_iteratorIPPvEELb0EE8__unwrapB7v170001ES4_
PUBLIC 3f7c0 0 ZNSt3__14pairINS_16reverse_iteratorIPPvEES4_EC2B7v170001IS4_S4_LS2_0EEEOT_OT0_
PUBLIC 3f810 0 ZNSt3__118__unwrap_iter_implINS_16reverse_iteratorIPPvEELb0EE8__rewrapB7v170001ES4_S4_
PUBLIC 3f840 0 ZNSt3__117__compressed_pairIPPvNS_9allocatorIS1_EEE5firstB7v170001Ev
PUBLIC 3f860 0 ZNSt3__114__split_bufferIPvRNS_9allocatorIS1_EEE5clearB7v170001Ev
PUBLIC 3f880 0 ZNSt3__116allocator_traitsINS_9allocatorIPvEEE10deallocateB7v170001ERS3_PS2_y
PUBLIC 3f8b0 0 ZNKSt3__114__split_bufferIPvRNS_9allocatorIS1_EEE8capacityB7v170001Ev
PUBLIC 3f8e0 0 ZNSt3__114__split_bufferIPvRNS_9allocatorIS1_EEE17__destruct_at_endB7v170001EPS1_
PUBLIC 3f910 0 ZNSt3__114__split_bufferIPvRNS_9allocatorIS1_EEE17__destruct_at_endB7v170001EPS1_NS_17integral_constantIbLb0EEE
PUBLIC 3f990 0 ZNSt3__116allocator_traitsINS_9allocatorIPvEEE7destroyB7v170001IS2_vEEvRS3_PT_
PUBLIC 3f9c0 0 ZNSt3__19allocatorIPvE7destroyB7v170001EPS1_
PUBLIC 3f9e0 0 ZNSt3__19allocatorIPvE10deallocateB7v170001EPS1_y
PUBLIC 3fa20 0 ZNKSt3__114__split_bufferIPvRNS_9allocatorIS1_EEE9__end_capB7v170001Ev
PUBLIC 3fa40 0 ZNKSt3__117__compressed_pairIPPvRNS_9allocatorIS1_EEE5firstB7v170001Ev
PUBLIC 3fa60 0 ZNSt3__16vectorIPvNS_9allocatorIS1_EEE22__construct_one_at_endB7v170001IJRKS1_EEEvDpOT_
PUBLIC 3fb00 0 ZNSt3__16vectorIPvNS_9allocatorIS1_EEE21__push_back_slow_pathIRKS1_EEvOT_
PUBLIC 3fbf0 0 ZNSt3__16vectorIPvNS_9allocatorIS1_EEE21_ConstructTransactionC2B7v170001ERS4_y
PUBLIC 3fc40 0 ZNSt3__116allocator_traitsINS_9allocatorIPvEEE9constructB7v170001IS2_JRKS2_EvEEvRS3_PT_DpOT0_
PUBLIC 3fc70 0 ZNSt3__16vectorIPvNS_9allocatorIS1_EEE21_ConstructTransactionD2B7v170001Ev
PUBLIC 3fc90 0 ZNSt3__19allocatorIPvE9constructB7v170001IS1_JRKS1_EEEvPT_DpOT0_
PUBLIC 3fcc0 0 ZNKSt3__16vectorIPvNS_9allocatorIS1_EEE11__recommendB7v170001Ey
PUBLIC 3fd60 0 ZNSt3__1eqB7v170001IPPvEEbRKNS_11__wrap_iterIT_EES7_
PUBLIC 3fda0 0 ZNSt3__14findB7v170001INS_11__wrap_iterIPPvEES2_EET_S5_S5_RKT0_
PUBLIC 3fe20 0 ZNSt3__16vectorIPvNS_9allocatorIS1_EEE5beginB7v170001Ev
PUBLIC 3fe50 0 ZNSt3__16vectorIPvNS_9allocatorIS1_EEE3endB7v170001Ev
PUBLIC 3fe80 0 ZNKSt3__111__wrap_iterIPPvE4baseB7v170001Ev
PUBLIC 3fe90 0 ZNSt3__113__rewrap_iterB7v170001INS_11__wrap_iterIPPvEES3_NS_18__unwrap_iter_implIS4_Lb1EEEEET_S7_T0_
PUBLIC 3fee0 0 ZNSt3__111__find_implB7v170001IPPvS2_S1_NS_10__identityEEET_S4_T0_RKT1_RT2_
PUBLIC 3ff50 0 ZNSt3__113__unwrap_iterB7v170001INS_11__wrap_iterIPPvEENS_18__unwrap_iter_implIS4_Lb1EEELi0EEEDTclsrT0_8__unwrapclsr3stdE7declvalIT_EEEES8_
PUBLIC 3ff80 0 ZNSt3__118__unwrap_iter_implINS_11__wrap_iterIPPvEELb1EE8__rewrapB7v170001ES4_S3_
PUBLIC 3ffd0 0 ZNKSt3__111__wrap_iterIPPvEplB7v170001Ex
PUBLIC 40010 0 ZNSt3__112__to_addressB7v170001INS_11__wrap_iterIPPvEEvEEu7__decayIDTclsr19__to_address_helperIT_EE6__callclsr3stdE7declvalIRKS5_EEEEES7_
PUBLIC 40030 0 ZNSt3__111__wrap_iterIPPvEpLB7v170001Ex
PUBLIC 40060 0 ZNSt3__119__to_address_helperINS_11__wrap_iterIPPvEEvE6__callB7v170001ERKS4_
PUBLIC 40090 0 ZNSt3__114pointer_traitsINS_11__wrap_iterIPPvEEE10to_addressB7v170001ES4_
PUBLIC 400c0 0 ZNSt3__18__invokeB7v170001IRNS_10__identityEJRPvEEEDTclclsr3stdE7declvalIT_EEspclsr3stdE7declvalIT0_EEEEOS5_DpOS6_
PUBLIC 400f0 0 ZNKSt3__110__identityclB7v170001IRPvEEOT_S5_
PUBLIC 40110 0 ZNSt3__118__unwrap_iter_implINS_11__wrap_iterIPPvEELb1EE8__unwrapB7v170001ES4_
PUBLIC 40130 0 ZNSt3__16vectorIPvNS_9allocatorIS1_EEE11__make_iterB7v170001EPS1_
PUBLIC 40160 0 ZNSt3__111__wrap_iterIPPvEC2B7v170001ES2_
PUBLIC 40180 0 ZNSt3__110unique_ptrIA_hNS_14default_deleteIS1_EEE5resetB7v170001EDn
PUBLIC 401e0 0 ZNSt3__16vectorIPvNS_9allocatorIS1_EEE16__destroy_vectorC2B7v170001ERS4_
PUBLIC 40200 0 ZNSt3__16vectorIPvNS_9allocatorIS1_EEE16__destroy_vectorclB7v170001Ev
PUBLIC 40280 0 ZNSt3__16vectorIPvNS_9allocatorIS1_EEE7__clearB7v170001Ev
PUBLIC 402a0 0 ZNSt3__16vectorIPvNS_9allocatorIS1_EEE22__base_destruct_at_endB7v170001EPS1_
PUBLIC 40330 0 ZN4base6subtle12Acquire_LoadEPVKx
PUBLIC 40350 0 ZNVKSt3__113__atomic_baseIxLb0EE4loadB7v170001ENS_12memory_orderE
PUBLIC 40380 0 ZNSt3__117__cxx_atomic_loadB7v170001IxEET_PVKNS_22__cxx_atomic_base_implIS1_EENS_12memory_orderE
PUBLIC 40400 0 ZN4base4Lock7AcquireEv
PUBLIC 40430 0 ZN4base4Lock7ReleaseEv
PUBLIC 40460 0 ZN4base6subtle23Barrier_AtomicIncrementEPVxx
PUBLIC 404a0 0 ZNVSt3__113__atomic_baseIxLb1EE9fetch_addB7v170001ExNS_12memory_orderE
PUBLIC 404d0 0 ZNSt3__122__cxx_atomic_fetch_addB7v170001IxEET_PVNS_22__cxx_atomic_base_implIS1_EES1_NS_12memory_orderE
PUBLIC 405a0 0 ZNSt3__16vectorIhNS_9allocatorIhEEE9__end_capB7v170001Ev
PUBLIC 405c0 0 ZNSt3__16vectorIhNS_9allocatorIhEEE22__construct_one_at_endB7v170001IJhEEEvDpOT_
PUBLIC 40660 0 ZNSt3__16vectorIhNS_9allocatorIhEEE21__push_back_slow_pathIhEEvOT_
PUBLIC 40750 0 ZNSt3__117__compressed_pairIPhNS_9allocatorIhEEE5firstB7v170001Ev
PUBLIC 40770 0 ZNSt3__16vectorIhNS_9allocatorIhEEE21_ConstructTransactionC2B7v170001ERS3_y
PUBLIC 407c0 0 ZNSt3__116allocator_traitsINS_9allocatorIhEEE9constructB7v170001IhJhEvEEvRS2_PT_DpOT0_
PUBLIC 407f0 0 ZNSt3__16vectorIhNS_9allocatorIhEEE7__allocB7v170001Ev
PUBLIC 40810 0 ZNSt3__112__to_addressB7v170001IhEEPT_S2_
PUBLIC 40820 0 ZNSt3__16vectorIhNS_9allocatorIhEEE21_ConstructTransactionD2B7v170001Ev
PUBLIC 40840 0 ZNSt3__19allocatorIhE9constructB7v170001IhJhEEEvPT_DpOT0_
PUBLIC 40870 0 ZNSt3__117__compressed_pairIPhNS_9allocatorIhEEE6secondB7v170001Ev
PUBLIC 40890 0 ZNSt3__122__compressed_pair_elemINS_9allocatorIhEELi1ELb1EE5__getB7v170001Ev
PUBLIC 408a0 0 ZNKSt3__16vectorIhNS_9allocatorIhEEE11__recommendB7v170001Ey
PUBLIC 40940 0 ZNSt3__114__split_bufferIhRNS_9allocatorIhEEEC2EyyS3_
PUBLIC 40a10 0 ZNSt3__16vectorIhNS_9allocatorIhEEE26__swap_out_circular_bufferERNS_14__split_bufferIhRS2_EE
PUBLIC 40b60 0 ZNSt3__114__split_bufferIhRNS_9allocatorIhEEED2Ev
PUBLIC 40be0 0 ZNKSt3__16vectorIhNS_9allocatorIhEEE8max_sizeEv
PUBLIC 40c40 0 ZNKSt3__16vectorIhNS_9allocatorIhEEE20__throw_length_errorB7v170001Ev
PUBLIC 40c60 0 ZNKSt3__16vectorIhNS_9allocatorIhEEE8capacityB7v170001Ev
PUBLIC 40c90 0 ZNSt3__116allocator_traitsINS_9allocatorIhEEE8max_sizeB7v170001IS2_vEEyRKS2_
PUBLIC 40cb0 0 ZNKSt3__16vectorIhNS_9allocatorIhEEE7__allocB7v170001Ev
PUBLIC 40cd0 0 ZNKSt3__19allocatorIhE8max_sizeB7v170001Ev
PUBLIC 40ce0 0 ZNKSt3__117__compressed_pairIPhNS_9allocatorIhEEE6secondB7v170001Ev
PUBLIC 40d00 0 ZNKSt3__122__compressed_pair_elemINS_9allocatorIhEELi1ELb1EE5__getB7v170001Ev
PUBLIC 40d10 0 ZNKSt3__16vectorIhNS_9allocatorIhEEE9__end_capB7v170001Ev
PUBLIC 40d30 0 ZNKSt3__117__compressed_pairIPhNS_9allocatorIhEEE5firstB7v170001Ev
PUBLIC 40d50 0 ZNSt3__117__compressed_pairIPhRNS_9allocatorIhEEEC2B7v170001IDnS4_EEOT_OT0_
PUBLIC 40d90 0 ZNSt3__119__allocate_at_leastB7v170001INS_9allocatorIhEEEENS_19__allocation_resultINS_16allocator_traitsIT_E7pointerEEERS5_y
PUBLIC 40de0 0 ZNSt3__114__split_bufferIhRNS_9allocatorIhEEE7__allocB7v170001Ev
PUBLIC 40e00 0 ZNSt3__114__split_bufferIhRNS_9allocatorIhEEE9__end_capB7v170001Ev
PUBLIC 40e20 0 ZNSt3__122__compressed_pair_elemIPhLi0ELb0EEC2B7v170001IDnvEEOT_
PUBLIC 40e40 0 ZNSt3__122__compressed_pair_elemIRNS_9allocatorIhEELi1ELb0EEC2B7v170001IS3_vEEOT_
PUBLIC 40e60 0 ZNSt3__19allocatorIhE8allocateB7v170001Ey
PUBLIC 40ec0 0 ZNSt3__117__compressed_pairIPhRNS_9allocatorIhEEE6secondB7v170001Ev
PUBLIC 40ee0 0 ZNSt3__122__compressed_pair_elemIRNS_9allocatorIhEELi1ELb0EE5__getB7v170001Ev
PUBLIC 40ef0 0 ZNSt3__117__compressed_pairIPhRNS_9allocatorIhEEE5firstB7v170001Ev
PUBLIC 40f10 0 ZNKSt3__16vectorIhNS_9allocatorIhEEE17__annotate_deleteB7v170001Ev
PUBLIC 40fd0 0 ZNSt3__142__uninitialized_allocator_move_if_noexceptB7v170001INS_9allocatorIhEENS_16reverse_iteratorIPhEES5_hvEET1_RT_T0_S9_S6_
PUBLIC 41050 0 ZNSt3__116reverse_iteratorIPhEC2B7v170001ES1_
PUBLIC 41080 0 ZNKSt3__116reverse_iteratorIPhE4baseB7v170001Ev
PUBLIC 41090 0 ZNSt3__14swapB7v170001IPhEENS_9enable_ifIXaasr21is_move_constructibleIT_EE5valuesr18is_move_assignableIS3_EE5valueEvE4typeERS3_S6_
PUBLIC 410d0 0 ZNKSt3__16vectorIhNS_9allocatorIhEEE14__annotate_newB7v170001Ey
PUBLIC 41180 0 ZNKSt3__16vectorIhNS_9allocatorIhEEE31__annotate_contiguous_containerB7v170001EPKvS5_S5_S5_
PUBLIC 411b0 0 ZNKSt3__16vectorIhNS_9allocatorIhEEE4dataB7v170001Ev
PUBLIC 411d0 0 ZNSt3__14moveB7v170001INS_16reverse_iteratorIPhEES3_EET0_T_S5_S4_
PUBLIC 41280 0 ZNSt3__16__moveB7v170001INS_17_ClassicAlgPolicyENS_16reverse_iteratorIPhEES4_S4_EENS_4pairIT0_T2_EES6_T1_S7_
PUBLIC 41300 0 ZNSt3__123__dispatch_copy_or_moveB7v170001INS_17_ClassicAlgPolicyENS_11__move_loopIS1_EENS_14__move_trivialENS_16reverse_iteratorIPhEES7_S7_EENS_4pairIT2_T4_EES9_T3_SA_
PUBLIC 41380 0 ZNSt3__121__unwrap_and_dispatchB7v170001INS_10__overloadINS_11__move_loopINS_17_ClassicAlgPolicyEEENS_14__move_trivialEEENS_16reverse_iteratorIPhEES9_S9_Li0EEENS_4pairIT0_T2_EESB_T1_SC_
PUBLIC 41570 0 ZNSt3__114__unwrap_rangeB7v170001INS_16reverse_iteratorIPhEES3_EENS_4pairIT0_S5_EET_S7_
PUBLIC 41610 0 ZNKSt3__111__move_loopINS_17_ClassicAlgPolicyEEclB7v170001INS_16reverse_iteratorIPhEES6_S6_EENS_4pairIT_T1_EES8_T0_S9_
PUBLIC 416c0 0 ZNSt3__113__unwrap_iterB7v170001INS_16reverse_iteratorIPhEENS_18__unwrap_iter_implIS3_Lb0EEELi0EEEDTclsrT0_8__unwrapclsr3stdE7declvalIT_EEEES7_
PUBLIC 41700 0 ZNSt3__19make_pairB7v170001INS_16reverse_iteratorIPhEES3_EENS_4pairINS_18__unwrap_ref_decayIT_E4typeENS5_IT0_E4typeEEEOS6_OS9_
PUBLIC 41740 0 ZNSt3__114__rewrap_rangeB7v170001INS_16reverse_iteratorIPhEES3_EET_S4_T0_
PUBLIC 417a0 0 ZNSt3__113__rewrap_iterB7v170001INS_16reverse_iteratorIPhEES3_NS_18__unwrap_iter_implIS3_Lb0EEEEET_S6_T0_
PUBLIC 41800 0 ZNSt3__1neB7v170001IPhS1_EEbRKNS_16reverse_iteratorIT_EERKNS2_IT0_EE
PUBLIC 41840 0 ZNSt3__18_IterOpsINS_17_ClassicAlgPolicyEE11__iter_moveB7v170001IRNS_16reverse_iteratorIPhEEEENS_9enable_ifIXsr12is_referenceIDTdeclsr3stdE7declvalIRT_EEEEE5valueEDTclsr3stdE4movedeclsr3stdE7declvalISA_EEEEE4typeEOS9_
PUBLIC 41860 0 ZNKSt3__116reverse_iteratorIPhEdeB7v170001Ev
PUBLIC 41890 0 ZNSt3__116reverse_iteratorIPhEppB7v170001Ev
PUBLIC 418b0 0 ZNSt3__18_IterOpsINS_17_ClassicAlgPolicyEE25__validate_iter_referenceB7v170001IRNS_16reverse_iteratorIPhEEEEvv
PUBLIC 418c0 0 ZNSt3__118__unwrap_iter_implINS_16reverse_iteratorIPhEELb0EE8__unwrapB7v170001ES3_
PUBLIC 418f0 0 ZNSt3__14pairINS_16reverse_iteratorIPhEES3_EC2B7v170001IS3_S3_LPv0EEEOT_OT0_
PUBLIC 41940 0 ZNSt3__118__unwrap_iter_implINS_16reverse_iteratorIPhEELb0EE8__rewrapB7v170001ES3_S3_
PUBLIC 41970 0 ZNSt3__114__split_bufferIhRNS_9allocatorIhEEE5clearB7v170001Ev
PUBLIC 41990 0 ZNSt3__116allocator_traitsINS_9allocatorIhEEE10deallocateB7v170001ERS2_Phy
PUBLIC 419c0 0 ZNKSt3__114__split_bufferIhRNS_9allocatorIhEEE8capacityB7v170001Ev
PUBLIC 419f0 0 ZNSt3__114__split_bufferIhRNS_9allocatorIhEEE17__destruct_at_endB7v170001EPh
PUBLIC 41a20 0 ZNSt3__114__split_bufferIhRNS_9allocatorIhEEE17__destruct_at_endB7v170001EPhNS_17integral_constantIbLb0EEE
PUBLIC 41aa0 0 ZNSt3__116allocator_traitsINS_9allocatorIhEEE7destroyB7v170001IhvEEvRS2_PT_
PUBLIC 41ad0 0 ZNSt3__19allocatorIhE7destroyB7v170001EPh
PUBLIC 41af0 0 ZNSt3__19allocatorIhE10deallocateB7v170001EPhy
PUBLIC 41b30 0 ZNKSt3__114__split_bufferIhRNS_9allocatorIhEEE9__end_capB7v170001Ev
PUBLIC 41b50 0 ZNKSt3__117__compressed_pairIPhRNS_9allocatorIhEEE5firstB7v170001Ev
PUBLIC 41b70 0 ZN4base13ScopedGenericIPvN8crashpad8internal27ScopedFileHANDLECloseTraitsEE10get_traitsEv
PUBLIC 41b80 0 ZN4base13ScopedGenericIPvN8crashpad8internal27ScopedFileHANDLECloseTraitsEE4DataC2ERKS1_RKS4_
PUBLIC 41bb0 0 ZN4base13ScopedGenericIPvN8crashpad8internal29ScopedKernelHANDLECloseTraitsEE15FreeIfNecessaryEv
PUBLIC 41c10 0 ZN7logging17MakeCheckOpStringIPvS1_EEPNSt3__112basic_stringIcNS2_11char_traitsIcEENS2_9allocatorIcEEEERKT_RKT0_PKc
PUBLIC 41da0 0 ZNSt3__117__compressed_pairIPhNS_9allocatorIhEEEC2B7v170001IDnNS_18__default_init_tagEEEOT_OT0_
PUBLIC 41de0 0 ZNSt3__122__compressed_pair_elemINS_9allocatorIhEELi1ELb1EEC2B7v170001ENS_18__default_init_tagE
PUBLIC 41e00 0 ZNSt3__19allocatorIhEC2B7v170001Ev
PUBLIC 41e20 0 ZNSt3__116__non_trivial_ifILb1ENS_9allocatorIhEEEC2B7v170001Ev
PUBLIC 41e30 0 ZNSt3__16vectorIhNS_9allocatorIhEEE16__destroy_vectorC2B7v170001ERS3_
PUBLIC 41e50 0 ZNSt3__16vectorIhNS_9allocatorIhEEE16__destroy_vectorclB7v170001Ev
PUBLIC 41ed0 0 ZNSt3__16vectorIhNS_9allocatorIhEEE7__clearB7v170001Ev
PUBLIC 41ef0 0 ZNSt3__16vectorIhNS_9allocatorIhEEE22__base_destruct_at_endB7v170001EPh
PUBLIC 41f80 0 ZN7logging17MakeCheckOpStringIyyEEPNSt3__112basic_stringIcNS1_11char_traitsIcEENS1_9allocatorIcEEEERKT_RKT0_PKc
FUNC 42110 97 0 Harpoon::~Harpoon()
FUNC 421b0 d7 0 Harpoon::terminate()
FUNC 42290 28 0 Harpoon::~Harpoon()
FUNC 422c0 583 0 Harpoon::init(std::__1::shared_ptr<workrave::config::IConfigurator>, void (*)(HarpoonEventUnion*))
FUNC 42850 3c9 0 Harpoon::init_critical_filename_list(std::__1::shared_ptr<workrave::config::IConfigurator>)
FUNC 42c20 122 0 Harpoon::is_64bit_windows()
FUNC 42d50 64d 0 Harpoon::start_harpoon_helper()
FUNC 433a0 13f 0 Harpoon::stop_harpoon_helper()
FUNC 434e0 6e 0 Harpoon::block_input()
FUNC 43550 e9 0 Harpoon::recursive_find_window(HWND__*, char const*)
FUNC 43640 6e 0 Harpoon::unblock_input()
FUNC 436b0 27f 0 Harpoon::check_for_taskmgr_debugger(char*)
FUNC 43930 22 0 _mbschr(unsigned char*, unsigned int)
FUNC 43960 22 0 _mbsrchr(unsigned char*, unsigned int)
FUNC 43990 4f 0 std::__1::shared_ptr<workrave::config::IConfigurator>::shared_ptr(std::__1::shared_ptr<workrave::config::IConfigurator> const&)
FUNC 439e0 32 0 std::__1::shared_ptr<workrave::config::IConfigurator>::~shared_ptr()
FUNC 43a20 e 0 std::__1::shared_ptr<workrave::config::IConfigurator>::operator->() const
FUNC 43a30 1f3 0 ScopedTrace::var<bool>(bool const&)
FUNC 43c30 1a5 0 ScopedTrace::msg<unsigned long>(std::__1::basic_string<char,std::__1::char_traits<char>,std::__1::allocator<char> > const&, unsigned long const&)
FUNC 43de0 1f3 0 ScopedTrace::var<void *>(void* const&)
FUNC 43fe0 40 0 spdlog::logger::trace<const bool &>(fmt::v10::basic_format_string<char,const bool &>, bool const&)
FUNC 44020 25 0 fmt::v10::basic_format_string<char,const bool &>::basic_format_string(fmt::v10::runtime_format_string<char>)
FUNC 44050 8d 0 spdlog::logger::log<const bool &>(spdlog::level::level_enum, fmt::v10::basic_format_string<char,const bool &>, bool const&)
FUNC 440e0 ad 0 spdlog::logger::log<const bool &>(spdlog::source_loc, spdlog::level::level_enum, fmt::v10::basic_format_string<char,const bool &>, bool const&)
FUNC 44190 643 0 spdlog::logger::log_<const bool &>(spdlog::source_loc, spdlog::level::level_enum, fmt::v10::basic_string_view<char>, bool const&)
FUNC 447e0 32 0 spdlog::details::to_string_view<char,const bool &>(fmt::v10::basic_format_string<char,const bool &>)
FUNC 44820 cb 0 fmt::v10::make_format_args<fmt::v10::basic_format_context<fmt::v10::appender,char>,const bool>(bool const&)
FUNC 448f0 40 0 spdlog::logger::trace<const unsigned long &>(fmt::v10::basic_format_string<char,const unsigned long &>, unsigned long const&)
FUNC 44930 25 0 fmt::v10::basic_format_string<char,const unsigned long &>::basic_format_string(fmt::v10::runtime_format_string<char>)
FUNC 44960 8d 0 spdlog::logger::log<const unsigned long &>(spdlog::level::level_enum, fmt::v10::basic_format_string<char,const unsigned long &>, unsigned long const&)
FUNC 449f0 ad 0 spdlog::logger::log<const unsigned long &>(spdlog::source_loc, spdlog::level::level_enum, fmt::v10::basic_format_string<char,const unsigned long &>, unsigned long const&)
FUNC 44aa0 643 0 spdlog::logger::log_<const unsigned long &>(spdlog::source_loc, spdlog::level::level_enum, fmt::v10::basic_string_view<char>, unsigned long const&)
FUNC 450f0 32 0 spdlog::details::to_string_view<char,const unsigned long &>(fmt::v10::basic_format_string<char,const unsigned long &>)
FUNC 45130 c1 0 fmt::v10::make_format_args<fmt::v10::basic_format_context<fmt::v10::appender,char>,const unsigned long>(unsigned long const&)
FUNC 45200 40 0 spdlog::logger::trace<void *const &>(fmt::v10::basic_format_string<char,void *const &>, void* const&)
FUNC 45240 25 0 fmt::v10::basic_format_string<char,void *const &>::basic_format_string(fmt::v10::runtime_format_string<char>)
FUNC 45270 8d 0 spdlog::logger::log<void *const &>(spdlog::level::level_enum, fmt::v10::basic_format_string<char,void *const &>, void* const&)
FUNC 45300 ad 0 spdlog::logger::log<void *const &>(spdlog::source_loc, spdlog::level::level_enum, fmt::v10::basic_format_string<char,void *const &>, void* const&)
FUNC 453b0 643 0 spdlog::logger::log_<void *const &>(spdlog::source_loc, spdlog::level::level_enum, fmt::v10::basic_string_view<char>, void* const&)
FUNC 45a00 32 0 spdlog::details::to_string_view<char,void *const &>(fmt::v10::basic_format_string<char,void *const &>)
FUNC 45a40 c5 0 fmt::v10::make_format_args<fmt::v10::basic_format_context<fmt::v10::appender,char>,void *const>(void* const&)
PUBLIC 45b10 0 __w64_mingwthr_add_key_dtor
PUBLIC 45b90 0 __w64_mingwthr_remove_key_dtor
PUBLIC 45c20 0 _mingw_TLScallback
PUBLIC 45dd0 0 fprintf
PUBLIC 45e10 0 ValidateImageBase
PUBLIC 45e40 0 FindPESection
PUBLIC 45e80 0 FindPESectionByName
PUBLIC 45f10 0 _mingw_GetSectionForAddress
PUBLIC 45f80 0 _mingw_GetSectionCount
PUBLIC 45fc0 0 FindPESectionExec
PUBLIC 46030 0 GetPEImageBase
PUBLIC 46060 0 IsNonwritableInCurrentImage
PUBLIC 460f0 0 _mingw_enum_import_library_names
PUBLIC 461c0 0 __chkstk_ms
PUBLIC 461f0 0 vfprintf
PUBLIC 46220 0 ZN4base11UTF8ToUTF16EPKcyPNSt3__112basic_stringIDsNS2_11char_traitsIDsEENS2_9allocatorIDsEEEE
PUBLIC 46320 0 ZN4base11UTF8ToUTF16ERKNS_16BasicStringPieceINSt3__112basic_stringIcNS1_11char_traitsIcEENS1_9allocatorIcEEEEEE
PUBLIC 463e0 0 ZN4base11UTF16ToUTF8EPKDsyPNSt3__112basic_stringIcNS2_11char_traitsIcEENS2_9allocatorIcEEEE
PUBLIC 464e0 0 ZN4base11UTF16ToUTF8ERKNS_16BasicStringPieceINSt3__112basic_stringIDsNS1_11char_traitsIDsEENS1_9allocatorIDsEEEEEE
PUBLIC 465a0 0 ZN4base10WideToUTF8ENS_16BasicStringPieceINSt3__112basic_stringIwNS1_11char_traitsIwEENS1_9allocatorIwEEEEEE
PUBLIC 46670 0 ZN4base10UTF8ToWideENS_16BasicStringPieceINSt3__112basic_stringIcNS1_11char_traitsIcEENS1_9allocatorIcEEEEEE
PUBLIC 46710 0 ZNSt3__112basic_stringIDsNS_11char_traitsIDsEENS_9allocatorIDsEEEC2B7v170001Ev
PUBLIC 46760 0 ZNK4base16BasicStringPieceINSt3__112basic_stringIcNS1_11char_traitsIcEENS1_9allocatorIcEEEEE4dataEv
PUBLIC 46770 0 ZNK4base16BasicStringPieceINSt3__112basic_stringIcNS1_11char_traitsIcEENS1_9allocatorIcEEEEE6lengthEv
PUBLIC 46780 0 ZNSt3__112basic_stringIDsNS_11char_traitsIDsEENS_9allocatorIDsEEED2Ev
PUBLIC 467f0 0 ZNK4base16BasicStringPieceINSt3__112basic_stringIDsNS1_11char_traitsIDsEENS1_9allocatorIDsEEEEE4dataEv
PUBLIC 46800 0 ZNK4base16BasicStringPieceINSt3__112basic_stringIDsNS1_11char_traitsIDsEENS1_9allocatorIDsEEEEE6lengthEv
PUBLIC 46810 0 ZNSt3__112basic_stringIDsNS_11char_traitsIDsEENS_9allocatorIDsEEE4dataB7v170001Ev
PUBLIC 46840 0 ZNSt3__112basic_stringIwNS_11char_traitsIwEENS_9allocatorIwEEEC2B7v170001EPKwy
PUBLIC 46890 0 ZNSt3__116allocator_traitsINS_9allocatorIDsEEE10deallocateB7v170001ERS2_PDsy
PUBLIC 468c0 0 ZNSt3__112basic_stringIDsNS_11char_traitsIDsEENS_9allocatorIDsEEE7__allocB7v170001Ev
PUBLIC 468e0 0 ZNSt3__112basic_stringIDsNS_11char_traitsIDsEENS_9allocatorIDsEEE18__get_long_pointerB7v170001Ev
PUBLIC 46900 0 ZNKSt3__112basic_stringIDsNS_11char_traitsIDsEENS_9allocatorIDsEEE14__get_long_capB7v170001Ev
PUBLIC 46930 0 ZNSt3__19allocatorIDsE10deallocateB7v170001EPDsy
PUBLIC 46970 0 ZNSt3__117__compressed_pairINS_12basic_stringIDsNS_11char_traitsIDsEENS_9allocatorIDsEEE5__repES5_E6secondB7v170001Ev
PUBLIC 46990 0 ZNSt3__122__compressed_pair_elemINS_9allocatorIDsEELi1ELb1EE5__getB7v170001Ev
PUBLIC 469a0 0 ZNSt3__117__compressed_pairINS_12basic_stringIDsNS_11char_traitsIDsEENS_9allocatorIDsEEE5__repES5_E5firstB7v170001Ev
PUBLIC 469c0 0 ZNSt3__122__compressed_pair_elemINS_12basic_stringIDsNS_11char_traitsIDsEENS_9allocatorIDsEEE5__repELi0ELb0EE5__getB7v170001Ev
PUBLIC 469d0 0 ZNSt3__117__compressed_pairINS_12basic_stringIDsNS_11char_traitsIDsEENS_9allocatorIDsEEE5__repES5_EC2B7v170001INS_18__default_init_tagESA_EEOT_OT0_
PUBLIC 46a10 0 ZNSt3__112basic_stringIDsNS_11char_traitsIDsEENS_9allocatorIDsEEE14__default_initB7v170001Ev
PUBLIC 46a60 0 ZNSt3__122__compressed_pair_elemINS_12basic_stringIDsNS_11char_traitsIDsEENS_9allocatorIDsEEE5__repELi0ELb0EEC2B7v170001ENS_18__default_init_tagE
PUBLIC 46a80 0 ZNSt3__122__compressed_pair_elemINS_9allocatorIDsEELi1ELb1EEC2B7v170001ENS_18__default_init_tagE
PUBLIC 46aa0 0 ZNSt3__19allocatorIDsEC2B7v170001Ev
PUBLIC 46ac0 0 ZNSt3__116__non_trivial_ifILb1ENS_9allocatorIDsEEEC2B7v170001Ev
PUBLIC 46ad0 0 ZNSt3__112__to_addressB7v170001IDsEEPT_S2_
PUBLIC 46ae0 0 ZNSt3__112basic_stringIDsNS_11char_traitsIDsEENS_9allocatorIDsEEE13__get_pointerB7v170001Ev
PUBLIC 46b40 0 ZNSt3__112basic_stringIDsNS_11char_traitsIDsEENS_9allocatorIDsEEE19__get_short_pointerB7v170001Ev
PUBLIC 46b70 0 ZNSt3__114pointer_traitsIPDsE10pointer_toB7v170001ERDs
PUBLIC 46b80 0 ZN4base12StringPrintfEPKcz
PUBLIC 46c40 0 ZN4base13StringAppendVEPNSt3__112basic_stringIcNS0_11char_traitsIcEENS0_9allocatorIcEEEEPKcPc
PUBLIC 471d0 0 ZN4base4sizeIcLy1024EEEyRAT0__KT_
PUBLIC 471e0 0 ZNSt3__16vectorIcNS_9allocatorIcEEEC2Ey
PUBLIC 472c0 0 ZNSt3__16vectorIcNS_9allocatorIcEEEixB7v170001Ey
PUBLIC 472e0 0 ZNSt3__16vectorIcNS_9allocatorIcEEED2B7v170001Ev
PUBLIC 47320 0 ZNSt3__117__compressed_pairIPcNS_9allocatorIcEEEC2B7v170001IDnNS_18__default_init_tagEEEOT_OT0_
PUBLIC 47360 0 ZNSt3__122__make_exception_guardB7v170001INS_6vectorIcNS_9allocatorIcEEE16__destroy_vectorEEENS_28__exception_guard_exceptionsIT_EES7_
PUBLIC 473a0 0 ZNSt3__16vectorIcNS_9allocatorIcEEE16__destroy_vectorC2B7v170001ERS3_
PUBLIC 473c0 0 ZNSt3__16vectorIcNS_9allocatorIcEEE11__vallocateB7v170001Ey
PUBLIC 47470 0 ZNSt3__16vectorIcNS_9allocatorIcEEE18__construct_at_endEy
PUBLIC 47540 0 ZNSt3__128__exception_guard_exceptionsINS_6vectorIcNS_9allocatorIcEEE16__destroy_vectorEE10__completeB7v170001Ev
PUBLIC 47550 0 ZNSt3__128__exception_guard_exceptionsINS_6vectorIcNS_9allocatorIcEEE16__destroy_vectorEED2B7v170001Ev
PUBLIC 47590 0 ZNSt3__122__compressed_pair_elemIPcLi0ELb0EEC2B7v170001IDnvEEOT_
PUBLIC 475b0 0 ZNSt3__128__exception_guard_exceptionsINS_6vectorIcNS_9allocatorIcEEE16__destroy_vectorEEC2B7v170001ES5_
PUBLIC 475e0 0 ZNKSt3__16vectorIcNS_9allocatorIcEEE8max_sizeEv
PUBLIC 47640 0 ZNKSt3__16vectorIcNS_9allocatorIcEEE20__throw_length_errorB7v170001Ev
PUBLIC 47660 0 ZNSt3__16vectorIcNS_9allocatorIcEEE7__allocB7v170001Ev
PUBLIC 47680 0 ZNSt3__16vectorIcNS_9allocatorIcEEE9__end_capB7v170001Ev
PUBLIC 476a0 0 ZNKSt3__16vectorIcNS_9allocatorIcEEE14__annotate_newB7v170001Ey
PUBLIC 47750 0 ZNKSt3__16vectorIcNS_9allocatorIcEEE7__allocB7v170001Ev
PUBLIC 47770 0 ZNKSt3__117__compressed_pairIPcNS_9allocatorIcEEE6secondB7v170001Ev
PUBLIC 47790 0 ZNSt3__117__compressed_pairIPcNS_9allocatorIcEEE6secondB7v170001Ev
PUBLIC 477b0 0 ZNSt3__117__compressed_pairIPcNS_9allocatorIcEEE5firstB7v170001Ev
PUBLIC 477d0 0 ZNSt3__122__compressed_pair_elemIPcLi0ELb0EE5__getB7v170001Ev
PUBLIC 477e0 0 ZNKSt3__16vectorIcNS_9allocatorIcEEE31__annotate_contiguous_containerB7v170001EPKvS5_S5_S5_
PUBLIC 47810 0 ZNKSt3__16vectorIcNS_9allocatorIcEEE4dataB7v170001Ev
PUBLIC 47830 0 ZNKSt3__16vectorIcNS_9allocatorIcEEE8capacityB7v170001Ev
PUBLIC 47860 0 ZNKSt3__16vectorIcNS_9allocatorIcEEE9__end_capB7v170001Ev
PUBLIC 47880 0 ZNKSt3__117__compressed_pairIPcNS_9allocatorIcEEE5firstB7v170001Ev
PUBLIC 478a0 0 ZNKSt3__122__compressed_pair_elemIPcLi0ELb0EE5__getB7v170001Ev
PUBLIC 478b0 0 ZNSt3__16vectorIcNS_9allocatorIcEEE21_ConstructTransactionC2B7v170001ERS3_y
PUBLIC 47900 0 ZNSt3__116allocator_traitsINS_9allocatorIcEEE9constructB7v170001IcJEvEEvRS2_PT_DpOT0_
PUBLIC 47930 0 ZNSt3__16vectorIcNS_9allocatorIcEEE21_ConstructTransactionD2B7v170001Ev
PUBLIC 47950 0 ZNSt3__19allocatorIcE9constructB7v170001IcJEEEvPT_DpOT0_
PUBLIC 47970 0 ZNSt3__16vectorIcNS_9allocatorIcEEE16__destroy_vectorclB7v170001Ev
PUBLIC 479f0 0 ZNSt3__16vectorIcNS_9allocatorIcEEE7__clearB7v170001Ev
PUBLIC 47a10 0 ZNKSt3__16vectorIcNS_9allocatorIcEEE17__annotate_deleteB7v170001Ev
PUBLIC 47ad0 0 ZNSt3__16vectorIcNS_9allocatorIcEEE22__base_destruct_at_endB7v170001EPc
PUBLIC 47b60 0 ZNSt3__116allocator_traitsINS_9allocatorIcEEE7destroyB7v170001IcvEEvRS2_PT_
PUBLIC 47b90 0 ZNSt3__19allocatorIcE7destroyB7v170001EPc
PUBLIC 47bb0 0 ZNKSt3__16vectorIcNS_9allocatorIcEEE4sizeB7v170001Ev
PUBLIC 47bd0 0 ZN8crashpad25InitializationStateDcheck15SetInitializingEv
PUBLIC 47c10 0 ZN8crashpad25InitializationStateDcheck8SetValidEv
PUBLIC m 47c50 0 ZN8crashpad19CrashReportDatabase6ReportC1Ev
PUBLIC m 47cc0 0 ZN8crashpad19CrashReportDatabase9NewReportC1Ev
PUBLIC m 47d80 0 ZN8crashpad19CrashReportDatabase9NewReportD1Ev
PUBLIC 47de0 0 ZN8crashpad19CrashReportDatabase9NewReport10InitializeEPS0_RKN4base8FilePathERKNSt3__112basic_stringIwNS7_11char_traitsIwEENS7_9allocatorIwEEEE
PUBLIC 47fc0 0 ZN8crashpad19CrashReportDatabase9NewReport6ReaderEv
PUBLIC 480c0 0 ZN8crashpad19CrashReportDatabase9NewReport13AddAttachmentERKNSt3__112basic_stringIcNS2_11char_traitsIcEENS2_9allocatorIcEEEE
PUBLIC 48430 0 ZN8crashpad19CrashReportDatabase15AttachmentsPathERKNS_4UUIDE
PUBLIC 48630 0 ZN8crashpad19CrashReportDatabase12UploadReport21InitializeAttachmentsEv
PUBLIC m 48980 0 ZN8crashpad19CrashReportDatabase12UploadReportC1Ev
PUBLIC m 48a30 0 ZN8crashpad19CrashReportDatabase12UploadReportD1Ev
PUBLIC 48af0 0 ZN8crashpad19CrashReportDatabase12UploadReportD0Ev
PUBLIC 48b20 0 ZN8crashpad19CrashReportDatabase12UploadReport10InitializeERKN4base8FilePathEPS0_
PUBLIC 48b70 0 ZN8crashpad19CrashReportDatabase20RecordUploadCompleteENSt3__110unique_ptrIKNS0_12UploadReportENS1_14default_deleteIS4_EEEERKNS1_12basic_stringIcNS1_11char_traitsIcEENS1_9allocatorIcEEEE
PUBLIC 48be0 0 ZN8crashpad19CrashReportDatabase19AttachmentsRootPathEv
PUBLIC 48cb0 0 ZN8crashpad19CrashReportDatabase23RemoveAttachmentsByUUIDERKNS_4UUIDE
PUBLIC 48fd0 0 ZNSt3__111make_uniqueB7v170001IN8crashpad10FileWriterEJEEENS_11__unique_ifIT_E15__unique_singleEDpOT0_
PUBLIC 49050 0 ZNSt3__110unique_ptrIN8crashpad10FileReaderENS_14default_deleteIS2_EEEC2B7v170001ILb1EvEEv
PUBLIC 49080 0 ZN4base13ScopedGenericINS_8FilePathEN8crashpad22ScopedRemoveFileTraitsEEC2Ev
PUBLIC 490f0 0 ZNSt3__16vectorINS_10unique_ptrIN8crashpad10FileWriterENS_14default_deleteIS3_EEEENS_9allocatorIS6_EEEC2B7v170001Ev
PUBLIC 49140 0 ZNSt3__16vectorIN4base13ScopedGenericINS1_8FilePathEN8crashpad22ScopedRemoveFileTraitsEEENS_9allocatorIS6_EEEC2B7v170001Ev
PUBLIC 49190 0 ZNSt3__110unique_ptrIN8crashpad10FileReaderENS_14default_deleteIS2_EEED2B7v170001Ev
PUBLIC 491b0 0 ZNSt3__110unique_ptrIN8crashpad10FileWriterENS_14default_deleteIS2_EEED2B7v170001Ev
PUBLIC 491d0 0 ZNSt3__16vectorIN4base13ScopedGenericINS1_8FilePathEN8crashpad22ScopedRemoveFileTraitsEEENS_9allocatorIS6_EEED2B7v170001Ev
PUBLIC 49210 0 ZNSt3__16vectorINS_10unique_ptrIN8crashpad10FileWriterENS_14default_deleteIS3_EEEENS_9allocatorIS6_EEED2B7v170001Ev
PUBLIC 49250 0 ZN4base13ScopedGenericINS_8FilePathEN8crashpad22ScopedRemoveFileTraitsEED2Ev
PUBLIC 49290 0 ZNSt3__1plB7v170001IwNS_11char_traitsIwEENS_9allocatorIwEEEENS_12basic_stringIT_T0_T1_EERKS9_SB_
PUBLIC 493e0 0 ZN4base13ScopedGenericINS_8FilePathEN8crashpad22ScopedRemoveFileTraitsEE5resetERKS1_
PUBLIC 494d0 0 ZNSt3__111make_uniqueB7v170001IN8crashpad10FileReaderEJEEENS_11__unique_ifIT_E15__unique_singleEDpOT0_
PUBLIC 49550 0 ZNKSt3__110unique_ptrIN8crashpad10FileReaderENS_14default_deleteIS2_EEEptB7v170001Ev
PUBLIC 49570 0 ZNSt3__110unique_ptrIN8crashpad10FileReaderENS_14default_deleteIS2_EEEaSB7v170001EOS5_
PUBLIC 495c0 0 ZNKSt3__110unique_ptrIN8crashpad10FileReaderENS_14default_deleteIS2_EEE3getB7v170001Ev
PUBLIC 495e0 0 ZNSt3__16vectorINS_10unique_ptrIN8crashpad10FileWriterENS_14default_deleteIS3_EEEENS_9allocatorIS6_EEE12emplace_backIJS6_EEERS6_DpOT_
PUBLIC 49650 0 ZNSt3__16vectorIN4base13ScopedGenericINS1_8FilePathEN8crashpad22ScopedRemoveFileTraitsEEENS_9allocatorIS6_EEE12emplace_backIJS6_EEERS6_DpOT_
PUBLIC 496c0 0 ZN4base13ScopedGenericINS_8FilePathEN8crashpad22ScopedRemoveFileTraitsEEC2ERKS1_
PUBLIC 496f0 0 ZNSt3__16vectorINS_10unique_ptrIN8crashpad10FileWriterENS_14default_deleteIS3_EEEENS_9allocatorIS6_EEE4backB7v170001Ev
PUBLIC 49710 0 ZNSt3__16vectorINS_10unique_ptrIN8crashpad10FileReaderENS_14default_deleteIS3_EEEENS_9allocatorIS6_EEE12emplace_backIJS6_EEERS6_DpOT_
PUBLIC 49780 0 ZNSt3__16vectorINS_10unique_ptrIN8crashpad10FileReaderENS_14default_deleteIS3_EEEENS_9allocatorIS6_EEE4backB7v170001Ev
PUBLIC 497a0 0 ZNSt3__13mapINS_12basic_stringIcNS_11char_traitsIcEENS_9allocatorIcEEEEPN8crashpad10FileReaderENS_4lessIS6_EENS4_INS_4pairIKS6_S9_EEEEEixERSD_
PUBLIC 49820 0 ZNSt3__16vectorINS_10unique_ptrIN8crashpad10FileReaderENS_14default_deleteIS3_EEEENS_9allocatorIS6_EEEC2B7v170001Ev
PUBLIC 49870 0 ZNSt3__13mapINS_12basic_stringIcNS_11char_traitsIcEENS_9allocatorIcEEEEPN8crashpad10FileReaderENS_4lessIS6_EENS4_INS_4pairIKS6_S9_EEEEEC2B7v170001Ev
PUBLIC 498b0 0 ZNSt3__13mapINS_12basic_stringIcNS_11char_traitsIcEENS_9allocatorIcEEEEPN8crashpad10FileReaderENS_4lessIS6_EENS4_INS_4pairIKS6_S9_EEEEED2B7v170001Ev
PUBLIC 498d0 0 ZNSt3__16vectorINS_10unique_ptrIN8crashpad10FileReaderENS_14default_deleteIS3_EEEENS_9allocatorIS6_EEED2B7v170001Ev
PUBLIC 49910 0 ZNKSt3__110unique_ptrIKN8crashpad19CrashReportDatabase12UploadReportENS_14default_deleteIS4_EEE3getB7v170001Ev
PUBLIC 49930 0 ZNSt3__117__compressed_pairIPN8crashpad10FileReaderENS_14default_deleteIS2_EEEC2B7v170001INS_16__value_init_tagES8_EEOT_OT0_
PUBLIC 49970 0 ZNSt3__122__compressed_pair_elemIPN8crashpad10FileReaderELi0ELb0EEC2B7v170001ENS_16__value_init_tagE
PUBLIC 49990 0 ZNSt3__122__compressed_pair_elemINS_14default_deleteIN8crashpad10FileReaderEEELi1ELb1EEC2B7v170001ENS_16__value_init_tagE
PUBLIC 499b0 0 ZNSt3__112basic_stringIcNS_11char_traitsIcEENS_9allocatorIcEEE5beginB7v170001Ev
PUBLIC 49a00 0 ZNSt3__112basic_stringIcNS_11char_traitsIcEENS_9allocatorIcEEE3endB7v170001Ev
PUBLIC 49a50 0 ZNSt3__1neB7v170001IPcEEbRKNS_11__wrap_iterIT_EES6_
PUBLIC 49a80 0 ZNKSt3__111__wrap_iterIPcEdeB7v170001Ev
PUBLIC 49a90 0 ZNSt3__111__wrap_iterIPcEppB7v170001Ev
PUBLIC 49ab0 0 ZNSt3__1eqB7v170001IPcEEbRKNS_11__wrap_iterIT_EES6_
PUBLIC 49af0 0 ZNKSt3__111__wrap_iterIPcE4baseB7v170001Ev
PUBLIC 49b00 0 ZNSt3__112basic_stringIcNS_11char_traitsIcEENS_9allocatorIcEEE15__make_iteratorB7v170001EPc
PUBLIC 49b30 0 ZNSt3__111__wrap_iterIPcEC2B7v170001ES1_
PUBLIC 49b50 0 ZNKSt3__117__compressed_pairIPN8crashpad10FileReaderENS_14default_deleteIS2_EEE5firstB7v170001Ev
PUBLIC 49b70 0 ZNKSt3__122__compressed_pair_elemIPN8crashpad10FileReaderELi0ELb0EE5__getB7v170001Ev
PUBLIC 49b80 0 ZNSt3__110unique_ptrIN8crashpad10FileWriterENS_14default_deleteIS2_EEEC2B7v170001ILb1EvEEPS2_
PUBLIC 49bc0 0 ZNSt3__117__compressed_pairIPN8crashpad10FileWriterENS_14default_deleteIS2_EEEC2B7v170001IRS3_NS_16__value_init_tagEEEOT_OT0_
PUBLIC 49c00 0 ZNSt3__122__compressed_pair_elemIPN8crashpad10FileWriterELi0ELb0EEC2B7v170001IRS3_vEEOT_
PUBLIC 49c30 0 ZNSt3__122__compressed_pair_elemINS_14default_deleteIN8crashpad10FileWriterEEELi1ELb1EEC2B7v170001ENS_16__value_init_tagE
PUBLIC 49c50 0 ZNSt3__110unique_ptrIN8crashpad10FileWriterENS_14default_deleteIS2_EEE5resetB7v170001EPS2_
PUBLIC 49cc0 0 ZNSt3__117__compressed_pairIPN8crashpad10FileWriterENS_14default_deleteIS2_EEE5firstB7v170001Ev
PUBLIC 49ce0 0 ZNSt3__117__compressed_pairIPN8crashpad10FileWriterENS_14default_deleteIS2_EEE6secondB7v170001Ev
PUBLIC 49d00 0 ZNKSt3__114default_deleteIN8crashpad10FileWriterEEclB7v170001EPS2_
PUBLIC 49d40 0 ZNSt3__122__compressed_pair_elemIPN8crashpad10FileWriterELi0ELb0EE5__getB7v170001Ev
PUBLIC 49d50 0 ZNSt3__122__compressed_pair_elemINS_14default_deleteIN8crashpad10FileWriterEEELi1ELb1EE5__getB7v170001Ev
PUBLIC 49d60 0 ZN4base13ScopedGenericINS_8FilePathEN8crashpad22ScopedRemoveFileTraitsEE4DataC2ERKS1_
PUBLIC 49d90 0 ZNSt3__117__compressed_pairIPNS_10unique_ptrIN8crashpad10FileWriterENS_14default_deleteIS3_EEEENS_9allocatorIS6_EEEC2B7v170001IDnNS_18__default_init_tagEEEOT_OT0_
PUBLIC 49dd0 0 ZNSt3__122__compressed_pair_elemIPNS_10unique_ptrIN8crashpad10FileWriterENS_14default_deleteIS3_EEEELi0ELb0EEC2B7v170001IDnvEEOT_
PUBLIC 49df0 0 ZNSt3__122__compressed_pair_elemINS_9allocatorINS_10unique_ptrIN8crashpad10FileWriterENS_14default_deleteIS4_EEEEEELi1ELb1EEC2B7v170001ENS_18__default_init_tagE
PUBLIC 49e10 0 ZNSt3__19allocatorINS_10unique_ptrIN8crashpad10FileWriterENS_14default_deleteIS3_EEEEEC2B7v170001Ev
PUBLIC 49e30 0 ZNSt3__116__non_trivial_ifILb1ENS_9allocatorINS_10unique_ptrIN8crashpad10FileWriterENS_14default_deleteIS4_EEEEEEEC2B7v170001Ev
PUBLIC 49e40 0 ZNSt3__117__compressed_pairIPN4base13ScopedGenericINS1_8FilePathEN8crashpad22ScopedRemoveFileTraitsEEENS_9allocatorIS6_EEEC2B7v170001IDnNS_18__default_init_tagEEEOT_OT0_
PUBLIC 49e80 0 ZNSt3__122__compressed_pair_elemIPN4base13ScopedGenericINS1_8FilePathEN8crashpad22ScopedRemoveFileTraitsEEELi0ELb0EEC2B7v170001IDnvEEOT_
PUBLIC 49ea0 0 ZNSt3__122__compressed_pair_elemINS_9allocatorIN4base13ScopedGenericINS2_8FilePathEN8crashpad22ScopedRemoveFileTraitsEEEEELi1ELb1EEC2B7v170001ENS_18__default_init_tagE
PUBLIC 49ec0 0 ZNSt3__19allocatorIN4base13ScopedGenericINS1_8FilePathEN8crashpad22ScopedRemoveFileTraitsEEEEC2B7v170001Ev
PUBLIC 49ee0 0 ZNSt3__116__non_trivial_ifILb1ENS_9allocatorIN4base13ScopedGenericINS2_8FilePathEN8crashpad22ScopedRemoveFileTraitsEEEEEEC2B7v170001Ev
PUBLIC 49ef0 0 ZNSt3__110unique_ptrIN8crashpad10FileReaderENS_14default_deleteIS2_EEE5resetB7v170001EPS2_
PUBLIC 49f60 0 ZNSt3__117__compressed_pairIPN8crashpad10FileReaderENS_14default_deleteIS2_EEE5firstB7v170001Ev
PUBLIC 49f80 0 ZNSt3__117__compressed_pairIPN8crashpad10FileReaderENS_14default_deleteIS2_EEE6secondB7v170001Ev
PUBLIC 49fa0 0 ZNKSt3__114default_deleteIN8crashpad10FileReaderEEclB7v170001EPS2_
PUBLIC 49fe0 0 ZNSt3__122__compressed_pair_elemIPN8crashpad10FileReaderELi0ELb0EE5__getB7v170001Ev
PUBLIC 49ff0 0 ZNSt3__122__compressed_pair_elemINS_14default_deleteIN8crashpad10FileReaderEEELi1ELb1EE5__getB7v170001Ev
PUBLIC 4a000 0 ZN4base13ScopedGenericINS_8FilePathEN8crashpad22ScopedRemoveFileTraitsEE15FreeIfNecessaryEv
PUBLIC 4a0f0 0 ZN4base13ScopedGenericINS_8FilePathEN8crashpad22ScopedRemoveFileTraitsEE4DataD2Ev
PUBLIC 4a110 0 ZNSt3__16vectorINS_10unique_ptrIN8crashpad10FileWriterENS_14default_deleteIS3_EEEENS_9allocatorIS6_EEE16__destroy_vectorC2B7v170001ERS9_
PUBLIC 4a130 0 ZNSt3__16vectorINS_10unique_ptrIN8crashpad10FileWriterENS_14default_deleteIS3_EEEENS_9allocatorIS6_EEE16__destroy_vectorclB7v170001Ev
PUBLIC 4a1b0 0 ZNSt3__16vectorINS_10unique_ptrIN8crashpad10FileWriterENS_14default_deleteIS3_EEEENS_9allocatorIS6_EEE7__clearB7v170001Ev
PUBLIC 4a1d0 0 ZNKSt3__16vectorINS_10unique_ptrIN8crashpad10FileWriterENS_14default_deleteIS3_EEEENS_9allocatorIS6_EEE17__annotate_deleteB7v170001Ev
PUBLIC 4a2a0 0 ZNSt3__116allocator_traitsINS_9allocatorINS_10unique_ptrIN8crashpad10FileWriterENS_14default_deleteIS4_EEEEEEE10deallocateB7v170001ERS8_PS7_y
PUBLIC 4a2d0 0 ZNSt3__16vectorINS_10unique_ptrIN8crashpad10FileWriterENS_14default_deleteIS3_EEEENS_9allocatorIS6_EEE7__allocB7v170001Ev
PUBLIC 4a2f0 0 ZNKSt3__16vectorINS_10unique_ptrIN8crashpad10FileWriterENS_14default_deleteIS3_EEEENS_9allocatorIS6_EEE8capacityB7v170001Ev
PUBLIC 4a320 0 ZNSt3__16vectorINS_10unique_ptrIN8crashpad10FileWriterENS_14default_deleteIS3_EEEENS_9allocatorIS6_EEE22__base_destruct_at_endB7v170001EPS6_
PUBLIC 4a3b0 0 ZNSt3__116allocator_traitsINS_9allocatorINS_10unique_ptrIN8crashpad10FileWriterENS_14default_deleteIS4_EEEEEEE7destroyB7v170001IS7_vEEvRS8_PT_
PUBLIC 4a3e0 0 ZNSt3__112__to_addressB7v170001INS_10unique_ptrIN8crashpad10FileWriterENS_14default_deleteIS3_EEEEEEPT_S8_
PUBLIC 4a3f0 0 ZNSt3__19allocatorINS_10unique_ptrIN8crashpad10FileWriterENS_14default_deleteIS3_EEEEE7destroyB7v170001EPS6_
PUBLIC 4a410 0 ZNKSt3__16vectorINS_10unique_ptrIN8crashpad10FileWriterENS_14default_deleteIS3_EEEENS_9allocatorIS6_EEE31__annotate_contiguous_containerB7v170001EPKvSB_SB_SB_
PUBLIC 4a440 0 ZNKSt3__16vectorINS_10unique_ptrIN8crashpad10FileWriterENS_14default_deleteIS3_EEEENS_9allocatorIS6_EEE4dataB7v170001Ev
PUBLIC 4a460 0 ZNKSt3__16vectorINS_10unique_ptrIN8crashpad10FileWriterENS_14default_deleteIS3_EEEENS_9allocatorIS6_EEE4sizeB7v170001Ev
PUBLIC 4a480 0 ZNSt3__19allocatorINS_10unique_ptrIN8crashpad10FileWriterENS_14default_deleteIS3_EEEEE10deallocateB7v170001EPS6_y
PUBLIC 4a4c0 0 ZNSt3__117__compressed_pairIPNS_10unique_ptrIN8crashpad10FileWriterENS_14default_deleteIS3_EEEENS_9allocatorIS6_EEE6secondB7v170001Ev
PUBLIC 4a4e0 0 ZNSt3__122__compressed_pair_elemINS_9allocatorINS_10unique_ptrIN8crashpad10FileWriterENS_14default_deleteIS4_EEEEEELi1ELb1EE5__getB7v170001Ev
PUBLIC 4a4f0 0 ZNKSt3__16vectorINS_10unique_ptrIN8crashpad10FileWriterENS_14default_deleteIS3_EEEENS_9allocatorIS6_EEE9__end_capB7v170001Ev
PUBLIC 4a510 0 ZNKSt3__117__compressed_pairIPNS_10unique_ptrIN8crashpad10FileWriterENS_14default_deleteIS3_EEEENS_9allocatorIS6_EEE5firstB7v170001Ev
PUBLIC 4a530 0 ZNKSt3__122__compressed_pair_elemIPNS_10unique_ptrIN8crashpad10FileWriterENS_14default_deleteIS3_EEEELi0ELb0EE5__getB7v170001Ev
PUBLIC 4a540 0 ZNSt3__16vectorIN4base13ScopedGenericINS1_8FilePathEN8crashpad22ScopedRemoveFileTraitsEEENS_9allocatorIS6_EEE16__destroy_vectorC2B7v170001ERS9_
PUBLIC 4a560 0 ZNSt3__16vectorIN4base13ScopedGenericINS1_8FilePathEN8crashpad22ScopedRemoveFileTraitsEEENS_9allocatorIS6_EEE16__destroy_vectorclB7v170001Ev
PUBLIC 4a5e0 0 ZNSt3__16vectorIN4base13ScopedGenericINS1_8FilePathEN8crashpad22ScopedRemoveFileTraitsEEENS_9allocatorIS6_EEE7__clearB7v170001Ev
PUBLIC 4a600 0 ZNKSt3__16vectorIN4base13ScopedGenericINS1_8FilePathEN8crashpad22ScopedRemoveFileTraitsEEENS_9allocatorIS6_EEE17__annotate_deleteB7v170001Ev
PUBLIC 4a6d0 0 ZNSt3__116allocator_traitsINS_9allocatorIN4base13ScopedGenericINS2_8FilePathEN8crashpad22ScopedRemoveFileTraitsEEEEEE10deallocateB7v170001ERS8_PS7_y
PUBLIC 4a700 0 ZNSt3__16vectorIN4base13ScopedGenericINS1_8FilePathEN8crashpad22ScopedRemoveFileTraitsEEENS_9allocatorIS6_EEE7__allocB7v170001Ev
PUBLIC 4a720 0 ZNKSt3__16vectorIN4base13ScopedGenericINS1_8FilePathEN8crashpad22ScopedRemoveFileTraitsEEENS_9allocatorIS6_EEE8capacityB7v170001Ev
PUBLIC 4a760 0 ZNSt3__16vectorIN4base13ScopedGenericINS1_8FilePathEN8crashpad22ScopedRemoveFileTraitsEEENS_9allocatorIS6_EEE22__base_destruct_at_endB7v170001EPS6_
PUBLIC 4a7f0 0 ZNSt3__116allocator_traitsINS_9allocatorIN4base13ScopedGenericINS2_8FilePathEN8crashpad22ScopedRemoveFileTraitsEEEEEE7destroyB7v170001IS7_vEEvRS8_PT_
PUBLIC 4a820 0 ZNSt3__112__to_addressB7v170001IN4base13ScopedGenericINS1_8FilePathEN8crashpad22ScopedRemoveFileTraitsEEEEEPT_S8_
PUBLIC 4a830 0 ZNSt3__19allocatorIN4base13ScopedGenericINS1_8FilePathEN8crashpad22ScopedRemoveFileTraitsEEEE7destroyB7v170001EPS6_
PUBLIC 4a850 0 ZNKSt3__16vectorIN4base13ScopedGenericINS1_8FilePathEN8crashpad22ScopedRemoveFileTraitsEEENS_9allocatorIS6_EEE31__annotate_contiguous_containerB7v170001EPKvSB_SB_SB_
PUBLIC 4a880 0 ZNKSt3__16vectorIN4base13ScopedGenericINS1_8FilePathEN8crashpad22ScopedRemoveFileTraitsEEENS_9allocatorIS6_EEE4dataB7v170001Ev
PUBLIC 4a8a0 0 ZNKSt3__16vectorIN4base13ScopedGenericINS1_8FilePathEN8crashpad22ScopedRemoveFileTraitsEEENS_9allocatorIS6_EEE4sizeB7v170001Ev
PUBLIC 4a8c0 0 ZNSt3__19allocatorIN4base13ScopedGenericINS1_8FilePathEN8crashpad22ScopedRemoveFileTraitsEEEE10deallocateB7v170001EPS6_y
PUBLIC 4a910 0 ZNSt3__117__compressed_pairIPN4base13ScopedGenericINS1_8FilePathEN8crashpad22ScopedRemoveFileTraitsEEENS_9allocatorIS6_EEE6secondB7v170001Ev
PUBLIC 4a930 0 ZNSt3__122__compressed_pair_elemINS_9allocatorIN4base13ScopedGenericINS2_8FilePathEN8crashpad22ScopedRemoveFileTraitsEEEEELi1ELb1EE5__getB7v170001Ev
PUBLIC 4a940 0 ZNKSt3__16vectorIN4base13ScopedGenericINS1_8FilePathEN8crashpad22ScopedRemoveFileTraitsEEENS_9allocatorIS6_EEE9__end_capB7v170001Ev
PUBLIC 4a960 0 ZNKSt3__117__compressed_pairIPN4base13ScopedGenericINS1_8FilePathEN8crashpad22ScopedRemoveFileTraitsEEENS_9allocatorIS6_EEE5firstB7v170001Ev
PUBLIC 4a980 0 ZNKSt3__122__compressed_pair_elemIPN4base13ScopedGenericINS1_8FilePathEN8crashpad22ScopedRemoveFileTraitsEEELi0ELb0EE5__getB7v170001Ev
PUBLIC 4a990 0 ZNSt3__116allocator_traitsINS_9allocatorIwEEE37select_on_container_copy_constructionB7v170001IS2_vvEES2_RKS2_
PUBLIC 4a9b0 0 ZNKSt3__112basic_stringIwNS_11char_traitsIwEENS_9allocatorIwEEE13get_allocatorB7v170001Ev
PUBLIC 4a9d0 0 ZNSt3__112basic_stringIwNS_11char_traitsIwEENS_9allocatorIwEEEC2B7v170001ENS_24__uninitialized_size_tagEyRKS4_
PUBLIC 4ab10 0 ZNSt3__111char_traitsIwE4copyB7v170001EPwPKwy
PUBLIC 4ab50 0 ZNSt3__111char_traitsIwE6assignB7v170001EPwyw
PUBLIC 4ab90 0 ZNSt3__116allocator_traitsINS_9allocatorIwEEE8allocateB7v170001ERS2_y
PUBLIC 4abc0 0 ZNSt3__116allocator_traitsINS_9allocatorIwEEE8max_sizeB7v170001IS2_vEEyRKS2_
PUBLIC 4abe0 0 ZNKSt3__19allocatorIwE8max_sizeB7v170001Ev
PUBLIC 4ac00 0 ZNSt3__16copy_nB7v170001IPKwyPwEENS_9enable_ifIXsr37__has_random_access_iterator_categoryIT_EE5valueET1_E4typeES5_T0_S6_
PUBLIC 4ac50 0 ZNSt3__14copyB7v170001IPKwPwEET0_T_S5_S4_
PUBLIC 4ac90 0 ZNSt3__16__copyB7v170001INS_17_ClassicAlgPolicyEPKwS3_PwEENS_4pairIT0_T2_EES6_T1_S7_
PUBLIC 4acd0 0 ZNSt3__123__dispatch_copy_or_moveB7v170001INS_17_ClassicAlgPolicyENS_11__copy_loopIS1_EENS_14__copy_trivialEPKwS6_PwEENS_4pairIT2_T4_EES9_T3_SA_
PUBLIC 4ad10 0 ZNSt3__121__unwrap_and_dispatchB7v170001INS_10__overloadINS_11__copy_loopINS_17_ClassicAlgPolicyEEENS_14__copy_trivialEEEPKwS8_PwLi0EEENS_4pairIT0_T2_EESB_T1_SC_
PUBLIC 4adf0 0 ZNSt3__114__unwrap_rangeB7v170001IPKwS2_EENS_4pairIT0_S4_EET_S6_
PUBLIC 4ae50 0 ZNKSt3__114__copy_trivialclB7v170001IKwwLi0EEENS_4pairIPT_PT0_EES5_S5_S7_
PUBLIC 4aea0 0 ZNSt3__113__unwrap_iterB7v170001IPwNS_18__unwrap_iter_implIS1_Lb1EEELi0EEEDTclsrT0_8__unwrapclsr3stdE7declvalIT_EEEES5_
PUBLIC 4aec0 0 ZNSt3__19make_pairB7v170001IPKwPwEENS_4pairINS_18__unwrap_ref_decayIT_E4typeENS5_IT0_E4typeEEEOS6_OS9_
PUBLIC 4af00 0 ZNSt3__114__rewrap_rangeB7v170001IPKwS2_EET_S3_T0_
PUBLIC 4af30 0 ZNSt3__113__rewrap_iterB7v170001IPwS1_NS_18__unwrap_iter_implIS1_Lb1EEEEET_S4_T0_
PUBLIC 4af70 0 ZNSt3__19make_pairB7v170001IPKwS2_EENS_4pairINS_18__unwrap_ref_decayIT_E4typeENS4_IT0_E4typeEEEOS5_OS8_
PUBLIC 4afb0 0 ZNSt3__113__unwrap_iterB7v170001IPKwNS_18__unwrap_iter_implIS2_Lb1EEELi0EEEDTclsrT0_8__unwrapclsr3stdE7declvalIT_EEEES6_
PUBLIC 4afd0 0 ZNSt3__14pairIPKwS2_EC2B7v170001IS2_S2_LPv0EEEOT_OT0_
PUBLIC 4b010 0 ZNSt3__118__unwrap_iter_implIPKwLb1EE8__unwrapB7v170001ES2_
PUBLIC 4b030 0 ZNSt3__119__copy_trivial_implB7v170001IKwwEENS_4pairIPT_PT0_EES4_S4_S6_
PUBLIC 4b0c0 0 ZNSt3__119__constexpr_memmoveB7v170001IwKwLi0EEEPT_S3_PT0_NS_15__element_countE
PUBLIC 4b120 0 ZNSt3__19make_pairB7v170001IRPKwPwEENS_4pairINS_18__unwrap_ref_decayIT_E4typeENS6_IT0_E4typeEEEOS7_OSA_
PUBLIC 4b160 0 ZNSt3__14pairIPKwPwEC2B7v170001IRS2_S3_LPv0EEEOT_OT0_
PUBLIC 4b1a0 0 ZNSt3__118__unwrap_iter_implIPwLb1EE8__unwrapB7v170001ES1_
PUBLIC 4b1c0 0 ZNSt3__14pairIPKwPwEC2B7v170001IS2_S3_LPv0EEEOT_OT0_
PUBLIC 4b200 0 ZNSt3__113__rewrap_iterB7v170001IPKwS2_NS_18__unwrap_iter_implIS2_Lb1EEEEET_S5_T0_
PUBLIC 4b240 0 ZNSt3__118__unwrap_iter_implIPKwLb1EE8__rewrapB7v170001ES2_S2_
PUBLIC 4b290 0 ZNSt3__118__unwrap_iter_implIPwLb1EE8__rewrapB7v170001ES1_S1_
PUBLIC 4b2e0 0 ZNSt3__16fill_nB7v170001IPwywEET_S2_T0_RKT1_
PUBLIC 4b320 0 ZNSt3__18__fill_nB7v170001IPwywEET_S2_T0_RKT1_
PUBLIC 4b380 0 ZNSt3__110unique_ptrIN8crashpad10FileReaderENS_14default_deleteIS2_EEEC2B7v170001ILb1EvEEPS2_
PUBLIC 4b3c0 0 ZNSt3__117__compressed_pairIPN8crashpad10FileReaderENS_14default_deleteIS2_EEEC2B7v170001IRS3_NS_16__value_init_tagEEEOT_OT0_
PUBLIC 4b400 0 ZNSt3__122__compressed_pair_elemIPN8crashpad10FileReaderELi0ELb0EEC2B7v170001IRS3_vEEOT_
PUBLIC 4b430 0 ZNSt3__110unique_ptrIN8crashpad10FileReaderENS_14default_deleteIS2_EEE7releaseB7v170001Ev
PUBLIC 4b470 0 ZNSt3__110unique_ptrIN8crashpad10FileReaderENS_14default_deleteIS2_EEE11get_deleterB7v170001Ev
PUBLIC 4b490 0 ZNSt3__16vectorINS_10unique_ptrIN8crashpad10FileWriterENS_14default_deleteIS3_EEEENS_9allocatorIS6_EEE9__end_capB7v170001Ev
PUBLIC 4b4b0 0 ZNSt3__16vectorINS_10unique_ptrIN8crashpad10FileWriterENS_14default_deleteIS3_EEEENS_9allocatorIS6_EEE22__construct_one_at_endB7v170001IJS6_EEEvDpOT_
PUBLIC 4b550 0 ZNSt3__16vectorINS_10unique_ptrIN8crashpad10FileWriterENS_14default_deleteIS3_EEEENS_9allocatorIS6_EEE24__emplace_back_slow_pathIJS6_EEEvDpOT_
PUBLIC 4b640 0 ZNSt3__117__compressed_pairIPNS_10unique_ptrIN8crashpad10FileWriterENS_14default_deleteIS3_EEEENS_9allocatorIS6_EEE5firstB7v170001Ev
PUBLIC 4b660 0 ZNSt3__122__compressed_pair_elemIPNS_10unique_ptrIN8crashpad10FileWriterENS_14default_deleteIS3_EEEELi0ELb0EE5__getB7v170001Ev
PUBLIC 4b670 0 ZNSt3__16vectorINS_10unique_ptrIN8crashpad10FileWriterENS_14default_deleteIS3_EEEENS_9allocatorIS6_EEE21_ConstructTransactionC2B7v170001ERS9_y
PUBLIC 4b6c0 0 ZNSt3__116allocator_traitsINS_9allocatorINS_10unique_ptrIN8crashpad10FileWriterENS_14default_deleteIS4_EEEEEEE9constructB7v170001IS7_JS7_EvEEvRS8_PT_DpOT0_
PUBLIC 4b6f0 0 ZNSt3__16vectorINS_10unique_ptrIN8crashpad10FileWriterENS_14default_deleteIS3_EEEENS_9allocatorIS6_EEE21_ConstructTransactionD2B7v170001Ev
PUBLIC 4b710 0 ZNSt3__19allocatorINS_10unique_ptrIN8crashpad10FileWriterENS_14default_deleteIS3_EEEEE9constructB7v170001IS6_JS6_EEEvPT_DpOT0_
PUBLIC 4b740 0 ZNSt3__110unique_ptrIN8crashpad10FileWriterENS_14default_deleteIS2_EEEC2B7v170001EOS5_
PUBLIC 4b7a0 0 ZNSt3__110unique_ptrIN8crashpad10FileWriterENS_14default_deleteIS2_EEE7releaseB7v170001Ev
PUBLIC 4b7e0 0 ZNSt3__110unique_ptrIN8crashpad10FileWriterENS_14default_deleteIS2_EEE11get_deleterB7v170001Ev
PUBLIC 4b800 0 ZNSt3__117__compressed_pairIPN8crashpad10FileWriterENS_14default_deleteIS2_EEEC2B7v170001IS3_S5_EEOT_OT0_
PUBLIC 4b840 0 ZNSt3__122__compressed_pair_elemIPN8crashpad10FileWriterELi0ELb0EEC2B7v170001IS3_vEEOT_
PUBLIC 4b870 0 ZNSt3__122__compressed_pair_elemINS_14default_deleteIN8crashpad10FileWriterEEELi1ELb1EEC2B7v170001IS4_vEEOT_
PUBLIC 4b890 0 ZNKSt3__16vectorINS_10unique_ptrIN8crashpad10FileWriterENS_14default_deleteIS3_EEEENS_9allocatorIS6_EEE11__recommendB7v170001Ey
PUBLIC 4b930 0 ZNSt3__114__split_bufferINS_10unique_ptrIN8crashpad10FileWriterENS_14default_deleteIS3_EEEERNS_9allocatorIS6_EEEC2EyyS9_
PUBLIC 4ba00 0 ZNSt3__16vectorINS_10unique_ptrIN8crashpad10FileWriterENS_14default_deleteIS3_EEEENS_9allocatorIS6_EEE26__swap_out_circular_bufferERNS_14__split_bufferIS6_RS8_EE
PUBLIC 4bb50 0 ZNSt3__114__split_bufferINS_10unique_ptrIN8crashpad10FileWriterENS_14default_deleteIS3_EEEERNS_9allocatorIS6_EEED2Ev
PUBLIC 4bbd0 0 ZNKSt3__16vectorINS_10unique_ptrIN8crashpad10FileWriterENS_14default_deleteIS3_EEEENS_9allocatorIS6_EEE8max_sizeEv
PUBLIC 4bc30 0 ZNKSt3__16vectorINS_10unique_ptrIN8crashpad10FileWriterENS_14default_deleteIS3_EEEENS_9allocatorIS6_EEE20__throw_length_errorB7v170001Ev
PUBLIC 4bc50 0 ZNSt3__116allocator_traitsINS_9allocatorINS_10unique_ptrIN8crashpad10FileWriterENS_14default_deleteIS4_EEEEEEE8max_sizeB7v170001IS8_vEEyRKS8_
PUBLIC 4bc70 0 ZNKSt3__16vectorINS_10unique_ptrIN8crashpad10FileWriterENS_14default_deleteIS3_EEEENS_9allocatorIS6_EEE7__allocB7v170001Ev
PUBLIC 4bc90 0 ZNKSt3__19allocatorINS_10unique_ptrIN8crashpad10FileWriterENS_14default_deleteIS3_EEEEE8max_sizeB7v170001Ev
PUBLIC 4bcb0 0 ZNKSt3__117__compressed_pairIPNS_10unique_ptrIN8crashpad10FileWriterENS_14default_deleteIS3_EEEENS_9allocatorIS6_EEE6secondB7v170001Ev
PUBLIC 4bcd0 0 ZNKSt3__122__compressed_pair_elemINS_9allocatorINS_10unique_ptrIN8crashpad10FileWriterENS_14default_deleteIS4_EEEEEELi1ELb1EE5__getB7v170001Ev
PUBLIC 4bce0 0 ZNSt3__117__compressed_pairIPNS_10unique_ptrIN8crashpad10FileWriterENS_14default_deleteIS3_EEEERNS_9allocatorIS6_EEEC2B7v170001IDnSA_EEOT_OT0_
PUBLIC 4bd20 0 ZNSt3__119__allocate_at_leastB7v170001INS_9allocatorINS_10unique_ptrIN8crashpad10FileWriterENS_14default_deleteIS4_EEEEEEEENS_19__allocation_resultINS_16allocator_traitsIT_E7pointerEEERSB_y
PUBLIC 4bd70 0 ZNSt3__114__split_bufferINS_10unique_ptrIN8crashpad10FileWriterENS_14default_deleteIS3_EEEERNS_9allocatorIS6_EEE7__allocB7v170001Ev
PUBLIC 4bd90 0 ZNSt3__114__split_bufferINS_10unique_ptrIN8crashpad10FileWriterENS_14default_deleteIS3_EEEERNS_9allocatorIS6_EEE9__end_capB7v170001Ev
PUBLIC 4bdb0 0 ZNSt3__122__compressed_pair_elemIRNS_9allocatorINS_10unique_ptrIN8crashpad10FileWriterENS_14default_deleteIS4_EEEEEELi1ELb0EEC2B7v170001IS9_vEEOT_
PUBLIC 4bdd0 0 ZNSt3__19allocatorINS_10unique_ptrIN8crashpad10FileWriterENS_14default_deleteIS3_EEEEE8allocateB7v170001Ey
PUBLIC 4be30 0 ZNSt3__117__compressed_pairIPNS_10unique_ptrIN8crashpad10FileWriterENS_14default_deleteIS3_EEEERNS_9allocatorIS6_EEE6secondB7v170001Ev
PUBLIC 4be50 0 ZNSt3__122__compressed_pair_elemIRNS_9allocatorINS_10unique_ptrIN8crashpad10FileWriterENS_14default_deleteIS4_EEEEEELi1ELb0EE5__getB7v170001Ev
PUBLIC 4be60 0 ZNSt3__117__compressed_pairIPNS_10unique_ptrIN8crashpad10FileWriterENS_14default_deleteIS3_EEEERNS_9allocatorIS6_EEE5firstB7v170001Ev
PUBLIC 4be80 0 ZNSt3__142__uninitialized_allocator_move_if_noexceptB7v170001INS_9allocatorINS_10unique_ptrIN8crashpad10FileWriterENS_14default_deleteIS4_EEEEEENS_16reverse_iteratorIPS7_EESB_SB_EET2_RT_T0_T1_SC_
PUBLIC 4c020 0 ZNSt3__116reverse_iteratorIPNS_10unique_ptrIN8crashpad10FileWriterENS_14default_deleteIS3_EEEEEC2B7v170001ES7_
PUBLIC 4c050 0 ZNKSt3__116reverse_iteratorIPNS_10unique_ptrIN8crashpad10FileWriterENS_14default_deleteIS3_EEEEE4baseB7v170001Ev
PUBLIC 4c060 0 ZNSt3__14swapB7v170001IPNS_10unique_ptrIN8crashpad10FileWriterENS_14default_deleteIS3_EEEEEENS_9enable_ifIXaasr21is_move_constructibleIT_EE5valuesr18is_move_assignableIS9_EE5valueEvE4typeERS9_SC_
PUBLIC 4c0a0 0 ZNKSt3__16vectorINS_10unique_ptrIN8crashpad10FileWriterENS_14default_deleteIS3_EEEENS_9allocatorIS6_EEE14__annotate_newB7v170001Ey
PUBLIC 4c160 0 ZNSt3__122__make_exception_guardB7v170001INS_29_AllocatorDestroyRangeReverseINS_9allocatorINS_10unique_ptrIN8crashpad10FileWriterENS_14default_deleteIS5_EEEEEENS_16reverse_iteratorIPS8_EEEEEENS_28__exception_guard_exceptionsIT_EESF_
PUBLIC 4c1b0 0 ZNSt3__129_AllocatorDestroyRangeReverseINS_9allocatorINS_10unique_ptrIN8crashpad10FileWriterENS_14default_deleteIS4_EEEEEENS_16reverse_iteratorIPS7_EEEC2B7v170001ERS8_RSB_SE_
PUBLIC 4c1f0 0 ZNSt3__1neB7v170001IPNS_10unique_ptrIN8crashpad10FileWriterENS_14default_deleteIS3_EEEES7_EEbRKNS_16reverse_iteratorIT_EERKNS8_IT0_EE
PUBLIC 4c230 0 ZNSt3__112__to_addressB7v170001INS_16reverse_iteratorIPNS_10unique_ptrIN8crashpad10FileWriterENS_14default_deleteIS4_EEEEEEvEEu7__decayIDTclsr19__to_address_helperIT_EE6__callclsr3stdE7declvalIRKSA_EEEEESC_
PUBLIC 4c250 0 ZNKSt3__116reverse_iteratorIPNS_10unique_ptrIN8crashpad10FileWriterENS_14default_deleteIS3_EEEEEdeB7v170001Ev
PUBLIC 4c280 0 ZNSt3__116reverse_iteratorIPNS_10unique_ptrIN8crashpad10FileWriterENS_14default_deleteIS3_EEEEEppB7v170001Ev
PUBLIC 4c2a0 0 ZNSt3__128__exception_guard_exceptionsINS_29_AllocatorDestroyRangeReverseINS_9allocatorINS_10unique_ptrIN8crashpad10FileWriterENS_14default_deleteIS5_EEEEEENS_16reverse_iteratorIPS8_EEEEE10__completeB7v170001Ev
PUBLIC 4c2b0 0 ZNSt3__128__exception_guard_exceptionsINS_29_AllocatorDestroyRangeReverseINS_9allocatorINS_10unique_ptrIN8crashpad10FileWriterENS_14default_deleteIS5_EEEEEENS_16reverse_iteratorIPS8_EEEEED2B7v170001Ev
PUBLIC 4c2f0 0 ZNSt3__128__exception_guard_exceptionsINS_29_AllocatorDestroyRangeReverseINS_9allocatorINS_10unique_ptrIN8crashpad10FileWriterENS_14default_deleteIS5_EEEEEENS_16reverse_iteratorIPS8_EEEEEC2B7v170001ESD_
PUBLIC 4c330 0 ZNSt3__119__to_address_helperINS_16reverse_iteratorIPNS_10unique_ptrIN8crashpad10FileWriterENS_14default_deleteIS4_EEEEEEvE6__callB7v170001ERKS9_
PUBLIC 4c370 0 ZNKSt3__116reverse_iteratorIPNS_10unique_ptrIN8crashpad10FileWriterENS_14default_deleteIS3_EEEEEptB7v170001Ev
PUBLIC 4c390 0 ZNKSt3__129_AllocatorDestroyRangeReverseINS_9allocatorINS_10unique_ptrIN8crashpad10FileWriterENS_14default_deleteIS4_EEEEEENS_16reverse_iteratorIPS7_EEEclB7v170001Ev
PUBLIC 4c420 0 ZNSt3__119__allocator_destroyB7v170001INS_9allocatorINS_10unique_ptrIN8crashpad10FileWriterENS_14default_deleteIS4_EEEEEENS_16reverse_iteratorINS9_IPS7_EEEESC_EEvRT_T0_T1_
PUBLIC 4c490 0 ZNSt3__116reverse_iteratorINS0_IPNS_10unique_ptrIN8crashpad10FileWriterENS_14default_deleteIS3_EEEEEEEC2B7v170001ES8_
PUBLIC 4c4d0 0 ZNSt3__1neB7v170001INS_16reverse_iteratorIPNS_10unique_ptrIN8crashpad10FileWriterENS_14default_deleteIS4_EEEEEES9_EEbRKNS1_IT_EERKNS1_IT0_EE
PUBLIC 4c520 0 ZNSt3__112__to_addressB7v170001INS_16reverse_iteratorINS1_IPNS_10unique_ptrIN8crashpad10FileWriterENS_14default_deleteIS4_EEEEEEEEvEEu7__decayIDTclsr19__to_address_helperIT_EE6__callclsr3stdE7declvalIRKSB_EEEEESD_
PUBLIC 4c540 0 ZNSt3__116reverse_iteratorINS0_IPNS_10unique_ptrIN8crashpad10FileWriterENS_14default_deleteIS3_EEEEEEEppB7v170001Ev
PUBLIC 4c570 0 ZNKSt3__116reverse_iteratorINS0_IPNS_10unique_ptrIN8crashpad10FileWriterENS_14default_deleteIS3_EEEEEEE4baseB7v170001Ev
PUBLIC 4c5a0 0 ZNSt3__119__to_address_helperINS_16reverse_iteratorINS1_IPNS_10unique_ptrIN8crashpad10FileWriterENS_14default_deleteIS4_EEEEEEEEvE6__callB7v170001ERKSA_
PUBLIC 4c5e0 0 ZNKSt3__116reverse_iteratorINS0_IPNS_10unique_ptrIN8crashpad10FileWriterENS_14default_deleteIS3_EEEEEEEptB7v170001Ev
PUBLIC 4c600 0 ZNKSt3__116reverse_iteratorINS0_IPNS_10unique_ptrIN8crashpad10FileWriterENS_14default_deleteIS3_EEEEEEEdeB7v170001Ev
PUBLIC 4c640 0 ZNSt3__116reverse_iteratorIPNS_10unique_ptrIN8crashpad10FileWriterENS_14default_deleteIS3_EEEEEmmB7v170001Ev
PUBLIC 4c660 0 ZNSt3__114__split_bufferINS_10unique_ptrIN8crashpad10FileWriterENS_14default_deleteIS3_EEEERNS_9allocatorIS6_EEE5clearB7v170001Ev
PUBLIC 4c680 0 ZNKSt3__114__split_bufferINS_10unique_ptrIN8crashpad10FileWriterENS_14default_deleteIS3_EEEERNS_9allocatorIS6_EEE8capacityB7v170001Ev
PUBLIC 4c6b0 0 ZNSt3__114__split_bufferINS_10unique_ptrIN8crashpad10FileWriterENS_14default_deleteIS3_EEEERNS_9allocatorIS6_EEE17__destruct_at_endB7v170001EPS6_
PUBLIC 4c6e0 0 ZNSt3__114__split_bufferINS_10unique_ptrIN8crashpad10FileWriterENS_14default_deleteIS3_EEEERNS_9allocatorIS6_EEE17__destruct_at_endB7v170001EPS6_NS_17integral_constantIbLb0EEE
PUBLIC 4c760 0 ZNKSt3__114__split_bufferINS_10unique_ptrIN8crashpad10FileWriterENS_14default_deleteIS3_EEEERNS_9allocatorIS6_EEE9__end_capB7v170001Ev
PUBLIC 4c780 0 ZNKSt3__117__compressed_pairIPNS_10unique_ptrIN8crashpad10FileWriterENS_14default_deleteIS3_EEEERNS_9allocatorIS6_EEE5firstB7v170001Ev
PUBLIC 4c7a0 0 ZNSt3__16vectorIN4base13ScopedGenericINS1_8FilePathEN8crashpad22ScopedRemoveFileTraitsEEENS_9allocatorIS6_EEE9__end_capB7v170001Ev
PUBLIC 4c7c0 0 ZNSt3__16vectorIN4base13ScopedGenericINS1_8FilePathEN8crashpad22ScopedRemoveFileTraitsEEENS_9allocatorIS6_EEE22__construct_one_at_endB7v170001IJS6_EEEvDpOT_
PUBLIC 4c860 0 ZNSt3__16vectorIN4base13ScopedGenericINS1_8FilePathEN8crashpad22ScopedRemoveFileTraitsEEENS_9allocatorIS6_EEE24__emplace_back_slow_pathIJS6_EEEvDpOT_
PUBLIC 4c950 0 ZNSt3__16vectorIN4base13ScopedGenericINS1_8FilePathEN8crashpad22ScopedRemoveFileTraitsEEENS_9allocatorIS6_EEE4backB7v170001Ev
PUBLIC 4c970 0 ZNSt3__117__compressed_pairIPN4base13ScopedGenericINS1_8FilePathEN8crashpad22ScopedRemoveFileTraitsEEENS_9allocatorIS6_EEE5firstB7v170001Ev
PUBLIC 4c990 0 ZNSt3__122__compressed_pair_elemIPN4base13ScopedGenericINS1_8FilePathEN8crashpad22ScopedRemoveFileTraitsEEELi0ELb0EE5__getB7v170001Ev
PUBLIC 4c9a0 0 ZNSt3__16vectorIN4base13ScopedGenericINS1_8FilePathEN8crashpad22ScopedRemoveFileTraitsEEENS_9allocatorIS6_EEE21_ConstructTransactionC2B7v170001ERS9_y
PUBLIC 4c9f0 0 ZNSt3__116allocator_traitsINS_9allocatorIN4base13ScopedGenericINS2_8FilePathEN8crashpad22ScopedRemoveFileTraitsEEEEEE9constructB7v170001IS7_JS7_EvEEvRS8_PT_DpOT0_
PUBLIC 4ca20 0 ZNSt3__16vectorIN4base13ScopedGenericINS1_8FilePathEN8crashpad22ScopedRemoveFileTraitsEEENS_9allocatorIS6_EEE21_ConstructTransactionD2B7v170001Ev
PUBLIC 4ca40 0 ZNSt3__19allocatorIN4base13ScopedGenericINS1_8FilePathEN8crashpad22ScopedRemoveFileTraitsEEEE9constructB7v170001IS6_JS6_EEEvPT_DpOT0_
PUBLIC 4ca70 0 ZN4base13ScopedGenericINS_8FilePathEN8crashpad22ScopedRemoveFileTraitsEEC2EOS4_
PUBLIC 4cb00 0 ZN4base13ScopedGenericINS_8FilePathEN8crashpad22ScopedRemoveFileTraitsEE10get_traitsEv
PUBLIC 4cb10 0 ZN4base13ScopedGenericINS_8FilePathEN8crashpad22ScopedRemoveFileTraitsEE4DataC2ERKS1_RKS3_
PUBLIC 4cb40 0 ZNKSt3__16vectorIN4base13ScopedGenericINS1_8FilePathEN8crashpad22ScopedRemoveFileTraitsEEENS_9allocatorIS6_EEE11__recommendB7v170001Ey
PUBLIC 4cbe0 0 ZNSt3__114__split_bufferIN4base13ScopedGenericINS1_8FilePathEN8crashpad22ScopedRemoveFileTraitsEEERNS_9allocatorIS6_EEEC2EyyS9_
PUBLIC 4ccb0 0 ZNSt3__16vectorIN4base13ScopedGenericINS1_8FilePathEN8crashpad22ScopedRemoveFileTraitsEEENS_9allocatorIS6_EEE26__swap_out_circular_bufferERNS_14__split_bufferIS6_RS8_EE
PUBLIC 4ce00 0 ZNSt3__114__split_bufferIN4base13ScopedGenericINS1_8FilePathEN8crashpad22ScopedRemoveFileTraitsEEERNS_9allocatorIS6_EEED2Ev
PUBLIC 4ce80 0 ZNKSt3__16vectorIN4base13ScopedGenericINS1_8FilePathEN8crashpad22ScopedRemoveFileTraitsEEENS_9allocatorIS6_EEE8max_sizeEv
PUBLIC 4cee0 0 ZNKSt3__16vectorIN4base13ScopedGenericINS1_8FilePathEN8crashpad22ScopedRemoveFileTraitsEEENS_9allocatorIS6_EEE20__throw_length_errorB7v170001Ev
PUBLIC 4cf00 0 ZNSt3__116allocator_traitsINS_9allocatorIN4base13ScopedGenericINS2_8FilePathEN8crashpad22ScopedRemoveFileTraitsEEEEEE8max_sizeB7v170001IS8_vEEyRKS8_
PUBLIC 4cf20 0 ZNKSt3__16vectorIN4base13ScopedGenericINS1_8FilePathEN8crashpad22ScopedRemoveFileTraitsEEENS_9allocatorIS6_EEE7__allocB7v170001Ev
PUBLIC 4cf40 0 ZNKSt3__19allocatorIN4base13ScopedGenericINS1_8FilePathEN8crashpad22ScopedRemoveFileTraitsEEEE8max_sizeB7v170001Ev
PUBLIC 4cf60 0 ZNKSt3__117__compressed_pairIPN4base13ScopedGenericINS1_8FilePathEN8crashpad22ScopedRemoveFileTraitsEEENS_9allocatorIS6_EEE6secondB7v170001Ev
PUBLIC 4cf80 0 ZNKSt3__122__compressed_pair_elemINS_9allocatorIN4base13ScopedGenericINS2_8FilePathEN8crashpad22ScopedRemoveFileTraitsEEEEELi1ELb1EE5__getB7v170001Ev
PUBLIC 4cf90 0 ZNSt3__117__compressed_pairIPN4base13ScopedGenericINS1_8FilePathEN8crashpad22ScopedRemoveFileTraitsEEERNS_9allocatorIS6_EEEC2B7v170001IDnSA_EEOT_OT0_
PUBLIC 4cfd0 0 ZNSt3__119__allocate_at_leastB7v170001INS_9allocatorIN4base13ScopedGenericINS2_8FilePathEN8crashpad22ScopedRemoveFileTraitsEEEEEEENS_19__allocation_resultINS_16allocator_traitsIT_E7pointerEEERSB_y
PUBLIC 4d020 0 ZNSt3__114__split_bufferIN4base13ScopedGenericINS1_8FilePathEN8crashpad22ScopedRemoveFileTraitsEEERNS_9allocatorIS6_EEE7__allocB7v170001Ev
PUBLIC 4d040 0 ZNSt3__114__split_bufferIN4base13ScopedGenericINS1_8FilePathEN8crashpad22ScopedRemoveFileTraitsEEERNS_9allocatorIS6_EEE9__end_capB7v170001Ev
PUBLIC 4d060 0 ZNSt3__122__compressed_pair_elemIRNS_9allocatorIN4base13ScopedGenericINS2_8FilePathEN8crashpad22ScopedRemoveFileTraitsEEEEELi1ELb0EEC2B7v170001IS9_vEEOT_
PUBLIC 4d080 0 ZNSt3__19allocatorIN4base13ScopedGenericINS1_8FilePathEN8crashpad22ScopedRemoveFileTraitsEEEE8allocateB7v170001Ey
PUBLIC 4d0d0 0 ZNSt3__117__compressed_pairIPN4base13ScopedGenericINS1_8FilePathEN8crashpad22ScopedRemoveFileTraitsEEERNS_9allocatorIS6_EEE6secondB7v170001Ev
PUBLIC 4d0f0 0 ZNSt3__122__compressed_pair_elemIRNS_9allocatorIN4base13ScopedGenericINS2_8FilePathEN8crashpad22ScopedRemoveFileTraitsEEEEELi1ELb0EE5__getB7v170001Ev
PUBLIC 4d100 0 ZNSt3__117__compressed_pairIPN4base13ScopedGenericINS1_8FilePathEN8crashpad22ScopedRemoveFileTraitsEEERNS_9allocatorIS6_EEE5firstB7v170001Ev
PUBLIC 4d120 0 ZNSt3__142__uninitialized_allocator_move_if_noexceptB7v170001INS_9allocatorIN4base13ScopedGenericINS2_8FilePathEN8crashpad22ScopedRemoveFileTraitsEEEEENS_16reverse_iteratorIPS7_EESB_SB_EET2_RT_T0_T1_SC_
PUBLIC 4d2c0 0 ZNSt3__116reverse_iteratorIPN4base13ScopedGenericINS1_8FilePathEN8crashpad22ScopedRemoveFileTraitsEEEEC2B7v170001ES7_
PUBLIC 4d2f0 0 ZNKSt3__116reverse_iteratorIPN4base13ScopedGenericINS1_8FilePathEN8crashpad22ScopedRemoveFileTraitsEEEE4baseB7v170001Ev
PUBLIC 4d300 0 ZNSt3__14swapB7v170001IPN4base13ScopedGenericINS1_8FilePathEN8crashpad22ScopedRemoveFileTraitsEEEEENS_9enable_ifIXaasr21is_move_constructibleIT_EE5valuesr18is_move_assignableIS9_EE5valueEvE4typeERS9_SC_
PUBLIC 4d340 0 ZNKSt3__16vectorIN4base13ScopedGenericINS1_8FilePathEN8crashpad22ScopedRemoveFileTraitsEEENS_9allocatorIS6_EEE14__annotate_newB7v170001Ey
PUBLIC 4d400 0 ZNSt3__122__make_exception_guardB7v170001INS_29_AllocatorDestroyRangeReverseINS_9allocatorIN4base13ScopedGenericINS3_8FilePathEN8crashpad22ScopedRemoveFileTraitsEEEEENS_16reverse_iteratorIPS8_EEEEEENS_28__exception_guard_exceptionsIT_EESF_
PUBLIC 4d450 0 ZNSt3__129_AllocatorDestroyRangeReverseINS_9allocatorIN4base13ScopedGenericINS2_8FilePathEN8crashpad22ScopedRemoveFileTraitsEEEEENS_16reverse_iteratorIPS7_EEEC2B7v170001ERS8_RSB_SE_
PUBLIC 4d490 0 ZNSt3__1neB7v170001IPN4base13ScopedGenericINS1_8FilePathEN8crashpad22ScopedRemoveFileTraitsEEES7_EEbRKNS_16reverse_iteratorIT_EERKNS8_IT0_EE
PUBLIC 4d4d0 0 ZNSt3__112__to_addressB7v170001INS_16reverse_iteratorIPN4base13ScopedGenericINS2_8FilePathEN8crashpad22ScopedRemoveFileTraitsEEEEEvEEu7__decayIDTclsr19__to_address_helperIT_EE6__callclsr3stdE7declvalIRKSA_EEEEESC_
PUBLIC 4d4f0 0 ZNKSt3__116reverse_iteratorIPN4base13ScopedGenericINS1_8FilePathEN8crashpad22ScopedRemoveFileTraitsEEEEdeB7v170001Ev
PUBLIC 4d520 0 ZNSt3__116reverse_iteratorIPN4base13ScopedGenericINS1_8FilePathEN8crashpad22ScopedRemoveFileTraitsEEEEppB7v170001Ev
PUBLIC 4d540 0 ZNSt3__128__exception_guard_exceptionsINS_29_AllocatorDestroyRangeReverseINS_9allocatorIN4base13ScopedGenericINS3_8FilePathEN8crashpad22ScopedRemoveFileTraitsEEEEENS_16reverse_iteratorIPS8_EEEEE10__completeB7v170001Ev
PUBLIC 4d550 0 ZNSt3__128__exception_guard_exceptionsINS_29_AllocatorDestroyRangeReverseINS_9allocatorIN4base13ScopedGenericINS3_8FilePathEN8crashpad22ScopedRemoveFileTraitsEEEEENS_16reverse_iteratorIPS8_EEEEED2B7v170001Ev
PUBLIC 4d590 0 ZNSt3__128__exception_guard_exceptionsINS_29_AllocatorDestroyRangeReverseINS_9allocatorIN4base13ScopedGenericINS3_8FilePathEN8crashpad22ScopedRemoveFileTraitsEEEEENS_16reverse_iteratorIPS8_EEEEEC2B7v170001ESD_
PUBLIC 4d5d0 0 ZNSt3__119__to_address_helperINS_16reverse_iteratorIPN4base13ScopedGenericINS2_8FilePathEN8crashpad22ScopedRemoveFileTraitsEEEEEvE6__callB7v170001ERKS9_
PUBLIC 4d610 0 ZNKSt3__116reverse_iteratorIPN4base13ScopedGenericINS1_8FilePathEN8crashpad22ScopedRemoveFileTraitsEEEEptB7v170001Ev
PUBLIC 4d630 0 ZNKSt3__129_AllocatorDestroyRangeReverseINS_9allocatorIN4base13ScopedGenericINS2_8FilePathEN8crashpad22ScopedRemoveFileTraitsEEEEENS_16reverse_iteratorIPS7_EEEclB7v170001Ev
PUBLIC 4d6c0 0 ZNSt3__119__allocator_destroyB7v170001INS_9allocatorIN4base13ScopedGenericINS2_8FilePathEN8crashpad22ScopedRemoveFileTraitsEEEEENS_16reverse_iteratorINS9_IPS7_EEEESC_EEvRT_T0_T1_
PUBLIC 4d730 0 ZNSt3__116reverse_iteratorINS0_IPN4base13ScopedGenericINS1_8FilePathEN8crashpad22ScopedRemoveFileTraitsEEEEEEC2B7v170001ES8_
PUBLIC 4d770 0 ZNSt3__1neB7v170001INS_16reverse_iteratorIPN4base13ScopedGenericINS2_8FilePathEN8crashpad22ScopedRemoveFileTraitsEEEEES9_EEbRKNS1_IT_EERKNS1_IT0_EE
PUBLIC 4d7c0 0 ZNSt3__112__to_addressB7v170001INS_16reverse_iteratorINS1_IPN4base13ScopedGenericINS2_8FilePathEN8crashpad22ScopedRemoveFileTraitsEEEEEEEvEEu7__decayIDTclsr19__to_address_helperIT_EE6__callclsr3stdE7declvalIRKSB_EEEEESD_
PUBLIC 4d7e0 0 ZNSt3__116reverse_iteratorINS0_IPN4base13ScopedGenericINS1_8FilePathEN8crashpad22ScopedRemoveFileTraitsEEEEEEppB7v170001Ev
PUBLIC 4d810 0 ZNKSt3__116reverse_iteratorINS0_IPN4base13ScopedGenericINS1_8FilePathEN8crashpad22ScopedRemoveFileTraitsEEEEEE4baseB7v170001Ev
PUBLIC 4d840 0 ZNSt3__119__to_address_helperINS_16reverse_iteratorINS1_IPN4base13ScopedGenericINS2_8FilePathEN8crashpad22ScopedRemoveFileTraitsEEEEEEEvE6__callB7v170001ERKSA_
PUBLIC 4d880 0 ZNKSt3__116reverse_iteratorINS0_IPN4base13ScopedGenericINS1_8FilePathEN8crashpad22ScopedRemoveFileTraitsEEEEEEptB7v170001Ev
PUBLIC 4d8a0 0 ZNKSt3__116reverse_iteratorINS0_IPN4base13ScopedGenericINS1_8FilePathEN8crashpad22ScopedRemoveFileTraitsEEEEEEdeB7v170001Ev
PUBLIC 4d8e0 0 ZNSt3__116reverse_iteratorIPN4base13ScopedGenericINS1_8FilePathEN8crashpad22ScopedRemoveFileTraitsEEEEmmB7v170001Ev
PUBLIC 4d900 0 ZNSt3__114__split_bufferIN4base13ScopedGenericINS1_8FilePathEN8crashpad22ScopedRemoveFileTraitsEEERNS_9allocatorIS6_EEE5clearB7v170001Ev
PUBLIC 4d920 0 ZNKSt3__114__split_bufferIN4base13ScopedGenericINS1_8FilePathEN8crashpad22ScopedRemoveFileTraitsEEERNS_9allocatorIS6_EEE8capacityB7v170001Ev
PUBLIC 4d960 0 ZNSt3__114__split_bufferIN4base13ScopedGenericINS1_8FilePathEN8crashpad22ScopedRemoveFileTraitsEEERNS_9allocatorIS6_EEE17__destruct_at_endB7v170001EPS6_
PUBLIC 4d990 0 ZNSt3__114__split_bufferIN4base13ScopedGenericINS1_8FilePathEN8crashpad22ScopedRemoveFileTraitsEEERNS_9allocatorIS6_EEE17__destruct_at_endB7v170001EPS6_NS_17integral_constantIbLb0EEE
PUBLIC 4da10 0 ZNKSt3__114__split_bufferIN4base13ScopedGenericINS1_8FilePathEN8crashpad22ScopedRemoveFileTraitsEEERNS_9allocatorIS6_EEE9__end_capB7v170001Ev
PUBLIC 4da30 0 ZNKSt3__117__compressed_pairIPN4base13ScopedGenericINS1_8FilePathEN8crashpad22ScopedRemoveFileTraitsEEERNS_9allocatorIS6_EEE5firstB7v170001Ev
PUBLIC 4da50 0 ZNSt3__16vectorINS_10unique_ptrIN8crashpad10FileReaderENS_14default_deleteIS3_EEEENS_9allocatorIS6_EEE9__end_capB7v170001Ev
PUBLIC 4da70 0 ZNSt3__16vectorINS_10unique_ptrIN8crashpad10FileReaderENS_14default_deleteIS3_EEEENS_9allocatorIS6_EEE22__construct_one_at_endB7v170001IJS6_EEEvDpOT_
PUBLIC 4db10 0 ZNSt3__16vectorINS_10unique_ptrIN8crashpad10FileReaderENS_14default_deleteIS3_EEEENS_9allocatorIS6_EEE24__emplace_back_slow_pathIJS6_EEEvDpOT_
PUBLIC 4dc00 0 ZNSt3__117__compressed_pairIPNS_10unique_ptrIN8crashpad10FileReaderENS_14default_deleteIS3_EEEENS_9allocatorIS6_EEE5firstB7v170001Ev
PUBLIC 4dc20 0 ZNSt3__122__compressed_pair_elemIPNS_10unique_ptrIN8crashpad10FileReaderENS_14default_deleteIS3_EEEELi0ELb0EE5__getB7v170001Ev
PUBLIC 4dc30 0 ZNSt3__16vectorINS_10unique_ptrIN8crashpad10FileReaderENS_14default_deleteIS3_EEEENS_9allocatorIS6_EEE21_ConstructTransactionC2B7v170001ERS9_y
PUBLIC 4dc80 0 ZNSt3__116allocator_traitsINS_9allocatorINS_10unique_ptrIN8crashpad10FileReaderENS_14default_deleteIS4_EEEEEEE9constructB7v170001IS7_JS7_EvEEvRS8_PT_DpOT0_
PUBLIC 4dcb0 0 ZNSt3__16vectorINS_10unique_ptrIN8crashpad10FileReaderENS_14default_deleteIS3_EEEENS_9allocatorIS6_EEE7__allocB7v170001Ev
PUBLIC 4dcd0 0 ZNSt3__112__to_addressB7v170001INS_10unique_ptrIN8crashpad10FileReaderENS_14default_deleteIS3_EEEEEEPT_S8_
PUBLIC 4dce0 0 ZNSt3__16vectorINS_10unique_ptrIN8crashpad10FileReaderENS_14default_deleteIS3_EEEENS_9allocatorIS6_EEE21_ConstructTransactionD2B7v170001Ev
PUBLIC 4dd00 0 ZNSt3__19allocatorINS_10unique_ptrIN8crashpad10FileReaderENS_14default_deleteIS3_EEEEE9constructB7v170001IS6_JS6_EEEvPT_DpOT0_
PUBLIC 4dd30 0 ZNSt3__110unique_ptrIN8crashpad10FileReaderENS_14default_deleteIS2_EEEC2B7v170001EOS5_
PUBLIC 4dd90 0 ZNSt3__117__compressed_pairIPN8crashpad10FileReaderENS_14default_deleteIS2_EEEC2B7v170001IS3_S5_EEOT_OT0_
PUBLIC 4ddd0 0 ZNSt3__122__compressed_pair_elemIPN8crashpad10FileReaderELi0ELb0EEC2B7v170001IS3_vEEOT_
PUBLIC 4de00 0 ZNSt3__122__compressed_pair_elemINS_14default_deleteIN8crashpad10FileReaderEEELi1ELb1EEC2B7v170001IS4_vEEOT_
PUBLIC 4de20 0 ZNSt3__117__compressed_pairIPNS_10unique_ptrIN8crashpad10FileReaderENS_14default_deleteIS3_EEEENS_9allocatorIS6_EEE6secondB7v170001Ev
PUBLIC 4de40 0 ZNSt3__122__compressed_pair_elemINS_9allocatorINS_10unique_ptrIN8crashpad10FileReaderENS_14default_deleteIS4_EEEEEELi1ELb1EE5__getB7v170001Ev
PUBLIC 4de50 0 ZNKSt3__16vectorINS_10unique_ptrIN8crashpad10FileReaderENS_14default_deleteIS3_EEEENS_9allocatorIS6_EEE11__recommendB7v170001Ey
PUBLIC 4def0 0 ZNKSt3__16vectorINS_10unique_ptrIN8crashpad10FileReaderENS_14default_deleteIS3_EEEENS_9allocatorIS6_EEE4sizeB7v170001Ev
PUBLIC 4df10 0 ZNSt3__114__split_bufferINS_10unique_ptrIN8crashpad10FileReaderENS_14default_deleteIS3_EEEERNS_9allocatorIS6_EEEC2EyyS9_
PUBLIC 4dfe0 0 ZNSt3__16vectorINS_10unique_ptrIN8crashpad10FileReaderENS_14default_deleteIS3_EEEENS_9allocatorIS6_EEE26__swap_out_circular_bufferERNS_14__split_bufferIS6_RS8_EE
PUBLIC 4e130 0 ZNSt3__114__split_bufferINS_10unique_ptrIN8crashpad10FileReaderENS_14default_deleteIS3_EEEERNS_9allocatorIS6_EEED2Ev
PUBLIC 4e1b0 0 ZNKSt3__16vectorINS_10unique_ptrIN8crashpad10FileReaderENS_14default_deleteIS3_EEEENS_9allocatorIS6_EEE8max_sizeEv
PUBLIC 4e210 0 ZNKSt3__16vectorINS_10unique_ptrIN8crashpad10FileReaderENS_14default_deleteIS3_EEEENS_9allocatorIS6_EEE20__throw_length_errorB7v170001Ev
PUBLIC 4e230 0 ZNKSt3__16vectorINS_10unique_ptrIN8crashpad10FileReaderENS_14default_deleteIS3_EEEENS_9allocatorIS6_EEE8capacityB7v170001Ev
PUBLIC 4e260 0 ZNSt3__116allocator_traitsINS_9allocatorINS_10unique_ptrIN8crashpad10FileReaderENS_14default_deleteIS4_EEEEEEE8max_sizeB7v170001IS8_vEEyRKS8_
PUBLIC 4e280 0 ZNKSt3__16vectorINS_10unique_ptrIN8crashpad10FileReaderENS_14default_deleteIS3_EEEENS_9allocatorIS6_EEE7__allocB7v170001Ev
PUBLIC 4e2a0 0 ZNKSt3__19allocatorINS_10unique_ptrIN8crashpad10FileReaderENS_14default_deleteIS3_EEEEE8max_sizeB7v170001Ev
PUBLIC 4e2c0 0 ZNKSt3__117__compressed_pairIPNS_10unique_ptrIN8crashpad10FileReaderENS_14default_deleteIS3_EEEENS_9allocatorIS6_EEE6secondB7v170001Ev
PUBLIC 4e2e0 0 ZNKSt3__122__compressed_pair_elemINS_9allocatorINS_10unique_ptrIN8crashpad10FileReaderENS_14default_deleteIS4_EEEEEELi1ELb1EE5__getB7v170001Ev
PUBLIC 4e2f0 0 ZNKSt3__16vectorINS_10unique_ptrIN8crashpad10FileReaderENS_14default_deleteIS3_EEEENS_9allocatorIS6_EEE9__end_capB7v170001Ev
PUBLIC 4e310 0 ZNKSt3__117__compressed_pairIPNS_10unique_ptrIN8crashpad10FileReaderENS_14default_deleteIS3_EEEENS_9allocatorIS6_EEE5firstB7v170001Ev
PUBLIC 4e330 0 ZNKSt3__122__compressed_pair_elemIPNS_10unique_ptrIN8crashpad10FileReaderENS_14default_deleteIS3_EEEELi0ELb0EE5__getB7v170001Ev
PUBLIC 4e340 0 ZNSt3__117__compressed_pairIPNS_10unique_ptrIN8crashpad10FileReaderENS_14default_deleteIS3_EEEERNS_9allocatorIS6_EEEC2B7v170001IDnSA_EEOT_OT0_
PUBLIC 4e380 0 ZNSt3__119__allocate_at_leastB7v170001INS_9allocatorINS_10unique_ptrIN8crashpad10FileReaderENS_14default_deleteIS4_EEEEEEEENS_19__allocation_resultINS_16allocator_traitsIT_E7pointerEEERSB_y
PUBLIC 4e3d0 0 ZNSt3__114__split_bufferINS_10unique_ptrIN8crashpad10FileReaderENS_14default_deleteIS3_EEEERNS_9allocatorIS6_EEE7__allocB7v170001Ev
PUBLIC 4e3f0 0 ZNSt3__114__split_bufferINS_10unique_ptrIN8crashpad10FileReaderENS_14default_deleteIS3_EEEERNS_9allocatorIS6_EEE9__end_capB7v170001Ev
PUBLIC 4e410 0 ZNSt3__122__compressed_pair_elemIPNS_10unique_ptrIN8crashpad10FileReaderENS_14default_deleteIS3_EEEELi0ELb0EEC2B7v170001IDnvEEOT_
PUBLIC 4e430 0 ZNSt3__122__compressed_pair_elemIRNS_9allocatorINS_10unique_ptrIN8crashpad10FileReaderENS_14default_deleteIS4_EEEEEELi1ELb0EEC2B7v170001IS9_vEEOT_
PUBLIC 4e450 0 ZNSt3__19allocatorINS_10unique_ptrIN8crashpad10FileReaderENS_14default_deleteIS3_EEEEE8allocateB7v170001Ey
PUBLIC 4e4b0 0 ZNSt3__117__compressed_pairIPNS_10unique_ptrIN8crashpad10FileReaderENS_14default_deleteIS3_EEEERNS_9allocatorIS6_EEE6secondB7v170001Ev
PUBLIC 4e4d0 0 ZNSt3__122__compressed_pair_elemIRNS_9allocatorINS_10unique_ptrIN8crashpad10FileReaderENS_14default_deleteIS4_EEEEEELi1ELb0EE5__getB7v170001Ev
PUBLIC 4e4e0 0 ZNSt3__117__compressed_pairIPNS_10unique_ptrIN8crashpad10FileReaderENS_14default_deleteIS3_EEEERNS_9allocatorIS6_EEE5firstB7v170001Ev
PUBLIC 4e500 0 ZNKSt3__16vectorINS_10unique_ptrIN8crashpad10FileReaderENS_14default_deleteIS3_EEEENS_9allocatorIS6_EEE17__annotate_deleteB7v170001Ev
PUBLIC 4e5d0 0 ZNSt3__142__uninitialized_allocator_move_if_noexceptB7v170001INS_9allocatorINS_10unique_ptrIN8crashpad10FileReaderENS_14default_deleteIS4_EEEEEENS_16reverse_iteratorIPS7_EESB_SB_EET2_RT_T0_T1_SC_
PUBLIC 4e770 0 ZNSt3__116reverse_iteratorIPNS_10unique_ptrIN8crashpad10FileReaderENS_14default_deleteIS3_EEEEEC2B7v170001ES7_
PUBLIC 4e7a0 0 ZNKSt3__116reverse_iteratorIPNS_10unique_ptrIN8crashpad10FileReaderENS_14default_deleteIS3_EEEEE4baseB7v170001Ev
PUBLIC 4e7b0 0 ZNSt3__14swapB7v170001IPNS_10unique_ptrIN8crashpad10FileReaderENS_14default_deleteIS3_EEEEEENS_9enable_ifIXaasr21is_move_constructibleIT_EE5valuesr18is_move_assignableIS9_EE5valueEvE4typeERS9_SC_
PUBLIC 4e7f0 0 ZNKSt3__16vectorINS_10unique_ptrIN8crashpad10FileReaderENS_14default_deleteIS3_EEEENS_9allocatorIS6_EEE14__annotate_newB7v170001Ey
PUBLIC 4e8b0 0 ZNKSt3__16vectorINS_10unique_ptrIN8crashpad10FileReaderENS_14default_deleteIS3_EEEENS_9allocatorIS6_EEE31__annotate_contiguous_containerB7v170001EPKvSB_SB_SB_
PUBLIC 4e8e0 0 ZNKSt3__16vectorINS_10unique_ptrIN8crashpad10FileReaderENS_14default_deleteIS3_EEEENS_9allocatorIS6_EEE4dataB7v170001Ev
PUBLIC 4e900 0 ZNSt3__122__make_exception_guardB7v170001INS_29_AllocatorDestroyRangeReverseINS_9allocatorINS_10unique_ptrIN8crashpad10FileReaderENS_14default_deleteIS5_EEEEEENS_16reverse_iteratorIPS8_EEEEEENS_28__exception_guard_exceptionsIT_EESF_
PUBLIC 4e950 0 ZNSt3__129_AllocatorDestroyRangeReverseINS_9allocatorINS_10unique_ptrIN8crashpad10FileReaderENS_14default_deleteIS4_EEEEEENS_16reverse_iteratorIPS7_EEEC2B7v170001ERS8_RSB_SE_
PUBLIC 4e990 0 ZNSt3__1neB7v170001IPNS_10unique_ptrIN8crashpad10FileReaderENS_14default_deleteIS3_EEEES7_EEbRKNS_16reverse_iteratorIT_EERKNS8_IT0_EE
PUBLIC 4e9d0 0 ZNSt3__112__to_addressB7v170001INS_16reverse_iteratorIPNS_10unique_ptrIN8crashpad10FileReaderENS_14default_deleteIS4_EEEEEEvEEu7__decayIDTclsr19__to_address_helperIT_EE6__callclsr3stdE7declvalIRKSA_EEEEESC_
PUBLIC 4e9f0 0 ZNKSt3__116reverse_iteratorIPNS_10unique_ptrIN8crashpad10FileReaderENS_14default_deleteIS3_EEEEEdeB7v170001Ev
PUBLIC 4ea20 0 ZNSt3__116reverse_iteratorIPNS_10unique_ptrIN8crashpad10FileReaderENS_14default_deleteIS3_EEEEEppB7v170001Ev
PUBLIC 4ea40 0 ZNSt3__128__exception_guard_exceptionsINS_29_AllocatorDestroyRangeReverseINS_9allocatorINS_10unique_ptrIN8crashpad10FileReaderENS_14default_deleteIS5_EEEEEENS_16reverse_iteratorIPS8_EEEEE10__completeB7v170001Ev
PUBLIC 4ea50 0 ZNSt3__128__exception_guard_exceptionsINS_29_AllocatorDestroyRangeReverseINS_9allocatorINS_10unique_ptrIN8crashpad10FileReaderENS_14default_deleteIS5_EEEEEENS_16reverse_iteratorIPS8_EEEEED2B7v170001Ev
PUBLIC 4ea90 0 ZNSt3__128__exception_guard_exceptionsINS_29_AllocatorDestroyRangeReverseINS_9allocatorINS_10unique_ptrIN8crashpad10FileReaderENS_14default_deleteIS5_EEEEEENS_16reverse_iteratorIPS8_EEEEEC2B7v170001ESD_
PUBLIC 4ead0 0 ZNSt3__119__to_address_helperINS_16reverse_iteratorIPNS_10unique_ptrIN8crashpad10FileReaderENS_14default_deleteIS4_EEEEEEvE6__callB7v170001ERKS9_
PUBLIC 4eb10 0 ZNKSt3__116reverse_iteratorIPNS_10unique_ptrIN8crashpad10FileReaderENS_14default_deleteIS3_EEEEEptB7v170001Ev
PUBLIC 4eb30 0 ZNKSt3__129_AllocatorDestroyRangeReverseINS_9allocatorINS_10unique_ptrIN8crashpad10FileReaderENS_14default_deleteIS4_EEEEEENS_16reverse_iteratorIPS7_EEEclB7v170001Ev
PUBLIC 4ebc0 0 ZNSt3__119__allocator_destroyB7v170001INS_9allocatorINS_10unique_ptrIN8crashpad10FileReaderENS_14default_deleteIS4_EEEEEENS_16reverse_iteratorINS9_IPS7_EEEESC_EEvRT_T0_T1_
PUBLIC 4ec30 0 ZNSt3__116reverse_iteratorINS0_IPNS_10unique_ptrIN8crashpad10FileReaderENS_14default_deleteIS3_EEEEEEEC2B7v170001ES8_
PUBLIC 4ec70 0 ZNSt3__1neB7v170001INS_16reverse_iteratorIPNS_10unique_ptrIN8crashpad10FileReaderENS_14default_deleteIS4_EEEEEES9_EEbRKNS1_IT_EERKNS1_IT0_EE
PUBLIC 4ecc0 0 ZNSt3__116allocator_traitsINS_9allocatorINS_10unique_ptrIN8crashpad10FileReaderENS_14default_deleteIS4_EEEEEEE7destroyB7v170001IS7_vEEvRS8_PT_
PUBLIC 4ecf0 0 ZNSt3__112__to_addressB7v170001INS_16reverse_iteratorINS1_IPNS_10unique_ptrIN8crashpad10FileReaderENS_14default_deleteIS4_EEEEEEEEvEEu7__decayIDTclsr19__to_address_helperIT_EE6__callclsr3stdE7declvalIRKSB_EEEEESD_
PUBLIC 4ed10 0 ZNSt3__116reverse_iteratorINS0_IPNS_10unique_ptrIN8crashpad10FileReaderENS_14default_deleteIS3_EEEEEEEppB7v170001Ev
PUBLIC 4ed40 0 ZNKSt3__116reverse_iteratorINS0_IPNS_10unique_ptrIN8crashpad10FileReaderENS_14default_deleteIS3_EEEEEEE4baseB7v170001Ev
PUBLIC 4ed70 0 ZNSt3__19allocatorINS_10unique_ptrIN8crashpad10FileReaderENS_14default_deleteIS3_EEEEE7destroyB7v170001EPS6_
PUBLIC 4ed90 0 ZNSt3__119__to_address_helperINS_16reverse_iteratorINS1_IPNS_10unique_ptrIN8crashpad10FileReaderENS_14default_deleteIS4_EEEEEEEEvE6__callB7v170001ERKSA_
PUBLIC 4edd0 0 ZNKSt3__116reverse_iteratorINS0_IPNS_10unique_ptrIN8crashpad10FileReaderENS_14default_deleteIS3_EEEEEEEptB7v170001Ev
PUBLIC 4edf0 0 ZNKSt3__116reverse_iteratorINS0_IPNS_10unique_ptrIN8crashpad10FileReaderENS_14default_deleteIS3_EEEEEEEdeB7v170001Ev
PUBLIC 4ee30 0 ZNSt3__116reverse_iteratorIPNS_10unique_ptrIN8crashpad10FileReaderENS_14default_deleteIS3_EEEEEmmB7v170001Ev
PUBLIC 4ee50 0 ZNSt3__114__split_bufferINS_10unique_ptrIN8crashpad10FileReaderENS_14default_deleteIS3_EEEERNS_9allocatorIS6_EEE5clearB7v170001Ev
PUBLIC 4ee70 0 ZNSt3__116allocator_traitsINS_9allocatorINS_10unique_ptrIN8crashpad10FileReaderENS_14default_deleteIS4_EEEEEEE10deallocateB7v170001ERS8_PS7_y
PUBLIC 4eea0 0 ZNKSt3__114__split_bufferINS_10unique_ptrIN8crashpad10FileReaderENS_14default_deleteIS3_EEEERNS_9allocatorIS6_EEE8capacityB7v170001Ev
PUBLIC 4eed0 0 ZNSt3__114__split_bufferINS_10unique_ptrIN8crashpad10FileReaderENS_14default_deleteIS3_EEEERNS_9allocatorIS6_EEE17__destruct_at_endB7v170001EPS6_
PUBLIC 4ef00 0 ZNSt3__114__split_bufferINS_10unique_ptrIN8crashpad10FileReaderENS_14default_deleteIS3_EEEERNS_9allocatorIS6_EEE17__destruct_at_endB7v170001EPS6_NS_17integral_constantIbLb0EEE
PUBLIC 4ef80 0 ZNSt3__19allocatorINS_10unique_ptrIN8crashpad10FileReaderENS_14default_deleteIS3_EEEEE10deallocateB7v170001EPS6_y
PUBLIC 4efc0 0 ZNKSt3__114__split_bufferINS_10unique_ptrIN8crashpad10FileReaderENS_14default_deleteIS3_EEEERNS_9allocatorIS6_EEE9__end_capB7v170001Ev
PUBLIC 4efe0 0 ZNKSt3__117__compressed_pairIPNS_10unique_ptrIN8crashpad10FileReaderENS_14default_deleteIS3_EEEERNS_9allocatorIS6_EEE5firstB7v170001Ev
PUBLIC 4f000 0 ZNSt3__16__treeINS_12__value_typeINS_12basic_stringIcNS_11char_traitsIcEENS_9allocatorIcEEEEPN8crashpad10FileReaderEEENS_19__map_value_compareIS7_SB_NS_4lessIS7_EELb1EEENS5_ISB_EEE25__emplace_unique_key_argsIS7_JRKNS_21piecewise_construct_tENS_5tupleIJRKS7_EEENSM_IJEEEEEENS_4pairINS_15__tree_iteratorISB_PNS_11__tree_nodeISB_PvEExEEbEERKT_DpOT0_
PUBLIC 4f160 0 ZNSt3__116forward_as_tupleB7v170001IJRKNS_12basic_stringIcNS_11char_traitsIcEENS_9allocatorIcEEEEEEENS_5tupleIJDpOT_EEESC_
PUBLIC 4f190 0 ZNKSt3__115__tree_iteratorINS_12__value_typeINS_12basic_stringIcNS_11char_traitsIcEENS_9allocatorIcEEEEPN8crashpad10FileReaderEEEPNS_11__tree_nodeISB_PvEExEptB7v170001Ev
PUBLIC 4f1c0 0 ZNSt3__112__value_typeINS_12basic_stringIcNS_11char_traitsIcEENS_9allocatorIcEEEEPN8crashpad10FileReaderEE11__get_valueB7v170001Ev
PUBLIC 4f1e0 0 ZNSt3__16__treeINS_12__value_typeINS_12basic_stringIcNS_11char_traitsIcEENS_9allocatorIcEEEEPN8crashpad10FileReaderEEENS_19__map_value_compareIS7_SB_NS_4lessIS7_EELb1EEENS5_ISB_EEE12__find_equalIS7_EERPNS_16__tree_node_baseIPvEERPNS_15__tree_end_nodeISM_EERKT_
PUBLIC 4f380 0 ZNSt3__16__treeINS_12__value_typeINS_12basic_stringIcNS_11char_traitsIcEENS_9allocatorIcEEEEPN8crashpad10FileReaderEEENS_19__map_value_compareIS7_SB_NS_4lessIS7_EELb1EEENS5_ISB_EEE16__construct_nodeIJRKNS_21piecewise_construct_tENS_5tupleIJRKS7_EEENSM_IJEEEEEENS_10unique_ptrINS_11__tree_nodeISB_PvEENS_22__tree_node_destructorINS5_ISU_EEEEEEDpOT_
PUBLIC 4f4f0 0 ZNSt3__16__treeINS_12__value_typeINS_12basic_stringIcNS_11char_traitsIcEENS_9allocatorIcEEEEPN8crashpad10FileReaderEEENS_19__map_value_compareIS7_SB_NS_4lessIS7_EELb1EEENS5_ISB_EEE16__insert_node_atEPNS_15__tree_end_nodeIPNS_16__tree_node_baseIPvEEEERSM_SM_
PUBLIC 4f5c0 0 ZNKSt3__110unique_ptrINS_11__tree_nodeINS_12__value_typeINS_12basic_stringIcNS_11char_traitsIcEENS_9allocatorIcEEEEPN8crashpad10FileReaderEEEPvEENS_22__tree_node_destructorINS6_ISE_EEEEE3getB7v170001Ev
PUBLIC 4f5e0 0 ZNSt3__110unique_ptrINS_11__tree_nodeINS_12__value_typeINS_12basic_stringIcNS_11char_traitsIcEENS_9allocatorIcEEEEPN8crashpad10FileReaderEEEPvEENS_22__tree_node_destructorINS6_ISE_EEEEE7releaseB7v170001Ev
PUBLIC 4f620 0 ZNSt3__110unique_ptrINS_11__tree_nodeINS_12__value_typeINS_12basic_stringIcNS_11char_traitsIcEENS_9allocatorIcEEEEPN8crashpad10FileReaderEEEPvEENS_22__tree_node_destructorINS6_ISE_EEEEED2B7v170001Ev
PUBLIC 4f640 0 ZNSt3__115__tree_iteratorINS_12__value_typeINS_12basic_stringIcNS_11char_traitsIcEENS_9allocatorIcEEEEPN8crashpad10FileReaderEEEPNS_11__tree_nodeISB_PvEExEC2B7v170001ESF_
PUBLIC 4f660 0 ZNSt3__14pairINS_15__tree_iteratorINS_12__value_typeINS_12basic_stringIcNS_11char_traitsIcEENS_9allocatorIcEEEEPN8crashpad10FileReaderEEEPNS_11__tree_nodeISC_PvEExEEbEC2B7v170001ISH_RbLSE_0EEEOT_OT0_
PUBLIC 4f6a0 0 ZNKSt3__16__treeINS_12__value_typeINS_12basic_stringIcNS_11char_traitsIcEENS_9allocatorIcEEEEPN8crashpad10FileReaderEEENS_19__map_value_compareIS7_SB_NS_4lessIS7_EELb1EEENS5_ISB_EEE6__rootB7v170001Ev
PUBLIC 4f6c0 0 ZNKSt3__16__treeINS_12__value_typeINS_12basic_stringIcNS_11char_traitsIcEENS_9allocatorIcEEEEPN8crashpad10FileReaderEEENS_19__map_value_compareIS7_SB_NS_4lessIS7_EELb1EEENS5_ISB_EEE10__root_ptrB7v170001Ev
PUBLIC 4f6e0 0 ZNSt3__16__treeINS_12__value_typeINS_12basic_stringIcNS_11char_traitsIcEENS_9allocatorIcEEEEPN8crashpad10FileReaderEEENS_19__map_value_compareIS7_SB_NS_4lessIS7_EELb1EEENS5_ISB_EEE10value_compB7v170001Ev
PUBLIC 4f700 0 ZNKSt3__119__map_value_compareINS_12basic_stringIcNS_11char_traitsIcEENS_9allocatorIcEEEENS_12__value_typeIS6_PN8crashpad10FileReaderEEENS_4lessIS6_EELb1EEclB7v170001ERKS6_RKSB_
PUBLIC 4f750 0 ZNKSt3__119__map_value_compareINS_12basic_stringIcNS_11char_traitsIcEENS_9allocatorIcEEEENS_12__value_typeIS6_PN8crashpad10FileReaderEEENS_4lessIS6_EELb1EEclB7v170001ERKSB_RKS6_
PUBLIC 4f7a0 0 ZNSt3__16__treeINS_12__value_typeINS_12basic_stringIcNS_11char_traitsIcEENS_9allocatorIcEEEEPN8crashpad10FileReaderEEENS_19__map_value_compareIS7_SB_NS_4lessIS7_EELb1EEENS5_ISB_EEE10__end_nodeB7v170001Ev
PUBLIC 4f7d0 0 ZNKSt3__16__treeINS_12__value_typeINS_12basic_stringIcNS_11char_traitsIcEENS_9allocatorIcEEEEPN8crashpad10FileReaderEEENS_19__map_value_compareIS7_SB_NS_4lessIS7_EELb1EEENS5_ISB_EEE10__end_nodeB7v170001Ev
PUBLIC 4f800 0 ZNKSt3__117__compressed_pairINS_15__tree_end_nodeIPNS_16__tree_node_baseIPvEEEENS_9allocatorINS_11__tree_nodeINS_12__value_typeINS_12basic_stringIcNS_11char_traitsIcEENS7_IcEEEEPN8crashpad10FileReaderEEES3_EEEEE5firstB7v170001Ev
PUBLIC 4f820 0 ZNSt3__117__compressed_pairIyNS_19__map_value_compareINS_12basic_stringIcNS_11char_traitsIcEENS_9allocatorIcEEEENS_12__value_typeIS7_PN8crashpad10FileReaderEEENS_4lessIS7_EELb1EEEE6secondB7v170001Ev
PUBLIC 4f840 0 ZNSt3__122__compressed_pair_elemINS_19__map_value_compareINS_12basic_stringIcNS_11char_traitsIcEENS_9allocatorIcEEEENS_12__value_typeIS7_PN8crashpad10FileReaderEEENS_4lessIS7_EELb1EEELi1ELb1EE5__getB7v170001Ev
PUBLIC 4f850 0 ZNKSt3__112__value_typeINS_12basic_stringIcNS_11char_traitsIcEENS_9allocatorIcEEEEPN8crashpad10FileReaderEE11__get_valueB7v170001Ev
PUBLIC 4f870 0 ZNSt3__17launderB7v170001IKNS_4pairIKNS_12basic_stringIcNS_11char_traitsIcEENS_9allocatorIcEEEEPN8crashpad10FileReaderEEEEEPT_SF_
PUBLIC 4f890 0 ZNSt3__19__launderB7v170001IKNS_4pairIKNS_12basic_stringIcNS_11char_traitsIcEENS_9allocatorIcEEEEPN8crashpad10FileReaderEEEEEPT_SF_
PUBLIC 4f8a0 0 ZNSt3__117__compressed_pairINS_15__tree_end_nodeIPNS_16__tree_node_baseIPvEEEENS_9allocatorINS_11__tree_nodeINS_12__value_typeINS_12basic_stringIcNS_11char_traitsIcEENS7_IcEEEEPN8crashpad10FileReaderEEES3_EEEEE5firstB7v170001Ev
PUBLIC 4f8c0 0 ZNSt3__16__treeINS_12__value_typeINS_12basic_stringIcNS_11char_traitsIcEENS_9allocatorIcEEEEPN8crashpad10FileReaderEEENS_19__map_value_compareIS7_SB_NS_4lessIS7_EELb1EEENS5_ISB_EEE12__node_allocB7v170001Ev
PUBLIC 4f8e0 0 ZNSt3__116allocator_traitsINS_9allocatorINS_11__tree_nodeINS_12__value_typeINS_12basic_stringIcNS_11char_traitsIcEENS1_IcEEEEPN8crashpad10FileReaderEEEPvEEEEE8allocateB7v170001ERSF_y
PUBLIC 4f910 0 ZNSt3__122__tree_node_destructorINS_9allocatorINS_11__tree_nodeINS_12__value_typeINS_12basic_stringIcNS_11char_traitsIcEENS1_IcEEEEPN8crashpad10FileReaderEEEPvEEEEEC2B7v170001ERSF_b
PUBLIC 4f950 0 ZNSt3__110unique_ptrINS_11__tree_nodeINS_12__value_typeINS_12basic_stringIcNS_11char_traitsIcEENS_9allocatorIcEEEEPN8crashpad10FileReaderEEEPvEENS_22__tree_node_destructorINS6_ISE_EEEEEC2B7v170001ILb1EvEEPSE_NS_16__dependent_typeINS_27__unique_ptr_deleter_sfinaeISH_EEXT_EE20__good_rval_ref_typeE
PUBLIC 4f990 0 ZNSt3__116allocator_traitsINS_9allocatorINS_11__tree_nodeINS_12__value_typeINS_12basic_stringIcNS_11char_traitsIcEENS1_IcEEEEPN8crashpad10FileReaderEEEPvEEEEE9constructB7v170001INS_4pairIKS8_SB_EEJRKNS_21piecewise_construct_tENS_5tupleIJRSJ_EEENSO_IJEEEEvEEvRSF_PT_DpOT0_
PUBLIC 4f9e0 0 ZNSt3__122__tree_key_value_typesINS_12__value_typeINS_12basic_stringIcNS_11char_traitsIcEENS_9allocatorIcEEEEPN8crashpad10FileReaderEEEE9__get_ptrB7v170001ERSB_
PUBLIC 4fa00 0 ZNKSt3__110unique_ptrINS_11__tree_nodeINS_12__value_typeINS_12basic_stringIcNS_11char_traitsIcEENS_9allocatorIcEEEEPN8crashpad10FileReaderEEEPvEENS_22__tree_node_destructorINS6_ISE_EEEEEptB7v170001Ev
PUBLIC 4fa20 0 ZNSt3__110unique_ptrINS_11__tree_nodeINS_12__value_typeINS_12basic_stringIcNS_11char_traitsIcEENS_9allocatorIcEEEEPN8crashpad10FileReaderEEEPvEENS_22__tree_node_destructorINS6_ISE_EEEEE11get_deleterB7v170001Ev
PUBLIC 4fa40 0 ZNSt3__117__compressed_pairINS_15__tree_end_nodeIPNS_16__tree_node_baseIPvEEEENS_9allocatorINS_11__tree_nodeINS_12__value_typeINS_12basic_stringIcNS_11char_traitsIcEENS7_IcEEEEPN8crashpad10FileReaderEEES3_EEEEE6secondB7v170001Ev
PUBLIC 4fa60 0 ZNSt3__122__compressed_pair_elemINS_9allocatorINS_11__tree_nodeINS_12__value_typeINS_12basic_stringIcNS_11char_traitsIcEENS1_IcEEEEPN8crashpad10FileReaderEEEPvEEEELi1ELb1EE5__getB7v170001Ev
PUBLIC 4fa70 0 ZNSt3__19allocatorINS_11__tree_nodeINS_12__value_typeINS_12basic_stringIcNS_11char_traitsIcEENS0_IcEEEEPN8crashpad10FileReaderEEEPvEEE8allocateB7v170001Ey
PUBLIC 4fad0 0 ZNSt3__116allocator_traitsINS_9allocatorINS_11__tree_nodeINS_12__value_typeINS_12basic_stringIcNS_11char_traitsIcEENS1_IcEEEEPN8crashpad10FileReaderEEEPvEEEEE8max_sizeB7v170001ISF_vEEyRKSF_
PUBLIC 4faf0 0 ZNKSt3__19allocatorINS_11__tree_nodeINS_12__value_typeINS_12basic_stringIcNS_11char_traitsIcEENS0_IcEEEEPN8crashpad10FileReaderEEEPvEEE8max_sizeB7v170001Ev
PUBLIC 4fb10 0 ZNSt3__117__compressed_pairIPNS_11__tree_nodeINS_12__value_typeINS_12basic_stringIcNS_11char_traitsIcEENS_9allocatorIcEEEEPN8crashpad10FileReaderEEEPvEENS_22__tree_node_destructorINS6_ISE_EEEEEC2B7v170001IRSF_SI_EEOT_OT0_
PUBLIC 4fb50 0 ZNSt3__122__compressed_pair_elemIPNS_11__tree_nodeINS_12__value_typeINS_12basic_stringIcNS_11char_traitsIcEENS_9allocatorIcEEEEPN8crashpad10FileReaderEEEPvEELi0ELb0EEC2B7v170001IRSF_vEEOT_
PUBLIC 4fb80 0 ZNSt3__122__compressed_pair_elemINS_22__tree_node_destructorINS_9allocatorINS_11__tree_nodeINS_12__value_typeINS_12basic_stringIcNS_11char_traitsIcEENS2_IcEEEEPN8crashpad10FileReaderEEEPvEEEEEELi1ELb0EEC2B7v170001ISH_vEEOT_
PUBLIC 4fbb0 0 ZNSt3__19allocatorINS_11__tree_nodeINS_12__value_typeINS_12basic_stringIcNS_11char_traitsIcEENS0_IcEEEEPN8crashpad10FileReaderEEEPvEEE9constructB7v170001INS_4pairIKS7_SA_EEJRKNS_21piecewise_construct_tENS_5tupleIJRSH_EEENSM_IJEEEEEEvPT_DpOT0_
PUBLIC 4fc00 0 ZNSt3__14pairIKNS_12basic_stringIcNS_11char_traitsIcEENS_9allocatorIcEEEEPN8crashpad10FileReaderEEC2B7v170001IJRS7_EJEEENS_21piecewise_construct_tENS_5tupleIJDpT_EEENSF_IJDpT0_EEE
PUBLIC 4fc50 0 ZNSt3__14pairIKNS_12basic_stringIcNS_11char_traitsIcEENS_9allocatorIcEEEEPN8crashpad10FileReaderEEC2B7v170001IJRS7_EJEJLy0EEJEEENS_21piecewise_construct_tERNS_5tupleIJDpT_EEERNSF_IJDpT0_EEENS_15__tuple_indicesIJXspT1_EEEENSO_IJXspT2_EEEE
PUBLIC 4fcb0 0 ZNSt3__13getB7v170001ILy0EJRKNS_12basic_stringIcNS_11char_traitsIcEENS_9allocatorIcEEEEEEERNS_13tuple_elementIXT_ENS_5tupleIJDpT0_EEEE4typeERSD_
PUBLIC 4fcd0 0 ZNSt3__112__tuple_leafILy0ERKNS_12basic_stringIcNS_11char_traitsIcEENS_9allocatorIcEEEELb0EE3getB7v170001Ev
PUBLIC 4fce0 0 ZNKSt3__117__compressed_pairIPNS_11__tree_nodeINS_12__value_typeINS_12basic_stringIcNS_11char_traitsIcEENS_9allocatorIcEEEEPN8crashpad10FileReaderEEEPvEENS_22__tree_node_destructorINS6_ISE_EEEEE5firstB7v170001Ev
PUBLIC 4fd00 0 ZNKSt3__122__compressed_pair_elemIPNS_11__tree_nodeINS_12__value_typeINS_12basic_stringIcNS_11char_traitsIcEENS_9allocatorIcEEEEPN8crashpad10FileReaderEEEPvEELi0ELb0EE5__getB7v170001Ev
PUBLIC 4fd10 0 ZNSt3__117__compressed_pairIPNS_11__tree_nodeINS_12__value_typeINS_12basic_stringIcNS_11char_traitsIcEENS_9allocatorIcEEEEPN8crashpad10FileReaderEEEPvEENS_22__tree_node_destructorINS6_ISE_EEEEE6secondB7v170001Ev
PUBLIC 4fd30 0 ZNSt3__122__compressed_pair_elemINS_22__tree_node_destructorINS_9allocatorINS_11__tree_nodeINS_12__value_typeINS_12basic_stringIcNS_11char_traitsIcEENS2_IcEEEEPN8crashpad10FileReaderEEEPvEEEEEELi1ELb0EE5__getB7v170001Ev
PUBLIC 4fd40 0 ZNSt3__16__treeINS_12__value_typeINS_12basic_stringIcNS_11char_traitsIcEENS_9allocatorIcEEEEPN8crashpad10FileReaderEEENS_19__map_value_compareIS7_SB_NS_4lessIS7_EELb1EEENS5_ISB_EEE12__begin_nodeB7v170001Ev
PUBLIC 4fd50 0 ZNSt3__16__treeINS_12__value_typeINS_12basic_stringIcNS_11char_traitsIcEENS_9allocatorIcEEEEPN8crashpad10FileReaderEEENS_19__map_value_compareIS7_SB_NS_4lessIS7_EELb1EEENS5_ISB_EEE4sizeB7v170001Ev
PUBLIC 4fd70 0 ZNSt3__117__compressed_pairIyNS_19__map_value_compareINS_12basic_stringIcNS_11char_traitsIcEENS_9allocatorIcEEEENS_12__value_typeIS7_PN8crashpad10FileReaderEEENS_4lessIS7_EELb1EEEE5firstB7v170001Ev
PUBLIC 4fd90 0 ZNSt3__117__compressed_pairIPNS_11__tree_nodeINS_12__value_typeINS_12basic_stringIcNS_11char_traitsIcEENS_9allocatorIcEEEEPN8crashpad10FileReaderEEEPvEENS_22__tree_node_destructorINS6_ISE_EEEEE5firstB7v170001Ev
PUBLIC 4fdb0 0 ZNSt3__122__compressed_pair_elemIPNS_11__tree_nodeINS_12__value_typeINS_12basic_stringIcNS_11char_traitsIcEENS_9allocatorIcEEEEPN8crashpad10FileReaderEEEPvEELi0ELb0EE5__getB7v170001Ev
PUBLIC 4fdc0 0 ZNSt3__110unique_ptrINS_11__tree_nodeINS_12__value_typeINS_12basic_stringIcNS_11char_traitsIcEENS_9allocatorIcEEEEPN8crashpad10FileReaderEEEPvEENS_22__tree_node_destructorINS6_ISE_EEEEE5resetB7v170001EPSE_
PUBLIC 4fe30 0 ZNSt3__122__tree_node_destructorINS_9allocatorINS_11__tree_nodeINS_12__value_typeINS_12basic_stringIcNS_11char_traitsIcEENS1_IcEEEEPN8crashpad10FileReaderEEEPvEEEEEclB7v170001EPSE_
PUBLIC 4fed0 0 ZNSt3__116allocator_traitsINS_9allocatorINS_11__tree_nodeINS_12__value_typeINS_12basic_stringIcNS_11char_traitsIcEENS1_IcEEEEPN8crashpad10FileReaderEEEPvEEEEE7destroyB7v170001INS_4pairIKS8_SB_EEvvEEvRSF_PT_
PUBLIC 4fef0 0 ZNSt3__116allocator_traitsINS_9allocatorINS_11__tree_nodeINS_12__value_typeINS_12basic_stringIcNS_11char_traitsIcEENS1_IcEEEEPN8crashpad10FileReaderEEEPvEEEEE10deallocateB7v170001ERSF_PSE_y
PUBLIC 4ff20 0 ZNSt3__14pairIKNS_12basic_stringIcNS_11char_traitsIcEENS_9allocatorIcEEEEPN8crashpad10FileReaderEED2Ev
PUBLIC 4ff40 0 ZNSt3__19allocatorINS_11__tree_nodeINS_12__value_typeINS_12basic_stringIcNS_11char_traitsIcEENS0_IcEEEEPN8crashpad10FileReaderEEEPvEEE10deallocateB7v170001EPSD_y
PUBLIC 4ff80 0 ZNSt3__15tupleIJRKNS_12basic_stringIcNS_11char_traitsIcEENS_9allocatorIcEEEEEEC2B7v170001INS_4_AndELi0EEES8_
PUBLIC 4ffc0 0 ZNSt3__112__tuple_implINS_15__tuple_indicesIJLy0EEEEJRKNS_12basic_stringIcNS_11char_traitsIcEENS_9allocatorIcEEEEEEC2B7v170001IJLy0EEJSA_EJEJEJSA_EEENS1_IJXspT_EEEENS_13__tuple_typesIJDpT0_EEENS1_IJXspT1_EEEENSE_IJDpT2_EEEDpOT3_
PUBLIC 50000 0 ZNSt3__112__tuple_leafILy0ERKNS_12basic_stringIcNS_11char_traitsIcEENS_9allocatorIcEEEELb0EEC2B7v170001IS8_vEEOT_
PUBLIC 50020 0 ZNSt3__114pointer_traitsIPNS_12__value_typeINS_12basic_stringIcNS_11char_traitsIcEENS_9allocatorIcEEEEPN8crashpad10FileReaderEEEE10pointer_toB7v170001ERSB_
PUBLIC 50030 0 ZNKSt3__115__tree_iteratorINS_12__value_typeINS_12basic_stringIcNS_11char_traitsIcEENS_9allocatorIcEEEEPN8crashpad10FileReaderEEEPNS_11__tree_nodeISB_PvEExE8__get_npB7v170001Ev
PUBLIC 50040 0 ZNSt3__17launderB7v170001INS_4pairIKNS_12basic_stringIcNS_11char_traitsIcEENS_9allocatorIcEEEEPN8crashpad10FileReaderEEEEEPT_SE_
PUBLIC 50060 0 ZNSt3__19__launderB7v170001INS_4pairIKNS_12basic_stringIcNS_11char_traitsIcEENS_9allocatorIcEEEEPN8crashpad10FileReaderEEEEEPT_SE_
PUBLIC 50070 0 ZNSt3__117__compressed_pairIPNS_10unique_ptrIN8crashpad10FileReaderENS_14default_deleteIS3_EEEENS_9allocatorIS6_EEEC2B7v170001IDnNS_18__default_init_tagEEEOT_OT0_
PUBLIC 500b0 0 ZNSt3__122__compressed_pair_elemINS_9allocatorINS_10unique_ptrIN8crashpad10FileReaderENS_14default_deleteIS4_EEEEEELi1ELb1EEC2B7v170001ENS_18__default_init_tagE
PUBLIC 500d0 0 ZNSt3__19allocatorINS_10unique_ptrIN8crashpad10FileReaderENS_14default_deleteIS3_EEEEEC2B7v170001Ev
PUBLIC 500f0 0 ZNSt3__116__non_trivial_ifILb1ENS_9allocatorINS_10unique_ptrIN8crashpad10FileReaderENS_14default_deleteIS4_EEEEEEEC2B7v170001Ev
PUBLIC 50100 0 ZNSt3__119__map_value_compareINS_12basic_stringIcNS_11char_traitsIcEENS_9allocatorIcEEEENS_12__value_typeIS6_PN8crashpad10FileReaderEEENS_4lessIS6_EELb1EEC2B7v170001ESD_
PUBLIC 50120 0 ZNSt3__16__treeINS_12__value_typeINS_12basic_stringIcNS_11char_traitsIcEENS_9allocatorIcEEEEPN8crashpad10FileReaderEEENS_19__map_value_compareIS7_SB_NS_4lessIS7_EELb1EEENS5_ISB_EEEC2ERKSF_
PUBLIC 501a0 0 ZNSt3__117__compressed_pairINS_15__tree_end_nodeIPNS_16__tree_node_baseIPvEEEENS_9allocatorINS_11__tree_nodeINS_12__value_typeINS_12basic_stringIcNS_11char_traitsIcEENS7_IcEEEEPN8crashpad10FileReaderEEES3_EEEEEC2B7v170001ILb1EvEEv
PUBLIC 501d0 0 ZNSt3__117__compressed_pairIyNS_19__map_value_compareINS_12basic_stringIcNS_11char_traitsIcEENS_9allocatorIcEEEENS_12__value_typeIS7_PN8crashpad10FileReaderEEENS_4lessIS7_EELb1EEEEC2B7v170001IiRKSF_EEOT_OT0_
PUBLIC 50210 0 ZNSt3__122__compressed_pair_elemINS_9allocatorINS_11__tree_nodeINS_12__value_typeINS_12basic_stringIcNS_11char_traitsIcEENS1_IcEEEEPN8crashpad10FileReaderEEEPvEEEELi1ELb1EEC2B7v170001ENS_16__value_init_tagE
PUBLIC 50230 0 ZNSt3__19allocatorINS_11__tree_nodeINS_12__value_typeINS_12basic_stringIcNS_11char_traitsIcEENS0_IcEEEEPN8crashpad10FileReaderEEEPvEEEC2B7v170001Ev
PUBLIC 50250 0 ZNSt3__116__non_trivial_ifILb1ENS_9allocatorINS_11__tree_nodeINS_12__value_typeINS_12basic_stringIcNS_11char_traitsIcEENS1_IcEEEEPN8crashpad10FileReaderEEEPvEEEEEC2B7v170001Ev
PUBLIC 50260 0 ZNSt3__122__compressed_pair_elemINS_19__map_value_compareINS_12basic_stringIcNS_11char_traitsIcEENS_9allocatorIcEEEENS_12__value_typeIS7_PN8crashpad10FileReaderEEENS_4lessIS7_EELb1EEELi1ELb1EEC2B7v170001IRKSF_vEEOT_
PUBLIC 50280 0 ZNSt3__16vectorINS_10unique_ptrIN8crashpad10FileReaderENS_14default_deleteIS3_EEEENS_9allocatorIS6_EEE16__destroy_vectorC2B7v170001ERS9_
PUBLIC 502a0 0 ZNSt3__16vectorINS_10unique_ptrIN8crashpad10FileReaderENS_14default_deleteIS3_EEEENS_9allocatorIS6_EEE16__destroy_vectorclB7v170001Ev
PUBLIC 50320 0 ZNSt3__16vectorINS_10unique_ptrIN8crashpad10FileReaderENS_14default_deleteIS3_EEEENS_9allocatorIS6_EEE7__clearB7v170001Ev
PUBLIC 50340 0 ZNSt3__16vectorINS_10unique_ptrIN8crashpad10FileReaderENS_14default_deleteIS3_EEEENS_9allocatorIS6_EEE22__base_destruct_at_endB7v170001EPS6_
PUBLIC 503d0 0 ZNSt3__16__treeINS_12__value_typeINS_12basic_stringIcNS_11char_traitsIcEENS_9allocatorIcEEEEPN8crashpad10FileReaderEEENS_19__map_value_compareIS7_SB_NS_4lessIS7_EELb1EEENS5_ISB_EEED2Ev
PUBLIC 50400 0 ZNSt3__16__treeINS_12__value_typeINS_12basic_stringIcNS_11char_traitsIcEENS_9allocatorIcEEEEPN8crashpad10FileReaderEEENS_19__map_value_compareIS7_SB_NS_4lessIS7_EELb1EEENS5_ISB_EEE7destroyEPNS_11__tree_nodeISB_PvEE
PUBLIC 504b0 0 ZNKSt3__117__compressed_pairIPKN8crashpad19CrashReportDatabase12UploadReportENS_14default_deleteIS4_EEE5firstB7v170001Ev
PUBLIC 504d0 0 ZNKSt3__122__compressed_pair_elemIPKN8crashpad19CrashReportDatabase12UploadReportELi0ELb0EE5__getB7v170001Ev
PUBLIC 504e0 0 ZN8crashpad24WeakFileHandleFileWriterC2EPv
PUBLIC 50540 0 ZN8crashpad24WeakFileHandleFileWriterC1EPv
PUBLIC 505b0 0 ZN8crashpad24WeakFileHandleFileWriterD2Ev
PUBLIC 505e0 0 ZN8crashpad24WeakFileHandleFileWriterD1Ev
PUBLIC 50610 0 ZN8crashpad24WeakFileHandleFileWriterD0Ev
PUBLIC 50640 0 ZN8crashpad24WeakFileHandleFileWriter5WriteEPKvy
PUBLIC 50740 0 ZN8crashpad24WeakFileHandleFileWriter10WriteIoVecEPNSt3__16vectorINS_13WritableIoVecENS1_9allocatorIS3_EEEE
PUBLIC 50a50 0 ZN8crashpad24WeakFileHandleFileWriter4SeekExi
PUBLIC 50b50 0 ZTv0_n24_N8crashpad24WeakFileHandleFileWriter4SeekExi
PUBLIC 50b90 0 ZN8crashpad10FileWriterC2Ev
PUBLIC 50c40 0 ZN8crashpad10FileWriterC1Ev
PUBLIC 50cf0 0 ZN8crashpad10FileWriterD2Ev
PUBLIC 50d60 0 ZN8crashpad10FileWriterD1Ev
PUBLIC 50d90 0 ZN8crashpad10FileWriterD0Ev
PUBLIC 50dc0 0 ZN8crashpad10FileWriter4OpenERKN4base8FilePathENS_13FileWriteModeENS_15FilePermissionsE
PUBLIC 50fd0 0 ZN8crashpad10FileWriter5CloseEv
PUBLIC 51150 0 ZN8crashpad10FileWriter5WriteEPKvy
PUBLIC 512f0 0 ZN8crashpad10FileWriter10WriteIoVecEPNSt3__16vectorINS_13WritableIoVecENS1_9allocatorIS3_EEEE
PUBLIC 51480 0 ZN8crashpad10FileWriter4SeekExi
PUBLIC 51610 0 ZTv0_n24_N8crashpad10FileWriter4SeekExi
PUBLIC 51650 0 ZN8crashpad19FileWriterInterfaceC2Ev
PUBLIC 51680 0 ZN8crashpad19FileSeekerInterfaceC2Ev
PUBLIC 516a0 0 ZN8crashpad19FileWriterInterfaceD2Ev
PUBLIC 516c0 0 ZN8crashpad19FileSeekerInterfaceD2Ev
PUBLIC 516d0 0 ZN7logging11CheckNEImplIPvS1_EEPNSt3__112basic_stringIcNS2_11char_traitsIcEENS2_9allocatorIcEEEERKT_RKT0_PKc
PUBLIC 51730 0 ZNKSt3__16vectorIN8crashpad13WritableIoVecENS_9allocatorIS2_EEE5emptyB7v170001Ev
PUBLIC 51750 0 ZNSt3__16vectorIN8crashpad13WritableIoVecENS_9allocatorIS2_EEE5beginB7v170001Ev
PUBLIC 51780 0 ZNSt3__16vectorIN8crashpad13WritableIoVecENS_9allocatorIS2_EEE3endB7v170001Ev
PUBLIC 517b0 0 ZNSt3__1neB7v170001IPN8crashpad13WritableIoVecEEEbRKNS_11__wrap_iterIT_EES8_
PUBLIC 517e0 0 ZNKSt3__111__wrap_iterIPN8crashpad13WritableIoVecEEdeB7v170001Ev
PUBLIC 517f0 0 ZNSt3__111__wrap_iterIPN8crashpad13WritableIoVecEEppB7v170001Ev
PUBLIC 51810 0 ZNSt3__16vectorIN8crashpad13WritableIoVecENS_9allocatorIS2_EEEixB7v170001Ey
PUBLIC 51840 0 ZNKSt3__16vectorIN8crashpad13WritableIoVecENS_9allocatorIS2_EEE4sizeB7v170001Ev
PUBLIC 51860 0 ZN8crashpad24WeakFileHandleFileWriter15set_file_handleEPv
PUBLIC 51880 0 ZN8crashpad19FileWriterInterfaceD1Ev
PUBLIC 51890 0 ZN8crashpad19FileWriterInterfaceD0Ev
PUBLIC 518a0 0 ZNSt3__1eqB7v170001IPN8crashpad13WritableIoVecEEEbRKNS_11__wrap_iterIT_EES8_
PUBLIC 518e0 0 ZNKSt3__111__wrap_iterIPN8crashpad13WritableIoVecEE4baseB7v170001Ev
PUBLIC 518f0 0 ZNSt3__16vectorIN8crashpad13WritableIoVecENS_9allocatorIS2_EEE11__make_iterB7v170001EPS2_
PUBLIC 51920 0 ZNSt3__111__wrap_iterIPN8crashpad13WritableIoVecEEC2B7v170001ES3_
PUBLIC 51940 0 ZN4base18UmaHistogramSparseERKNSt3__112basic_stringIcNS0_11char_traitsIcEENS0_9allocatorIcEEEEi
PUBLIC 51960 0 ZN8crashpad7Metrics18CrashReportPendingENS0_19PendingReportReasonE
PUBLIC 51970 0 ZN8crashpad7Metrics15CrashReportSizeEx
PUBLIC 51990 0 ZN8crashpad7Metrics20CrashUploadAttemptedEb
PUBLIC 519a0 0 ZN8crashpad7Metrics18CrashUploadSkippedENS0_18CrashSkippedReasonE
PUBLIC 519b0 0 ZN8crashpad7Metrics22ExceptionCaptureResultENS0_13CaptureResultE
PUBLIC 519e0 0 ZN8crashpad7Metrics13ExceptionCodeEj
PUBLIC 51a20 0 ZN8crashpad7Metrics20ExceptionEncounteredEv
PUBLIC 51a40 0 ZN8crashpad7Metrics24HandlerLifetimeMilestoneENS0_17LifetimeMilestoneE
PUBLIC 51a50 0 ZN8crashpad7Metrics14HandlerCrashedEj
PUBLIC 51a90 0 ZN4base8internal14saturated_castIjNS0_23SaturationDefaultLimitsExEET_T1_
PUBLIC 51b00 0 ZN4base8internal21IsCompileTimeConstantIxEEbT_
PUBLIC 51b10 0 ZN4base8internal14SaturateFastOpIjxvE2DoEx
PUBLIC 51b70 0 ZN4base8internal19saturated_cast_implIjNS0_23SaturationDefaultLimitsExEET_T1_NS0_10RangeCheckE
PUBLIC 51be0 0 ZN4base8internal26DstRangeRelationToSrcRangeIjNS0_23SaturationDefaultLimitsExEENS0_10RangeCheckET1_
PUBLIC 51c10 0 ZN4base8internal14CommonMaxOrMinIjxEET_b
PUBLIC 51c50 0 ZN4base8internal15IsValueNegativeIxLPv0EEEbT_
PUBLIC 51c70 0 ZN4base8internal28IsValueInRangeForNumericTypeIjxEEbT0_
PUBLIC 51c90 0 ZN4base8internal9CommonMinIjxEET_v
PUBLIC 51ca0 0 ZN4base8internal9CommonMaxIjxEET_v
PUBLIC 51cb0 0 ZNSt3__114numeric_limitsIjE6lowestB7v170001Ev
PUBLIC 51cc0 0 ZNSt3__123__libcpp_numeric_limitsIjLb1EE6lowestB7v170001Ev
PUBLIC 51cd0 0 ZNSt3__123__libcpp_numeric_limitsIjLb1EE3minB7v170001Ev
PUBLIC 51ce0 0 ZN4base8internal20IsValueInRangeFastOpIjxvE2DoEx
PUBLIC 51d20 0 ZN4base8internal11as_unsignedIxEENSt3__113make_unsignedINS0_14UnderlyingTypeIT_E4typeEE4typeES5_
PUBLIC 51d30 0 ZN4base8internal9CommonMaxIxjEET_v
PUBLIC 51d40 0 ZNK4base8internal10RangeCheck17IsOverflowFlagSetEv
PUBLIC 51d60 0 ZNK4base8internal10RangeCheck18IsUnderflowFlagSetEv
PUBLIC 51d80 0 ZN4base8internal23SaturationDefaultLimitsIjE9UnderflowEv
PUBLIC 51d90 0 ZN4base8internal23SaturationDefaultLimitsIjE8OverflowEv
PUBLIC 51da0 0 ZN4base8internal30DstRangeRelationToSrcRangeImplIjxNS0_23SaturationDefaultLimitsELNS0_21IntegerRepresentationE0ELS3_1ELNS0_26NumericRangeRepresentationE0EE5CheckEx
PUBLIC 51e10 0 ZN4base8internal14NarrowingRangeIjxNS0_23SaturationDefaultLimitsEE3maxEv
PUBLIC 51e30 0 ZN4base8internal14NarrowingRangeIjxNS0_23SaturationDefaultLimitsEE6AdjustIjLPv0EEET_S6_
PUBLIC m 51e70 0 ZN8crashpad15DirectoryReaderC1Ev
PUBLIC m 51ec0 0 ZN8crashpad15DirectoryReaderD1Ev
PUBLIC 51ee0 0 ZN8crashpad15DirectoryReader4OpenERKN4base8FilePathE
PUBLIC 52300 0 ZN8crashpad15DirectoryReader8NextFileEPN4base8FilePathE
PUBLIC 52740 0 ZN4base13ScopedGenericIPvN8crashpad8internal29ScopedSearchHANDLECloseTraitsEEC2Ev
PUBLIC 52780 0 ZN4base13ScopedGenericIPvN8crashpad8internal29ScopedSearchHANDLECloseTraitsEED2Ev
PUBLIC 527b0 0 ZNK4base8FilePath5emptyEv
PUBLIC 527d0 0 ZN4base13ScopedGenericIPvN8crashpad8internal29ScopedSearchHANDLECloseTraitsEE5resetERKS1_
PUBLIC 52840 0 ZNK4base13ScopedGenericIPvN8crashpad8internal29ScopedSearchHANDLECloseTraitsEE8is_validEv
PUBLIC 52880 0 ZNK4base13ScopedGenericIPvN8crashpad8internal29ScopedSearchHANDLECloseTraitsEE3getEv
PUBLIC 52890 0 ZN8crashpad8internal29ScopedSearchHANDLECloseTraits12InvalidValueEv
PUBLIC 528a0 0 ZN4base13ScopedGenericIPvN8crashpad8internal29ScopedSearchHANDLECloseTraitsEE4DataC2ERKS1_
PUBLIC 528d0 0 ZN4base13ScopedGenericIPvN8crashpad8internal29ScopedSearchHANDLECloseTraitsEE15FreeIfNecessaryEv
PUBLIC 52930 0 ZN8crashpad20FileModificationTimeERKN4base8FilePathEP8timespec
PUBLIC 52f70 0 ZN8crashpad11IsDirectoryERKN4base8FilePathEb
PUBLIC 53210 0 ZN8crashpad22LoggingCreateDirectoryERKN4base8FilePathENS_15FilePermissionsEb
PUBLIC 536c0 0 ZN8crashpad19MoveFileOrDirectoryERKN4base8FilePathES3_
PUBLIC 53a60 0 ZN8crashpad13IsRegularFileERKN4base8FilePathE
PUBLIC 53ce0 0 ZN8crashpad17LoggingRemoveFileERKN4base8FilePathE
PUBLIC 541b0 0 ZN8crashpad22LoggingRemoveDirectoryERKN4base8FilePathE
PUBLIC 546f0 0 ZN8crashpad11GetFileSizeERKN4base8FilePathE
PUBLIC 548e0 0 ZN8crashpad16GetDirectorySizeERKN4base8FilePathE
PUBLIC 54b20 0 ZN4base13ScopedGenericIPvN8crashpad8internal29ScopedSearchHANDLECloseTraitsEEC2ERKS1_
PUBLIC 54b50 0 ZNK8crashpad4UUIDeqERKS0_
PUBLIC 54b90 0 ZNK8crashpad4UUIDltERKS0_
PUBLIC 54bd0 0 ZN8crashpad4UUID16InitializeToZeroEv
PUBLIC 54c00 0 ZN8crashpad4UUID19InitializeFromBytesEPKh
PUBLIC 54c70 0 ZN8crashpad4UUID20InitializeFromStringERKN4base16BasicStringPieceINSt3__112basic_stringIcNS3_11char_traitsIcEENS3_9allocatorIcEEEEEE
PUBLIC 54e00 0 ZN8crashpad4UUID20InitializeFromStringERKN4base16BasicStringPieceINSt3__112basic_stringIwNS3_11char_traitsIwEENS3_9allocatorIwEEEEEE
PUBLIC 54ec0 0 ZN8crashpad4UUID17InitializeWithNewEv
PUBLIC 54f20 0 ZN8crashpad4UUID24InitializeFromSystemUUIDEPK5_GUID
PUBLIC 54f50 0 ZNK8crashpad4UUID8ToStringEv
PUBLIC 54ff0 0 ZNK8crashpad4UUID9ToWStringEv
PUBLIC 55090 0 ZN4base11NetToHost32Ej
PUBLIC 550b0 0 ZN4base11NetToHost16Et
PUBLIC 550d0 0 ZN4base8ByteSwapEj
PUBLIC 550f0 0 ZN4base8ByteSwapEt
PUBLIC 55110 0 ZN8crashpad8internal15NativeWriteFileEPvPKvy
PUBLIC 55340 0 ZN8crashpad8ReadFileEPvS0_y
PUBLIC 55770 0 ZN8crashpad15OpenFileForReadERKN4base8FilePathE
PUBLIC 557d0 0 ZN8crashpad16OpenFileForWriteERKN4base8FilePathENS_13FileWriteModeENS_15FilePermissionsE
PUBLIC 55ad0 0 ZN8crashpad23OpenFileForReadAndWriteERKN4base8FilePathENS_13FileWriteModeENS_15FilePermissionsE
PUBLIC 55b10 0 ZN8crashpad22LoggingOpenFileForReadERKN4base8FilePathE
PUBLIC 55d40 0 ZN8crashpad23LoggingOpenFileForWriteERKN4base8FilePathENS_13FileWriteModeENS_15FilePermissionsE
PUBLIC 55f90 0 ZN8crashpad30LoggingOpenFileForReadAndWriteERKN4base8FilePathENS_13FileWriteModeENS_15FilePermissionsE
PUBLIC 561e0 0 ZN8crashpad15LoggingLockFileEPvNS_11FileLockingENS_19FileLockingBlockingE
PUBLIC 563e0 0 ZN8crashpad17LoggingUnlockFileEPv
PUBLIC 56560 0 ZN8crashpad15LoggingSeekFileEPvxi
PUBLIC 56870 0 ZN8crashpad19LoggingTruncateFileEPv
PUBLIC 569f0 0 ZN8crashpad16LoggingCloseFileEPv
PUBLIC 56b50 0 ZN8crashpad23LoggingFileSizeByHandleEPv
PUBLIC 56cc0 0 ZN8crashpad15StdioFileHandleENS_11StdioStreamE
PUBLIC 56f80 0 ZN7logging11CheckNEImplImmEEPNSt3__112basic_stringIcNS1_11char_traitsIcEENS1_9allocatorIcEEEERKT_RKT0_PKc
PUBLIC 56fe0 0 ZN7logging11CheckLEImplIymEEPNSt3__112basic_stringIcNS1_11char_traitsIcEENS1_9allocatorIcEEEERKT_RKT0_PKc
PUBLIC 57040 0 ZN7logging11CheckLEImplImmEEPNSt3__112basic_stringIcNS1_11char_traitsIcEENS1_9allocatorIcEEEERKT_RKT0_PKc
PUBLIC 570a0 0 ZN7logging11CheckEQImplImjEEPNSt3__112basic_stringIcNS1_11char_traitsIcEENS1_9allocatorIcEEEERKT_RKT0_PKc
PUBLIC 57100 0 ZN7logging17MakeCheckOpStringImjEEPNSt3__112basic_stringIcNS1_11char_traitsIcEENS1_9allocatorIcEEEERKT_RKT0_PKc
PUBLIC 57290 0 ZN7logging17MakeCheckOpStringImmEEPNSt3__112basic_stringIcNS1_11char_traitsIcEENS1_9allocatorIcEEEERKT_RKT0_PKc
PUBLIC 57420 0 ZN7logging17MakeCheckOpStringIymEEPNSt3__112basic_stringIcNS1_11char_traitsIcEENS1_9allocatorIcEEEERKT_RKT0_PKc
PUBLIC 575b0 0 ZN8crashpad8internal19ReadExactlyInternal11ReadExactlyEPvyb
PUBLIC 57950 0 ZN8crashpad8internal16WriteAllInternal8WriteAllEPKvy
PUBLIC 57af0 0 ZN8crashpad15ReadFileExactlyEPvS0_y
PUBLIC 57be0 0 ZN8crashpad22LoggingReadFileExactlyEPvS0_y
PUBLIC 57c70 0 ZN8crashpad9WriteFileEPvPKvy
PUBLIC 57d50 0 ZN8crashpad16LoggingWriteFileEPvPKvy
PUBLIC 57ed0 0 ZN8crashpad22CheckedReadFileExactlyEPvS0_y
PUBLIC 58030 0 ZN8crashpad16CheckedWriteFileEPvPKvy
PUBLIC 58190 0 ZN8crashpad20CheckedReadFileAtEOFEPv
PUBLIC 58410 0 ZN8crashpad16LoggingReadToEOFEPvPNSt3__112basic_stringIcNS1_11char_traitsIcEENS1_9allocatorIcEEEE
PUBLIC 58740 0 ZN8crashpad21LoggingReadEntireFileERKN4base8FilePathEPNSt3__112basic_stringIcNS4_11char_traitsIcEENS4_9allocatorIcEEEE
PUBLIC 58830 0 ZN8crashpad16CheckedCloseFileEPv
PUBLIC 58b40 0 ZN7logging11CheckLEImplIyyEEPNSt3__112basic_stringIcNS1_11char_traitsIcEENS1_9allocatorIcEEEERKT_RKT0_PKc
PUBLIC 58ba0 0 ZN7logging11CheckNEImplIxiEEPNSt3__112basic_stringIcNS1_11char_traitsIcEENS1_9allocatorIcEEEERKT_RKT0_PKc
PUBLIC 58c00 0 ZNSt3__112basic_stringIcNS_11char_traitsIcEENS_9allocatorIcEEE4swapB7v170001ERS5_
PUBLIC 58c70 0 ZN8crashpad8internal19ReadExactlyInternalC2Ev
PUBLIC 58c90 0 ZN8crashpad8internal19ReadExactlyInternalD2Ev
PUBLIC 58ca0 0 ZN8crashpad8internal16WriteAllInternalC2Ev
PUBLIC 58cc0 0 ZN8crashpad8internal16WriteAllInternalD2Ev
PUBLIC 58cd0 0 ZNSt3__14swapB7v170001INS_12basic_stringIcNS_11char_traitsIcEENS_9allocatorIcEEE5__repEEENS_9enable_ifIXaasr21is_move_constructibleIT_EE5valuesr18is_move_assignableIS9_EE5valueEvE4typeERS9_SC_
PUBLIC 58d40 0 ZNSt3__116__swap_allocatorB7v170001INS_9allocatorIcEEEEvRT_S4_
PUBLIC 58d70 0 ZNSt3__116__swap_allocatorB7v170001INS_9allocatorIcEEEEvRT_S4_NS_17integral_constantIbLb0EEE
PUBLIC 58d90 0 ZN8crashpad8internal27ScopedFileHANDLECloseTraits4FreeEPv
PUBLIC 58db0 0 ZN8crashpad8internal29ScopedKernelHANDLECloseTraits4FreeEPv
PUBLIC 58f10 0 ZN8crashpad8internal29ScopedSearchHANDLECloseTraits4FreeEPv
PUBLIC m 59070 0 ZN4base4LockC1Ev
PUBLIC m 590a0 0 ZN4base4LockD1Ev
PUBLIC 59170 0 ZNK4base4Lock14AssertAcquiredEv
PUBLIC 59260 0 ZN4base4Lock18CheckHeldAndUnmarkEv
PUBLIC 59350 0 ZN4base4Lock18CheckUnheldAndMarkEv
PUBLIC 59430 0 ZN7logging11CheckEQImplImmEEPNSt3__112basic_stringIcNS1_11char_traitsIcEENS1_9allocatorIcEEEERKT_RKT0_PKc
PUBLIC 59490 0 ZN8crashpad12RandomStringEv
PUBLIC 59560 0 ZN8crashpad24SendToCrashHandlerServerERKNSt3__112basic_stringIwNS0_11char_traitsIwEENS0_9allocatorIwEEEERKNS_21ClientToServerMessageEPNS_21ServerToClientMessageE
PUBLIC 59f30 0 ZN8crashpad23CreateNamedPipeInstanceERKNSt3__112basic_stringIwNS0_11char_traitsIwEENS0_9allocatorIwEEEEb
PUBLIC 5a040 0 ZN8crashpad41GetSecurityDescriptorForNamedPipeInstanceEPy
PUBLIC 5a240 0 ZN8crashpad49GetFallbackSecurityDescriptorForNamedPipeInstanceEPy
PUBLIC 5a670 0 ZN4base13ScopedGenericIPvN8crashpad8internal16LocalAllocTraitsEEC2ERKS1_
PUBLIC 5a6a0 0 ZN4base13ScopedGenericIPvN8crashpad8internal16LocalAllocTraitsEED2Ev
PUBLIC 5a6d0 0 ZN4base13ScopedGenericIPvN8crashpad8internal16LocalAllocTraitsEE4DataC2ERKS1_
PUBLIC 5a700 0 ZN4base13ScopedGenericIPvN8crashpad8internal16LocalAllocTraitsEE15FreeIfNecessaryEv
PUBLIC 5a760 0 ZN8crashpad8internal16LocalAllocTraits12InvalidValueEv
PUBLIC 5a770 0 ZN8crashpad48InitializeCriticalSectionWithDebugInfoIfPossibleEP21_RTL_CRITICAL_SECTION
PUBLIC 5aa70 0 ZN8crashpad8internal11GetFunctionIFiP21_RTL_CRITICAL_SECTIONmmEEEPT_PKwPKcb
PUBLIC 5aab0 0 ZN8crashpad20IsThreadInLoaderLockEv
PUBLIC 5ab50 0 ZN8crashpad25AppendCommandLineArgumentERKNSt3__112basic_stringIwNS0_11char_traitsIwEENS0_9allocatorIwEEEEPS6_
PUBLIC 5ad70 0 ZNKSt3__112basic_stringIwNS_11char_traitsIwEENS_9allocatorIwEEE13find_first_ofB7v170001EPKwy
PUBLIC 5adf0 0 ZNKSt3__112basic_stringIwNS_11char_traitsIwEENS_9allocatorIwEEE5beginB7v170001Ev
PUBLIC 5ae40 0 ZNSt3__1neB7v170001IPKwEEbRKNS_11__wrap_iterIT_EES7_
PUBLIC 5ae70 0 ZNKSt3__112basic_stringIwNS_11char_traitsIwEENS_9allocatorIwEEE3endB7v170001Ev
PUBLIC 5aec0 0 ZNKSt3__111__wrap_iterIPKwEdeB7v170001Ev
PUBLIC 5aed0 0 ZNSt3__111__wrap_iterIPKwEppB7v170001Ev
PUBLIC 5aef0 0 ZNSt3__1eqB7v170001IPKwEEbRKNS_11__wrap_iterIT_EES7_
PUBLIC 5af30 0 ZNKSt3__111__wrap_iterIPKwE4baseB7v170001Ev
PUBLIC 5af40 0 ZNSt3__119__str_find_first_ofB7v170001IwyNS_11char_traitsIwEELy18446744073709551615EEET0_PKT_S3_S6_S3_S3_
PUBLIC 5b030 0 ZNSt3__118__find_first_of_ceB7v170001IPKwS2_RDoFbwwEEET_S5_S5_T0_S6_OT1_
PUBLIC 5b100 0 ZNSt3__111char_traitsIwE2eqB7v170001Eww
PUBLIC 5b130 0 ZNKSt3__112basic_stringIwNS_11char_traitsIwEENS_9allocatorIwEEE21__make_const_iteratorB7v170001EPKw
PUBLIC 5b160 0 ZNSt3__111__wrap_iterIPKwEC2B7v170001ES2_
PUBLIC m 5b180 0 ZN8crashpad17InitialClientDataC1Ev
PUBLIC m 5b1e0 0 ZN8crashpad17InitialClientDataC1EPvS1_S1_S1_S1_yyy
PUBLIC 5b270 0 ZN8crashpad17InitialClientData20InitializeFromStringERKNSt3__112basic_stringIcNS1_11char_traitsIcEENS1_9allocatorIcEEEE
PUBLIC 5b990 0 ZNK8crashpad17InitialClientData20StringRepresentationEv
PUBLIC 5ba80 0 ZNSt3__16vectorINS_12basic_stringIcNS_11char_traitsIcEENS_9allocatorIcEEEENS4_IS6_EEEixB7v170001Ey
PUBLIC 5bab0 0 ZN8crashpad11HandleToIntEPv
PUBLIC 5bad0 0 ZN8crashpad11IntToHandleEi
PUBLIC 5bae0 0 ZN8crashpad15FromPointerCastIiPvEENSt3__19enable_ifIXaasr3std10is_pointerIT0_EE5valuesr3std11is_integralIT_EE5valueES5_E4typeES4_
PUBLIC 5bb10 0 ZN4base8internal12checked_castIiNS0_14CheckOnFailureExEET_T1_
PUBLIC 5bb60 0 ZN4base8internal28IsValueInRangeForNumericTypeIixEEbT0_
PUBLIC 5bb80 0 ZN4base8internal14CheckOnFailure13HandleFailureIiEET_v
PUBLIC 5bb90 0 ZN4base8internal20IsValueInRangeFastOpIixvE2DoEx
PUBLIC 5bbb0 0 ZN8crashpad14ReadMemoryInfoEPvbPNS_11ProcessInfoE
PUBLIC 5c160 0 ZNK8crashpad11ProcessInfo17BuildHandleVectorEPv
PUBLIC m 5d2a0 0 ZN8crashpad11ProcessInfo6ModuleC1Ev
PUBLIC m 5d2e0 0 ZN8crashpad11ProcessInfo6ModuleD1Ev
PUBLIC m 5d300 0 ZN8crashpad11ProcessInfo6HandleC1Ev
PUBLIC m 5d350 0 ZN8crashpad11ProcessInfo6HandleD1Ev
PUBLIC m 5d370 0 ZN8crashpad11ProcessInfoC1Ev
PUBLIC m 5d470 0 ZN8crashpad11ProcessInfoD1Ev
PUBLIC 5d4d0 0 ZN8crashpad11ProcessInfo10InitializeEPv
PUBLIC 5dd80 0 ZNK8crashpad11ProcessInfo7Is64BitEv
PUBLIC 5de80 0 ZNK8crashpad11ProcessInfo7IsWow64Ev
PUBLIC 5df80 0 ZNK8crashpad11ProcessInfo9ProcessIDEv
PUBLIC 5e080 0 ZNK8crashpad11ProcessInfo15ParentProcessIDEv
PUBLIC 5e180 0 ZNK8crashpad11ProcessInfo11CommandLineEPNSt3__112basic_stringIwNS1_11char_traitsIwEENS1_9allocatorIwEEEE
PUBLIC 5e290 0 ZNK8crashpad11ProcessInfo3PebEPyS1_
PUBLIC 5e2d0 0 ZNK8crashpad11ProcessInfo7ModulesEPNSt3__16vectorINS0_6ModuleENS1_9allocatorIS3_EEEE
PUBLIC 5e3e0 0 ZNK8crashpad11ProcessInfo10MemoryInfoEv
PUBLIC 5e4e0 0 ZNK8crashpad11ProcessInfo17GetReadableRangesERKNS_12CheckedRangeIyyEE
PUBLIC 5e530 0 ZN8crashpad28GetReadableRangesOfMemoryMapERKNS_12CheckedRangeIyyEERKNSt3__16vectorI27_MEMORY_BASIC_INFORMATION64NS_16AlignedAllocatorIS6_Ly16EEEEE
PUBLIC 5efa0 0 ZNK8crashpad11ProcessInfo27LoggingRangeIsFullyReadableERKNS_12CheckedRangeIyyEE
PUBLIC 5f510 0 ZNK8crashpad11ProcessInfo7HandlesEv
PUBLIC 617b0 0 ZNKSt3__16vectorI27_MEMORY_BASIC_INFORMATION64N8crashpad16AlignedAllocatorIS1_Ly16EEEE5emptyB7v170001Ev
PUBLIC 617d0 0 ZNSt3__16vectorI27_MEMORY_BASIC_INFORMATION64N8crashpad16AlignedAllocatorIS1_Ly16EEEE9push_backB7v170001EOS1_
PUBLIC 61830 0 ZNSt3__110unique_ptrIA_hN4base11FreeDeleterEEC2B7v170001ILb1EvEEv
PUBLIC 61860 0 ZNSt3__110unique_ptrIA_hN4base11FreeDeleterEE5resetB7v170001EDn
PUBLIC 618e0 0 ZNSt3__110unique_ptrIA_hN4base11FreeDeleterEEaSB7v170001EOS4_
PUBLIC 61930 0 ZNSt3__110unique_ptrIA_hN4base11FreeDeleterEED2B7v170001Ev
PUBLIC 61950 0 ZNKSt3__110unique_ptrIA_hN4base11FreeDeleterEEcvbB7v170001Ev
PUBLIC 61980 0 ZNSt3__16vectorIN8crashpad11ProcessInfo6HandleENS_9allocatorIS3_EEEC2B7v170001Ev
PUBLIC 619d0 0 ZNKSt3__110unique_ptrIA_hN4base11FreeDeleterEE3getB7v170001Ev
PUBLIC 619f0 0 ZNKSt3__110unique_ptrIA_hNS_14default_deleteIS1_EEEcvbB7v170001Ev
PUBLIC 61a20 0 ZN7logging11CheckGTImplImjEEPNSt3__112basic_stringIcNS1_11char_traitsIcEENS1_9allocatorIcEEEERKT_RKT0_PKc
PUBLIC 61a80 0 ZN7logging11CheckEQImplIyjEEPNSt3__112basic_stringIcNS1_11char_traitsIcEENS1_9allocatorIcEEEERKT_RKT0_PKc
PUBLIC 61ae0 0 ZNSt3__16vectorIN8crashpad11ProcessInfo6HandleENS_9allocatorIS3_EEE9push_backB7v170001ERKS3_
PUBLIC 61b40 0 ZNSt3__16vectorIN8crashpad11ProcessInfo6HandleENS_9allocatorIS3_EEED2B7v170001Ev
PUBLIC 61b80 0 ZNSt3__16vectorIN8crashpad11ProcessInfo6ModuleENS_9allocatorIS3_EEEC2B7v170001Ev
PUBLIC 61bd0 0 ZNSt3__16vectorI27_MEMORY_BASIC_INFORMATION64N8crashpad16AlignedAllocatorIS1_Ly16EEEEC2B7v170001Ev
PUBLIC 61c20 0 ZNSt3__16vectorI27_MEMORY_BASIC_INFORMATION64N8crashpad16AlignedAllocatorIS1_Ly16EEEED2B7v170001Ev
PUBLIC 61c70 0 ZNSt3__16vectorIN8crashpad11ProcessInfo6ModuleENS_9allocatorIS3_EEED2B7v170001Ev
PUBLIC 61cb0 0 ZN8crashpad26GetProcessBasicInformationINS_13process_types8internal8Traits64EEEbPvbPNS_11ProcessInfoEPyS7_
PUBLIC 62240 0 ZN8crashpad15ReadProcessDataINS_13process_types8internal8Traits64EEEbPvyPNS_11ProcessInfoE
PUBLIC 62660 0 ZN8crashpad15ReadProcessDataINS_13process_types8internal8Traits32EEEbPvyPNS_11ProcessInfoE
PUBLIC 62a70 0 ZNSt3__16vectorIN8crashpad11ProcessInfo6ModuleENS_9allocatorIS3_EEEaSB7v170001ERKS6_
PUBLIC 62ad0 0 ZNKSt3__16vectorIN8crashpad12CheckedRangeIyyEENS_9allocatorIS3_EEE5emptyB7v170001Ev
PUBLIC 62af0 0 ZNK8crashpad12CheckedRangeIyyE4baseEv
PUBLIC 62b00 0 ZNK8crashpad12CheckedRangeIyyE4sizeEv
PUBLIC 62b10 0 ZNKSt3__16vectorIN8crashpad12CheckedRangeIyyEENS_9allocatorIS3_EEE4sizeB7v170001Ev
PUBLIC 62b30 0 ZNKSt3__16vectorIN8crashpad12CheckedRangeIyyEENS_9allocatorIS3_EEEixB7v170001Ey
PUBLIC 62b60 0 ZNSt3__16vectorIN8crashpad12CheckedRangeIyyEENS_9allocatorIS3_EEED2B7v170001Ev
PUBLIC 62ba0 0 ZNKSt3__16vectorIN8crashpad11ProcessInfo6HandleENS_9allocatorIS3_EEE5emptyB7v170001Ev
PUBLIC 62bc0 0 ZNSt3__16vectorIN8crashpad11ProcessInfo6HandleENS_9allocatorIS3_EEEaSB7v170001EOS6_
PUBLIC 62c00 0 ZNK8crashpad12CheckedRangeIyyE3endEv
PUBLIC 62c20 0 ZNKSt3__16vectorI27_MEMORY_BASIC_INFORMATION64N8crashpad16AlignedAllocatorIS1_Ly16EEEE4sizeB7v170001Ev
PUBLIC 62c40 0 ZNKSt3__16vectorI27_MEMORY_BASIC_INFORMATION64N8crashpad16AlignedAllocatorIS1_Ly16EEEEixB7v170001Ey
PUBLIC 62c70 0 ZNSt3__16vectorI27_MEMORY_BASIC_INFORMATION64N8crashpad16AlignedAllocatorIS1_Ly16EEEE9push_backB7v170001ERKS1_
PUBLIC 62cd0 0 ZNSt3__16vectorIN8crashpad12CheckedRangeIyyEENS_9allocatorIS3_EEEC2B7v170001Ev
PUBLIC 62d20 0 ZNSt3__16vectorI27_MEMORY_BASIC_INFORMATION64N8crashpad16AlignedAllocatorIS1_Ly16EEEE5frontB7v170001Ev
PUBLIC 62d30 0 ZNSt3__16vectorI27_MEMORY_BASIC_INFORMATION64N8crashpad16AlignedAllocatorIS1_Ly16EEEE4backB7v170001Ev
PUBLIC 62d50 0 ZNSt3__16vectorI27_MEMORY_BASIC_INFORMATION64N8crashpad16AlignedAllocatorIS1_Ly16EEEE5eraseENS_11__wrap_iterIPKS1_EES9_
PUBLIC 62e30 0 ZNSt3__16vectorI27_MEMORY_BASIC_INFORMATION64N8crashpad16AlignedAllocatorIS1_Ly16EEEE5beginB7v170001Ev
PUBLIC 62e60 0 ZNSt3__16vectorI27_MEMORY_BASIC_INFORMATION64N8crashpad16AlignedAllocatorIS1_Ly16EEEE3endB7v170001Ev
PUBLIC 62e90 0 ZNSt3__111__wrap_iterIPK27_MEMORY_BASIC_INFORMATION64EC2B7v170001IPS1_EERKNS0_IT_EEPNS_9enable_ifIXsr14is_convertibleIS7_S3_EE5valueEvE4typeE
PUBLIC 62ed0 0 ZNSt3__1neB7v170001IP27_MEMORY_BASIC_INFORMATION64EEbRKNS_11__wrap_iterIT_EES7_
PUBLIC 62f00 0 ZNKSt3__111__wrap_iterIP27_MEMORY_BASIC_INFORMATION64EdeB7v170001Ev
PUBLIC 62f10 0 ZNSt3__16vectorIN8crashpad12CheckedRangeIyyEENS_9allocatorIS3_EEE9push_backB7v170001EOS3_
PUBLIC 62f70 0 ZN8crashpad12CheckedRangeIyyEC2Eyy
PUBLIC 62fa0 0 ZNSt3__16vectorIN8crashpad12CheckedRangeIyyEENS_9allocatorIS3_EEE4backB7v170001Ev
PUBLIC 62fc0 0 ZNK8crashpad12CheckedRangeIyyE7IsValidEv
PUBLIC 63040 0 ZNSt3__111__wrap_iterIP27_MEMORY_BASIC_INFORMATION64EppB7v170001Ev
PUBLIC 63060 0 ZNSt3__16vectorIN8crashpad12CheckedRangeIyyEENS_9allocatorIS3_EEE9push_backB7v170001ERKS3_
PUBLIC 630c0 0 ZNSt3__16vectorIN8crashpad12CheckedRangeIyyEENS_9allocatorIS3_EEEixB7v170001Ey
PUBLIC 630f0 0 ZN8crashpad12CheckedRangeIyyE8SetRangeEyy
PUBLIC 63120 0 ZNSt3__117__compressed_pairIPhN4base11FreeDeleterEEC2B7v170001INS_16__value_init_tagES6_EEOT_OT0_
PUBLIC 63160 0 ZNSt3__122__compressed_pair_elemIN4base11FreeDeleterELi1ELb1EEC2B7v170001ENS_16__value_init_tagE
PUBLIC 63180 0 ZNSt3__110unique_ptrIA_hN4base11FreeDeleterEEC2B7v170001IPhLb1EvvEET_
PUBLIC 631c0 0 ZNSt3__117__compressed_pairIPhN4base11FreeDeleterEEC2B7v170001IRS1_NS_16__value_init_tagEEEOT_OT0_
PUBLIC 63200 0 ZNSt3__122__compressed_pair_elemIPhLi0ELb0EEC2B7v170001IRS1_vEEOT_
PUBLIC 63230 0 ZNSt3__110unique_ptrIA_hNS_14default_deleteIS1_EEEC2B7v170001IPhLb1EvvEET_
PUBLIC 63270 0 ZN7logging11CheckGTImplImmEEPNSt3__112basic_stringIcNS1_11char_traitsIcEENS1_9allocatorIcEEEERKT_RKT0_PKc
PUBLIC 632d0 0 ZNSt3__110unique_ptrIA_hNS_14default_deleteIS1_EEEC2B7v170001ILb1EvEEDn
PUBLIC 63310 0 ZN7logging11CheckGEImplImmEEPNSt3__112basic_stringIcNS1_11char_traitsIcEENS1_9allocatorIcEEEERKT_RKT0_PKc
PUBLIC 63370 0 ZNSt3__110unique_ptrIA_hNS_14default_deleteIS1_EEEC2B7v170001EOS4_
PUBLIC 633d0 0 ZNSt3__117__compressed_pairIPhNS_14default_deleteIA_hEEEC2B7v170001IRS1_NS_16__value_init_tagEEEOT_OT0_
PUBLIC 63410 0 ZNSt3__110unique_ptrIA_hNS_14default_deleteIS1_EEE7releaseB7v170001Ev
PUBLIC 63450 0 ZNSt3__110unique_ptrIA_hNS_14default_deleteIS1_EEE11get_deleterB7v170001Ev
PUBLIC 63470 0 ZNSt3__117__compressed_pairIPhNS_14default_deleteIA_hEEEC2B7v170001IS1_S4_EEOT_OT0_
PUBLIC 634b0 0 ZNSt3__122__compressed_pair_elemIPhLi0ELb0EEC2B7v170001IS1_vEEOT_
PUBLIC 634e0 0 ZNSt3__122__compressed_pair_elemINS_14default_deleteIA_hEELi1ELb1EEC2B7v170001IS3_vEEOT_
PUBLIC 63500 0 ZN8crashpad8internal11GetFunctionIFiPvPiEEEPT_PKwPKcb
PUBLIC 63540 0 ZNKSt3__111__wrap_iterIP27_MEMORY_BASIC_INFORMATION64E4baseB7v170001Ev
PUBLIC 63550 0 ZNSt3__1eqB7v170001IP27_MEMORY_BASIC_INFORMATION64EEbRKNS_11__wrap_iterIT_EES7_
PUBLIC 63590 0 ZNSt3__16vectorI27_MEMORY_BASIC_INFORMATION64N8crashpad16AlignedAllocatorIS1_Ly16EEEE9__end_capB7v170001Ev
PUBLIC 635b0 0 ZNSt3__16vectorI27_MEMORY_BASIC_INFORMATION64N8crashpad16AlignedAllocatorIS1_Ly16EEEE22__construct_one_at_endB7v170001IJS1_EEEvDpOT_
PUBLIC 63650 0 ZNSt3__16vectorI27_MEMORY_BASIC_INFORMATION64N8crashpad16AlignedAllocatorIS1_Ly16EEEE21__push_back_slow_pathIS1_EEvOT_
PUBLIC 63740 0 ZNSt3__117__compressed_pairIP27_MEMORY_BASIC_INFORMATION64N8crashpad16AlignedAllocatorIS1_Ly16EEEE5firstB7v170001Ev
PUBLIC 63760 0 ZNSt3__122__compressed_pair_elemIP27_MEMORY_BASIC_INFORMATION64Li0ELb0EE5__getB7v170001Ev
PUBLIC 63770 0 ZNSt3__16vectorI27_MEMORY_BASIC_INFORMATION64N8crashpad16AlignedAllocatorIS1_Ly16EEEE21_ConstructTransactionC2B7v170001ERS5_y
PUBLIC 637c0 0 ZNSt3__116allocator_traitsIN8crashpad16AlignedAllocatorI27_MEMORY_BASIC_INFORMATION64Ly16EEEE9constructB7v170001IS3_JS3_EvEEvRS4_PT_DpOT0_
PUBLIC 637f0 0 ZNSt3__16vectorI27_MEMORY_BASIC_INFORMATION64N8crashpad16AlignedAllocatorIS1_Ly16EEEE7__allocB7v170001Ev
PUBLIC 63810 0 ZNSt3__112__to_addressB7v170001I27_MEMORY_BASIC_INFORMATION64EEPT_S3_
PUBLIC 63820 0 ZNSt3__16vectorI27_MEMORY_BASIC_INFORMATION64N8crashpad16AlignedAllocatorIS1_Ly16EEEE21_ConstructTransactionD2B7v170001Ev
PUBLIC 63840 0 ZN8crashpad16AlignedAllocatorI27_MEMORY_BASIC_INFORMATION64Ly16EE9constructIS1_JS1_EEEvPT_DpOT0_
PUBLIC 63870 0 ZNSt3__117__compressed_pairIP27_MEMORY_BASIC_INFORMATION64N8crashpad16AlignedAllocatorIS1_Ly16EEEE6secondB7v170001Ev
PUBLIC 63890 0 ZNSt3__122__compressed_pair_elemIN8crashpad16AlignedAllocatorI27_MEMORY_BASIC_INFORMATION64Ly16EEELi1ELb1EE5__getB7v170001Ev
PUBLIC 638a0 0 ZNKSt3__16vectorI27_MEMORY_BASIC_INFORMATION64N8crashpad16AlignedAllocatorIS1_Ly16EEEE11__recommendB7v170001Ey
PUBLIC 63940 0 ZNSt3__114__split_bufferI27_MEMORY_BASIC_INFORMATION64RN8crashpad16AlignedAllocatorIS1_Ly16EEEEC2EyyS5_
PUBLIC 63a10 0 ZNSt3__16vectorI27_MEMORY_BASIC_INFORMATION64N8crashpad16AlignedAllocatorIS1_Ly16EEEE26__swap_out_circular_bufferERNS_14__split_bufferIS1_RS4_EE
PUBLIC 63b60 0 ZNSt3__114__split_bufferI27_MEMORY_BASIC_INFORMATION64RN8crashpad16AlignedAllocatorIS1_Ly16EEEED2Ev
PUBLIC 63be0 0 ZNKSt3__16vectorI27_MEMORY_BASIC_INFORMATION64N8crashpad16AlignedAllocatorIS1_Ly16EEEE8max_sizeEv
PUBLIC 63c40 0 ZNKSt3__16vectorI27_MEMORY_BASIC_INFORMATION64N8crashpad16AlignedAllocatorIS1_Ly16EEEE20__throw_length_errorB7v170001Ev
PUBLIC 63c60 0 ZNKSt3__16vectorI27_MEMORY_BASIC_INFORMATION64N8crashpad16AlignedAllocatorIS1_Ly16EEEE8capacityB7v170001Ev
PUBLIC 63ca0 0 ZNSt3__116allocator_traitsIN8crashpad16AlignedAllocatorI27_MEMORY_BASIC_INFORMATION64Ly16EEEE8max_sizeB7v170001IS4_vEEyRKS4_
PUBLIC 63cc0 0 ZNKSt3__16vectorI27_MEMORY_BASIC_INFORMATION64N8crashpad16AlignedAllocatorIS1_Ly16EEEE7__allocB7v170001Ev
PUBLIC 63ce0 0 ZNK8crashpad16AlignedAllocatorI27_MEMORY_BASIC_INFORMATION64Ly16EE8max_sizeEv
PUBLIC 63d00 0 ZNKSt3__117__compressed_pairIP27_MEMORY_BASIC_INFORMATION64N8crashpad16AlignedAllocatorIS1_Ly16EEEE6secondB7v170001Ev
PUBLIC 63d20 0 ZNKSt3__122__compressed_pair_elemIN8crashpad16AlignedAllocatorI27_MEMORY_BASIC_INFORMATION64Ly16EEELi1ELb1EE5__getB7v170001Ev
PUBLIC 63d30 0 ZNKSt3__16vectorI27_MEMORY_BASIC_INFORMATION64N8crashpad16AlignedAllocatorIS1_Ly16EEEE9__end_capB7v170001Ev
PUBLIC 63d50 0 ZNKSt3__117__compressed_pairIP27_MEMORY_BASIC_INFORMATION64N8crashpad16AlignedAllocatorIS1_Ly16EEEE5firstB7v170001Ev
PUBLIC 63d70 0 ZNKSt3__122__compressed_pair_elemIP27_MEMORY_BASIC_INFORMATION64Li0ELb0EE5__getB7v170001Ev
PUBLIC 63d80 0 ZNSt3__117__compressed_pairIP27_MEMORY_BASIC_INFORMATION64RN8crashpad16AlignedAllocatorIS1_Ly16EEEEC2B7v170001IDnS6_EEOT_OT0_
PUBLIC 63dc0 0 ZNSt3__119__allocate_at_leastB7v170001IN8crashpad16AlignedAllocatorI27_MEMORY_BASIC_INFORMATION64Ly16EEEEENS_19__allocation_resultINS_16allocator_traitsIT_E7pointerEEERS7_y
PUBLIC 63e20 0 ZNSt3__114__split_bufferI27_MEMORY_BASIC_INFORMATION64RN8crashpad16AlignedAllocatorIS1_Ly16EEEE7__allocB7v170001Ev
PUBLIC 63e40 0 ZNSt3__114__split_bufferI27_MEMORY_BASIC_INFORMATION64RN8crashpad16AlignedAllocatorIS1_Ly16EEEE9__end_capB7v170001Ev
PUBLIC 63e60 0 ZNSt3__122__compressed_pair_elemIP27_MEMORY_BASIC_INFORMATION64Li0ELb0EEC2B7v170001IDnvEEOT_
PUBLIC 63e80 0 ZNSt3__122__compressed_pair_elemIRN8crashpad16AlignedAllocatorI27_MEMORY_BASIC_INFORMATION64Ly16EEELi1ELb0EEC2B7v170001IS5_vEEOT_
PUBLIC 63ea0 0 ZN8crashpad16AlignedAllocatorI27_MEMORY_BASIC_INFORMATION64Ly16EE8allocateEyPKv
PUBLIC 63ed0 0 ZNSt3__117__compressed_pairIP27_MEMORY_BASIC_INFORMATION64RN8crashpad16AlignedAllocatorIS1_Ly16EEEE6secondB7v170001Ev
PUBLIC 63ef0 0 ZNSt3__122__compressed_pair_elemIRN8crashpad16AlignedAllocatorI27_MEMORY_BASIC_INFORMATION64Ly16EEELi1ELb0EE5__getB7v170001Ev
PUBLIC 63f00 0 ZNSt3__117__compressed_pairIP27_MEMORY_BASIC_INFORMATION64RN8crashpad16AlignedAllocatorIS1_Ly16EEEE5firstB7v170001Ev
PUBLIC 63f20 0 ZNKSt3__16vectorI27_MEMORY_BASIC_INFORMATION64N8crashpad16AlignedAllocatorIS1_Ly16EEEE17__annotate_deleteB7v170001Ev
PUBLIC 63ff0 0 ZNSt3__142__uninitialized_allocator_move_if_noexceptB7v170001IN8crashpad16AlignedAllocatorI27_MEMORY_BASIC_INFORMATION64Ly16EEENS_16reverse_iteratorIPS3_EES7_S7_EET2_RT_T0_T1_S8_
PUBLIC 64190 0 ZNSt3__116reverse_iteratorIP27_MEMORY_BASIC_INFORMATION64EC2B7v170001ES2_
PUBLIC 641c0 0 ZNKSt3__116reverse_iteratorIP27_MEMORY_BASIC_INFORMATION64E4baseB7v170001Ev
PUBLIC 641d0 0 ZNSt3__14swapB7v170001IP27_MEMORY_BASIC_INFORMATION64EENS_9enable_ifIXaasr21is_move_constructibleIT_EE5valuesr18is_move_assignableIS4_EE5valueEvE4typeERS4_S7_
PUBLIC 64210 0 ZNKSt3__16vectorI27_MEMORY_BASIC_INFORMATION64N8crashpad16AlignedAllocatorIS1_Ly16EEEE14__annotate_newB7v170001Ey
PUBLIC 642d0 0 ZNKSt3__16vectorI27_MEMORY_BASIC_INFORMATION64N8crashpad16AlignedAllocatorIS1_Ly16EEEE31__annotate_contiguous_containerB7v170001EPKvS7_S7_S7_
PUBLIC 64300 0 ZNKSt3__16vectorI27_MEMORY_BASIC_INFORMATION64N8crashpad16AlignedAllocatorIS1_Ly16EEEE4dataB7v170001Ev
PUBLIC 64320 0 ZNSt3__122__make_exception_guardB7v170001INS_29_AllocatorDestroyRangeReverseIN8crashpad16AlignedAllocatorI27_MEMORY_BASIC_INFORMATION64Ly16EEENS_16reverse_iteratorIPS4_EEEEEENS_28__exception_guard_exceptionsIT_EESB_
PUBLIC 64370 0 ZNSt3__129_AllocatorDestroyRangeReverseIN8crashpad16AlignedAllocatorI27_MEMORY_BASIC_INFORMATION64Ly16EEENS_16reverse_iteratorIPS3_EEEC2B7v170001ERS4_RS7_SA_
PUBLIC 643b0 0 ZNSt3__1neB7v170001IP27_MEMORY_BASIC_INFORMATION64S2_EEbRKNS_16reverse_iteratorIT_EERKNS3_IT0_EE
PUBLIC 643f0 0 ZNSt3__112__to_addressB7v170001INS_16reverse_iteratorIP27_MEMORY_BASIC_INFORMATION64EEvEEu7__decayIDTclsr19__to_address_helperIT_EE6__callclsr3stdE7declvalIRKS5_EEEEES7_
PUBLIC 64410 0 ZNKSt3__116reverse_iteratorIP27_MEMORY_BASIC_INFORMATION64EdeB7v170001Ev
PUBLIC 64440 0 ZNSt3__116reverse_iteratorIP27_MEMORY_BASIC_INFORMATION64EppB7v170001Ev
PUBLIC 64460 0 ZNSt3__128__exception_guard_exceptionsINS_29_AllocatorDestroyRangeReverseIN8crashpad16AlignedAllocatorI27_MEMORY_BASIC_INFORMATION64Ly16EEENS_16reverse_iteratorIPS4_EEEEE10__completeB7v170001Ev
PUBLIC 64470 0 ZNSt3__128__exception_guard_exceptionsINS_29_AllocatorDestroyRangeReverseIN8crashpad16AlignedAllocatorI27_MEMORY_BASIC_INFORMATION64Ly16EEENS_16reverse_iteratorIPS4_EEEEED2B7v170001Ev
PUBLIC 644b0 0 ZNSt3__128__exception_guard_exceptionsINS_29_AllocatorDestroyRangeReverseIN8crashpad16AlignedAllocatorI27_MEMORY_BASIC_INFORMATION64Ly16EEENS_16reverse_iteratorIPS4_EEEEEC2B7v170001ES9_
PUBLIC 644f0 0 ZNSt3__119__to_address_helperINS_16reverse_iteratorIP27_MEMORY_BASIC_INFORMATION64EEvE6__callB7v170001ERKS4_
PUBLIC 64530 0 ZNKSt3__116reverse_iteratorIP27_MEMORY_BASIC_INFORMATION64EptB7v170001Ev
PUBLIC 64550 0 ZNKSt3__129_AllocatorDestroyRangeReverseIN8crashpad16AlignedAllocatorI27_MEMORY_BASIC_INFORMATION64Ly16EEENS_16reverse_iteratorIPS3_EEEclB7v170001Ev
PUBLIC 645e0 0 ZNSt3__119__allocator_destroyB7v170001IN8crashpad16AlignedAllocatorI27_MEMORY_BASIC_INFORMATION64Ly16EEENS_16reverse_iteratorINS5_IPS3_EEEES8_EEvRT_T0_T1_
PUBLIC 64650 0 ZNSt3__116reverse_iteratorINS0_IP27_MEMORY_BASIC_INFORMATION64EEEC2B7v170001ES3_
PUBLIC 64690 0 ZNSt3__1neB7v170001INS_16reverse_iteratorIP27_MEMORY_BASIC_INFORMATION64EES4_EEbRKNS1_IT_EERKNS1_IT0_EE
PUBLIC 646e0 0 ZNSt3__116allocator_traitsIN8crashpad16AlignedAllocatorI27_MEMORY_BASIC_INFORMATION64Ly16EEEE7destroyB7v170001IS3_vEEvRS4_PT_
PUBLIC 64710 0 ZNSt3__112__to_addressB7v170001INS_16reverse_iteratorINS1_IP27_MEMORY_BASIC_INFORMATION64EEEEvEEu7__decayIDTclsr19__to_address_helperIT_EE6__callclsr3stdE7declvalIRKS6_EEEEES8_
PUBLIC 64730 0 ZNSt3__116reverse_iteratorINS0_IP27_MEMORY_BASIC_INFORMATION64EEEppB7v170001Ev
PUBLIC 64760 0 ZNKSt3__116reverse_iteratorINS0_IP27_MEMORY_BASIC_INFORMATION64EEE4baseB7v170001Ev
PUBLIC 64790 0 ZN8crashpad16AlignedAllocatorI27_MEMORY_BASIC_INFORMATION64Ly16EE7destroyIS1_EEvPT_
PUBLIC 647b0 0 ZNSt3__119__to_address_helperINS_16reverse_iteratorINS1_IP27_MEMORY_BASIC_INFORMATION64EEEEvE6__callB7v170001ERKS5_
PUBLIC 647f0 0 ZNKSt3__116reverse_iteratorINS0_IP27_MEMORY_BASIC_INFORMATION64EEEptB7v170001Ev
PUBLIC 64810 0 ZNKSt3__116reverse_iteratorINS0_IP27_MEMORY_BASIC_INFORMATION64EEEdeB7v170001Ev
PUBLIC 64850 0 ZNSt3__116reverse_iteratorIP27_MEMORY_BASIC_INFORMATION64EmmB7v170001Ev
PUBLIC 64870 0 ZNSt3__114__split_bufferI27_MEMORY_BASIC_INFORMATION64RN8crashpad16AlignedAllocatorIS1_Ly16EEEE5clearB7v170001Ev
PUBLIC 64890 0 ZNSt3__116allocator_traitsIN8crashpad16AlignedAllocatorI27_MEMORY_BASIC_INFORMATION64Ly16EEEE10deallocateB7v170001ERS4_PS3_y
PUBLIC 648d0 0 ZNKSt3__114__split_bufferI27_MEMORY_BASIC_INFORMATION64RN8crashpad16AlignedAllocatorIS1_Ly16EEEE8capacityB7v170001Ev
PUBLIC 64910 0 ZNSt3__114__split_bufferI27_MEMORY_BASIC_INFORMATION64RN8crashpad16AlignedAllocatorIS1_Ly16EEEE17__destruct_at_endB7v170001EPS1_
PUBLIC 64940 0 ZNSt3__114__split_bufferI27_MEMORY_BASIC_INFORMATION64RN8crashpad16AlignedAllocatorIS1_Ly16EEEE17__destruct_at_endB7v170001EPS1_NS_17integral_constantIbLb0EEE
PUBLIC 649c0 0 ZN8crashpad16AlignedAllocatorI27_MEMORY_BASIC_INFORMATION64Ly16EE10deallocateEPS1_y
PUBLIC 649f0 0 ZNKSt3__114__split_bufferI27_MEMORY_BASIC_INFORMATION64RN8crashpad16AlignedAllocatorIS1_Ly16EEEE9__end_capB7v170001Ev
PUBLIC 64a10 0 ZNKSt3__117__compressed_pairIP27_MEMORY_BASIC_INFORMATION64RN8crashpad16AlignedAllocatorIS1_Ly16EEEE5firstB7v170001Ev
PUBLIC 64a30 0 ZNSt3__117__compressed_pairIPhN4base11FreeDeleterEE5firstB7v170001Ev
PUBLIC 64a50 0 ZNSt3__117__compressed_pairIPhN4base11FreeDeleterEE6secondB7v170001Ev
PUBLIC 64a70 0 ZNK4base11FreeDeleterclEPv
PUBLIC 64a90 0 ZNSt3__122__compressed_pair_elemIN4base11FreeDeleterELi1ELb1EE5__getB7v170001Ev
PUBLIC 64aa0 0 ZNSt3__110unique_ptrIA_hN4base11FreeDeleterEE5resetB7v170001IPhEENS_9enable_ifIXsr28_CheckArrayPointerConversionIT_EE5valueEvE4typeES8_
PUBLIC 64b20 0 ZNSt3__110unique_ptrIA_hN4base11FreeDeleterEE7releaseB7v170001Ev
PUBLIC 64b60 0 ZNSt3__110unique_ptrIA_hN4base11FreeDeleterEE11get_deleterB7v170001Ev
PUBLIC 64b80 0 ZNKSt3__117__compressed_pairIPhN4base11FreeDeleterEE5firstB7v170001Ev
PUBLIC 64ba0 0 ZNSt3__117__compressed_pairIPN8crashpad11ProcessInfo6HandleENS_9allocatorIS3_EEEC2B7v170001IDnNS_18__default_init_tagEEEOT_OT0_
PUBLIC 64be0 0 ZNSt3__122__compressed_pair_elemIPN8crashpad11ProcessInfo6HandleELi0ELb0EEC2B7v170001IDnvEEOT_
PUBLIC 64c00 0 ZNSt3__122__compressed_pair_elemINS_9allocatorIN8crashpad11ProcessInfo6HandleEEELi1ELb1EEC2B7v170001ENS_18__default_init_tagE
PUBLIC 64c20 0 ZNSt3__19allocatorIN8crashpad11ProcessInfo6HandleEEC2B7v170001Ev
PUBLIC 64c40 0 ZNSt3__116__non_trivial_ifILb1ENS_9allocatorIN8crashpad11ProcessInfo6HandleEEEEC2B7v170001Ev
PUBLIC 64c50 0 ZNSt3__16vectorIN8crashpad11ProcessInfo6HandleENS_9allocatorIS3_EEE16__destroy_vectorC2B7v170001ERS6_
PUBLIC 64c70 0 ZNSt3__16vectorIN8crashpad11ProcessInfo6HandleENS_9allocatorIS3_EEE16__destroy_vectorclB7v170001Ev
PUBLIC 64cf0 0 ZNSt3__16vectorIN8crashpad11ProcessInfo6HandleENS_9allocatorIS3_EEE7__clearB7v170001Ev
PUBLIC 64d10 0 ZNKSt3__16vectorIN8crashpad11ProcessInfo6HandleENS_9allocatorIS3_EEE17__annotate_deleteB7v170001Ev
PUBLIC 64de0 0 ZNSt3__116allocator_traitsINS_9allocatorIN8crashpad11ProcessInfo6HandleEEEE10deallocateB7v170001ERS5_PS4_y
PUBLIC 64e10 0 ZNSt3__16vectorIN8crashpad11ProcessInfo6HandleENS_9allocatorIS3_EEE7__allocB7v170001Ev
PUBLIC 64e30 0 ZNKSt3__16vectorIN8crashpad11ProcessInfo6HandleENS_9allocatorIS3_EEE8capacityB7v170001Ev
PUBLIC 64e70 0 ZNSt3__16vectorIN8crashpad11ProcessInfo6HandleENS_9allocatorIS3_EEE22__base_destruct_at_endB7v170001EPS3_
PUBLIC 64f00 0 ZNSt3__116allocator_traitsINS_9allocatorIN8crashpad11ProcessInfo6HandleEEEE7destroyB7v170001IS4_vEEvRS5_PT_
PUBLIC 64f30 0 ZNSt3__112__to_addressB7v170001IN8crashpad11ProcessInfo6HandleEEEPT_S5_
PUBLIC 64f40 0 ZNSt3__19allocatorIN8crashpad11ProcessInfo6HandleEE7destroyB7v170001EPS3_
PUBLIC 64f60 0 ZNKSt3__16vectorIN8crashpad11ProcessInfo6HandleENS_9allocatorIS3_EEE31__annotate_contiguous_containerB7v170001EPKvS8_S8_S8_
PUBLIC 64f90 0 ZNKSt3__16vectorIN8crashpad11ProcessInfo6HandleENS_9allocatorIS3_EEE4dataB7v170001Ev
PUBLIC 64fb0 0 ZNKSt3__16vectorIN8crashpad11ProcessInfo6HandleENS_9allocatorIS3_EEE4sizeB7v170001Ev
PUBLIC 64fd0 0 ZNSt3__19allocatorIN8crashpad11ProcessInfo6HandleEE10deallocateB7v170001EPS3_y
PUBLIC 65020 0 ZNSt3__117__compressed_pairIPN8crashpad11ProcessInfo6HandleENS_9allocatorIS3_EEE6secondB7v170001Ev
PUBLIC 65040 0 ZNSt3__122__compressed_pair_elemINS_9allocatorIN8crashpad11ProcessInfo6HandleEEELi1ELb1EE5__getB7v170001Ev
PUBLIC 65050 0 ZNKSt3__16vectorIN8crashpad11ProcessInfo6HandleENS_9allocatorIS3_EEE9__end_capB7v170001Ev
PUBLIC 65070 0 ZNKSt3__117__compressed_pairIPN8crashpad11ProcessInfo6HandleENS_9allocatorIS3_EEE5firstB7v170001Ev
PUBLIC 65090 0 ZNKSt3__122__compressed_pair_elemIPN8crashpad11ProcessInfo6HandleELi0ELb0EE5__getB7v170001Ev
PUBLIC 650a0 0 ZN7logging17MakeCheckOpStringIyjEEPNSt3__112basic_stringIcNS1_11char_traitsIcEENS1_9allocatorIcEEEERKT_RKT0_PKc
PUBLIC 65230 0 ZNSt3__16vectorIN8crashpad11ProcessInfo6HandleENS_9allocatorIS3_EEE9__end_capB7v170001Ev
PUBLIC 65250 0 ZNSt3__16vectorIN8crashpad11ProcessInfo6HandleENS_9allocatorIS3_EEE22__construct_one_at_endB7v170001IJRKS3_EEEvDpOT_
PUBLIC 652f0 0 ZNSt3__16vectorIN8crashpad11ProcessInfo6HandleENS_9allocatorIS3_EEE21__push_back_slow_pathIRKS3_EEvOT_
PUBLIC 653e0 0 ZNSt3__117__compressed_pairIPN8crashpad11ProcessInfo6HandleENS_9allocatorIS3_EEE5firstB7v170001Ev
PUBLIC 65400 0 ZNSt3__122__compressed_pair_elemIPN8crashpad11ProcessInfo6HandleELi0ELb0EE5__getB7v170001Ev
PUBLIC 65410 0 ZNSt3__16vectorIN8crashpad11ProcessInfo6HandleENS_9allocatorIS3_EEE21_ConstructTransactionC2B7v170001ERS6_y
PUBLIC 65460 0 ZNSt3__116allocator_traitsINS_9allocatorIN8crashpad11ProcessInfo6HandleEEEE9constructB7v170001IS4_JRKS4_EvEEvRS5_PT_DpOT0_
PUBLIC 65490 0 ZNSt3__16vectorIN8crashpad11ProcessInfo6HandleENS_9allocatorIS3_EEE21_ConstructTransactionD2B7v170001Ev
PUBLIC 654b0 0 ZNSt3__19allocatorIN8crashpad11ProcessInfo6HandleEE9constructB7v170001IS3_JRKS3_EEEvPT_DpOT0_
PUBLIC 654e0 0 ZN8crashpad11ProcessInfo6HandleC2ERKS1_
PUBLIC 65530 0 ZNKSt3__16vectorIN8crashpad11ProcessInfo6HandleENS_9allocatorIS3_EEE11__recommendB7v170001Ey
PUBLIC 655d0 0 ZNSt3__114__split_bufferIN8crashpad11ProcessInfo6HandleERNS_9allocatorIS3_EEEC2EyyS6_
PUBLIC 656a0 0 ZNSt3__16vectorIN8crashpad11ProcessInfo6HandleENS_9allocatorIS3_EEE26__swap_out_circular_bufferERNS_14__split_bufferIS3_RS5_EE
PUBLIC 657f0 0 ZNSt3__114__split_bufferIN8crashpad11ProcessInfo6HandleERNS_9allocatorIS3_EEED2Ev
PUBLIC 65870 0 ZNKSt3__16vectorIN8crashpad11ProcessInfo6HandleENS_9allocatorIS3_EEE8max_sizeEv
PUBLIC 658d0 0 ZNKSt3__16vectorIN8crashpad11ProcessInfo6HandleENS_9allocatorIS3_EEE20__throw_length_errorB7v170001Ev
PUBLIC 658f0 0 ZNSt3__116allocator_traitsINS_9allocatorIN8crashpad11ProcessInfo6HandleEEEE8max_sizeB7v170001IS5_vEEyRKS5_
PUBLIC 65910 0 ZNKSt3__16vectorIN8crashpad11ProcessInfo6HandleENS_9allocatorIS3_EEE7__allocB7v170001Ev
PUBLIC 65930 0 ZNKSt3__19allocatorIN8crashpad11ProcessInfo6HandleEE8max_sizeB7v170001Ev
PUBLIC 65950 0 ZNKSt3__117__compressed_pairIPN8crashpad11ProcessInfo6HandleENS_9allocatorIS3_EEE6secondB7v170001Ev
PUBLIC 65970 0 ZNKSt3__122__compressed_pair_elemINS_9allocatorIN8crashpad11ProcessInfo6HandleEEELi1ELb1EE5__getB7v170001Ev
PUBLIC 65980 0 ZNSt3__117__compressed_pairIPN8crashpad11ProcessInfo6HandleERNS_9allocatorIS3_EEEC2B7v170001IDnS7_EEOT_OT0_
PUBLIC 659c0 0 ZNSt3__119__allocate_at_leastB7v170001INS_9allocatorIN8crashpad11ProcessInfo6HandleEEEEENS_19__allocation_resultINS_16allocator_traitsIT_E7pointerEEERS8_y
PUBLIC 65a10 0 ZNSt3__114__split_bufferIN8crashpad11ProcessInfo6HandleERNS_9allocatorIS3_EEE7__allocB7v170001Ev
PUBLIC 65a30 0 ZNSt3__114__split_bufferIN8crashpad11ProcessInfo6HandleERNS_9allocatorIS3_EEE9__end_capB7v170001Ev
PUBLIC 65a50 0 ZNSt3__122__compressed_pair_elemIRNS_9allocatorIN8crashpad11ProcessInfo6HandleEEELi1ELb0EEC2B7v170001IS6_vEEOT_
PUBLIC 65a70 0 ZNSt3__19allocatorIN8crashpad11ProcessInfo6HandleEE8allocateB7v170001Ey
PUBLIC 65ac0 0 ZNSt3__117__compressed_pairIPN8crashpad11ProcessInfo6HandleERNS_9allocatorIS3_EEE6secondB7v170001Ev
PUBLIC 65ae0 0 ZNSt3__122__compressed_pair_elemIRNS_9allocatorIN8crashpad11ProcessInfo6HandleEEELi1ELb0EE5__getB7v170001Ev
PUBLIC 65af0 0 ZNSt3__117__compressed_pairIPN8crashpad11ProcessInfo6HandleERNS_9allocatorIS3_EEE5firstB7v170001Ev
PUBLIC 65b10 0 ZNSt3__142__uninitialized_allocator_move_if_noexceptB7v170001INS_9allocatorIN8crashpad11ProcessInfo6HandleEEENS_16reverse_iteratorIPS4_EES8_S8_EET2_RT_T0_T1_S9_
PUBLIC 65cb0 0 ZNSt3__116reverse_iteratorIPN8crashpad11ProcessInfo6HandleEEC2B7v170001ES4_
PUBLIC 65ce0 0 ZNKSt3__116reverse_iteratorIPN8crashpad11ProcessInfo6HandleEE4baseB7v170001Ev
PUBLIC 65cf0 0 ZNSt3__14swapB7v170001IPN8crashpad11ProcessInfo6HandleEEENS_9enable_ifIXaasr21is_move_constructibleIT_EE5valuesr18is_move_assignableIS6_EE5valueEvE4typeERS6_S9_
PUBLIC 65d30 0 ZNKSt3__16vectorIN8crashpad11ProcessInfo6HandleENS_9allocatorIS3_EEE14__annotate_newB7v170001Ey
PUBLIC 65df0 0 ZNSt3__122__make_exception_guardB7v170001INS_29_AllocatorDestroyRangeReverseINS_9allocatorIN8crashpad11ProcessInfo6HandleEEENS_16reverse_iteratorIPS5_EEEEEENS_28__exception_guard_exceptionsIT_EESC_
PUBLIC 65e40 0 ZNSt3__129_AllocatorDestroyRangeReverseINS_9allocatorIN8crashpad11ProcessInfo6HandleEEENS_16reverse_iteratorIPS4_EEEC2B7v170001ERS5_RS8_SB_
PUBLIC 65e80 0 ZNSt3__1neB7v170001IPN8crashpad11ProcessInfo6HandleES4_EEbRKNS_16reverse_iteratorIT_EERKNS5_IT0_EE
PUBLIC 65ec0 0 ZNSt3__112__to_addressB7v170001INS_16reverse_iteratorIPN8crashpad11ProcessInfo6HandleEEEvEEu7__decayIDTclsr19__to_address_helperIT_EE6__callclsr3stdE7declvalIRKS7_EEEEES9_
PUBLIC 65ee0 0 ZNKSt3__116reverse_iteratorIPN8crashpad11ProcessInfo6HandleEEdeB7v170001Ev
PUBLIC 65f10 0 ZNSt3__116reverse_iteratorIPN8crashpad11ProcessInfo6HandleEEppB7v170001Ev
PUBLIC 65f30 0 ZNSt3__128__exception_guard_exceptionsINS_29_AllocatorDestroyRangeReverseINS_9allocatorIN8crashpad11ProcessInfo6HandleEEENS_16reverse_iteratorIPS5_EEEEE10__completeB7v170001Ev
PUBLIC 65f40 0 ZNSt3__128__exception_guard_exceptionsINS_29_AllocatorDestroyRangeReverseINS_9allocatorIN8crashpad11ProcessInfo6HandleEEENS_16reverse_iteratorIPS5_EEEEED2B7v170001Ev
PUBLIC 65f80 0 ZNSt3__128__exception_guard_exceptionsINS_29_AllocatorDestroyRangeReverseINS_9allocatorIN8crashpad11ProcessInfo6HandleEEENS_16reverse_iteratorIPS5_EEEEEC2B7v170001ESA_
PUBLIC 65fc0 0 ZNSt3__119__to_address_helperINS_16reverse_iteratorIPN8crashpad11ProcessInfo6HandleEEEvE6__callB7v170001ERKS6_
PUBLIC 66000 0 ZNKSt3__116reverse_iteratorIPN8crashpad11ProcessInfo6HandleEEptB7v170001Ev
PUBLIC 66020 0 ZNKSt3__129_AllocatorDestroyRangeReverseINS_9allocatorIN8crashpad11ProcessInfo6HandleEEENS_16reverse_iteratorIPS4_EEEclB7v170001Ev
PUBLIC 660b0 0 ZNSt3__119__allocator_destroyB7v170001INS_9allocatorIN8crashpad11ProcessInfo6HandleEEENS_16reverse_iteratorINS6_IPS4_EEEES9_EEvRT_T0_T1_
PUBLIC 66120 0 ZNSt3__116reverse_iteratorINS0_IPN8crashpad11ProcessInfo6HandleEEEEC2B7v170001ES5_
PUBLIC 66160 0 ZNSt3__1neB7v170001INS_16reverse_iteratorIPN8crashpad11ProcessInfo6HandleEEES6_EEbRKNS1_IT_EERKNS1_IT0_EE
PUBLIC 661b0 0 ZNSt3__112__to_addressB7v170001INS_16reverse_iteratorINS1_IPN8crashpad11ProcessInfo6HandleEEEEEvEEu7__decayIDTclsr19__to_address_helperIT_EE6__callclsr3stdE7declvalIRKS8_EEEEESA_
PUBLIC 661d0 0 ZNSt3__116reverse_iteratorINS0_IPN8crashpad11ProcessInfo6HandleEEEEppB7v170001Ev
PUBLIC 66200 0 ZNKSt3__116reverse_iteratorINS0_IPN8crashpad11ProcessInfo6HandleEEEE4baseB7v170001Ev
PUBLIC 66230 0 ZNSt3__119__to_address_helperINS_16reverse_iteratorINS1_IPN8crashpad11ProcessInfo6HandleEEEEEvE6__callB7v170001ERKS7_
PUBLIC 66270 0 ZNKSt3__116reverse_iteratorINS0_IPN8crashpad11ProcessInfo6HandleEEEEptB7v170001Ev
PUBLIC 66290 0 ZNKSt3__116reverse_iteratorINS0_IPN8crashpad11ProcessInfo6HandleEEEEdeB7v170001Ev
PUBLIC 662d0 0 ZNSt3__116reverse_iteratorIPN8crashpad11ProcessInfo6HandleEEmmB7v170001Ev
PUBLIC 662f0 0 ZNSt3__114__split_bufferIN8crashpad11ProcessInfo6HandleERNS_9allocatorIS3_EEE5clearB7v170001Ev
PUBLIC 66310 0 ZNKSt3__114__split_bufferIN8crashpad11ProcessInfo6HandleERNS_9allocatorIS3_EEE8capacityB7v170001Ev
PUBLIC 66350 0 ZNSt3__114__split_bufferIN8crashpad11ProcessInfo6HandleERNS_9allocatorIS3_EEE17__destruct_at_endB7v170001EPS3_
PUBLIC 66380 0 ZNSt3__114__split_bufferIN8crashpad11ProcessInfo6HandleERNS_9allocatorIS3_EEE17__destruct_at_endB7v170001EPS3_NS_17integral_constantIbLb0EEE
PUBLIC 66400 0 ZNKSt3__114__split_bufferIN8crashpad11ProcessInfo6HandleERNS_9allocatorIS3_EEE9__end_capB7v170001Ev
PUBLIC 66420 0 ZNKSt3__117__compressed_pairIPN8crashpad11ProcessInfo6HandleERNS_9allocatorIS3_EEE5firstB7v170001Ev
PUBLIC 66440 0 ZNSt3__117__compressed_pairIPN8crashpad11ProcessInfo6ModuleENS_9allocatorIS3_EEEC2B7v170001IDnNS_18__default_init_tagEEEOT_OT0_
PUBLIC 66480 0 ZNSt3__122__compressed_pair_elemIPN8crashpad11ProcessInfo6ModuleELi0ELb0EEC2B7v170001IDnvEEOT_
PUBLIC 664a0 0 ZNSt3__122__compressed_pair_elemINS_9allocatorIN8crashpad11ProcessInfo6ModuleEEELi1ELb1EEC2B7v170001ENS_18__default_init_tagE
PUBLIC 664c0 0 ZNSt3__19allocatorIN8crashpad11ProcessInfo6ModuleEEC2B7v170001Ev
PUBLIC 664e0 0 ZNSt3__116__non_trivial_ifILb1ENS_9allocatorIN8crashpad11ProcessInfo6ModuleEEEEC2B7v170001Ev
PUBLIC 664f0 0 ZNSt3__117__compressed_pairIP27_MEMORY_BASIC_INFORMATION64N8crashpad16AlignedAllocatorIS1_Ly16EEEEC2B7v170001IDnNS_18__default_init_tagEEEOT_OT0_
PUBLIC 66530 0 ZNSt3__122__compressed_pair_elemIN8crashpad16AlignedAllocatorI27_MEMORY_BASIC_INFORMATION64Ly16EEELi1ELb1EEC2B7v170001ENS_18__default_init_tagE
PUBLIC 66550 0 ZN8crashpad16AlignedAllocatorI27_MEMORY_BASIC_INFORMATION64Ly16EEC2Ev
PUBLIC 66560 0 ZNSt3__16vectorIN8crashpad11ProcessInfo6ModuleENS_9allocatorIS3_EEE16__destroy_vectorC2B7v170001ERS6_
PUBLIC 66580 0 ZNSt3__16vectorIN8crashpad11ProcessInfo6ModuleENS_9allocatorIS3_EEE16__destroy_vectorclB7v170001Ev
PUBLIC 66600 0 ZNSt3__16vectorIN8crashpad11ProcessInfo6ModuleENS_9allocatorIS3_EEE7__clearB7v170001Ev
PUBLIC 66620 0 ZNKSt3__16vectorIN8crashpad11ProcessInfo6ModuleENS_9allocatorIS3_EEE17__annotate_deleteB7v170001Ev
PUBLIC 666f0 0 ZNSt3__116allocator_traitsINS_9allocatorIN8crashpad11ProcessInfo6ModuleEEEE10deallocateB7v170001ERS5_PS4_y
PUBLIC 66720 0 ZNSt3__16vectorIN8crashpad11ProcessInfo6ModuleENS_9allocatorIS3_EEE7__allocB7v170001Ev
PUBLIC 66740 0 ZNKSt3__16vectorIN8crashpad11ProcessInfo6ModuleENS_9allocatorIS3_EEE8capacityB7v170001Ev
PUBLIC 66780 0 ZNSt3__16vectorIN8crashpad11ProcessInfo6ModuleENS_9allocatorIS3_EEE22__base_destruct_at_endB7v170001EPS3_
PUBLIC 66810 0 ZNSt3__116allocator_traitsINS_9allocatorIN8crashpad11ProcessInfo6ModuleEEEE7destroyB7v170001IS4_vEEvRS5_PT_
PUBLIC 66840 0 ZNSt3__112__to_addressB7v170001IN8crashpad11ProcessInfo6ModuleEEEPT_S5_
PUBLIC 66850 0 ZNSt3__19allocatorIN8crashpad11ProcessInfo6ModuleEE7destroyB7v170001EPS3_
PUBLIC 66870 0 ZNKSt3__16vectorIN8crashpad11ProcessInfo6ModuleENS_9allocatorIS3_EEE31__annotate_contiguous_containerB7v170001EPKvS8_S8_S8_
PUBLIC 668a0 0 ZNKSt3__16vectorIN8crashpad11ProcessInfo6ModuleENS_9allocatorIS3_EEE4dataB7v170001Ev
PUBLIC 668c0 0 ZNKSt3__16vectorIN8crashpad11ProcessInfo6ModuleENS_9allocatorIS3_EEE4sizeB7v170001Ev
PUBLIC 668e0 0 ZNSt3__19allocatorIN8crashpad11ProcessInfo6ModuleEE10deallocateB7v170001EPS3_y
PUBLIC 66930 0 ZNSt3__117__compressed_pairIPN8crashpad11ProcessInfo6ModuleENS_9allocatorIS3_EEE6secondB7v170001Ev
PUBLIC 66950 0 ZNSt3__122__compressed_pair_elemINS_9allocatorIN8crashpad11ProcessInfo6ModuleEEELi1ELb1EE5__getB7v170001Ev
PUBLIC 66960 0 ZNKSt3__16vectorIN8crashpad11ProcessInfo6ModuleENS_9allocatorIS3_EEE9__end_capB7v170001Ev
PUBLIC 66980 0 ZNKSt3__117__compressed_pairIPN8crashpad11ProcessInfo6ModuleENS_9allocatorIS3_EEE5firstB7v170001Ev
PUBLIC 669a0 0 ZNKSt3__122__compressed_pair_elemIPN8crashpad11ProcessInfo6ModuleELi0ELb0EE5__getB7v170001Ev
PUBLIC 669b0 0 ZNSt3__16vectorI27_MEMORY_BASIC_INFORMATION64N8crashpad16AlignedAllocatorIS1_Ly16EEEE16__destroy_vectorC2B7v170001ERS5_
PUBLIC 669d0 0 ZNSt3__16vectorI27_MEMORY_BASIC_INFORMATION64N8crashpad16AlignedAllocatorIS1_Ly16EEEE16__destroy_vectorclB7v170001Ev
PUBLIC 66a50 0 ZNSt3__117__compressed_pairIP27_MEMORY_BASIC_INFORMATION64N8crashpad16AlignedAllocatorIS1_Ly16EEEED2Ev
PUBLIC 66a70 0 ZNSt3__16vectorI27_MEMORY_BASIC_INFORMATION64N8crashpad16AlignedAllocatorIS1_Ly16EEEE7__clearB7v170001Ev
PUBLIC 66a90 0 ZNSt3__16vectorI27_MEMORY_BASIC_INFORMATION64N8crashpad16AlignedAllocatorIS1_Ly16EEEE22__base_destruct_at_endB7v170001EPS1_
PUBLIC 66b20 0 ZNSt3__122__compressed_pair_elemIN8crashpad16AlignedAllocatorI27_MEMORY_BASIC_INFORMATION64Ly16EEELi1ELb1EED2Ev
PUBLIC 66b40 0 ZN8crashpad16AlignedAllocatorI27_MEMORY_BASIC_INFORMATION64Ly16EED2Ev
PUBLIC 66b50 0 ZN8crashpad8internal11GetFunctionIFlPv17_PROCESSINFOCLASSS2_mPmEEEPT_PKwPKcb
PUBLIC 66b90 0 ZN8crashpad15AssignIfInRangeIyyEEbPT_T0_
PUBLIC 66be0 0 ZNSt3__16vectorIN8crashpad11ProcessInfo6ModuleENS_9allocatorIS3_EEE9push_backB7v170001ERKS3_
PUBLIC 66c40 0 ZN4base8internal28IsValueInRangeForNumericTypeIyyEEbT0_
PUBLIC 66c70 0 ZN4base8internal26DstRangeRelationToSrcRangeIyNSt3__114numeric_limitsEyEENS0_10RangeCheckET1_
PUBLIC 66ca0 0 ZN4base8internal30DstRangeRelationToSrcRangeImplIyyNSt3__114numeric_limitsELNS0_21IntegerRepresentationE0ELS4_0ELNS0_26NumericRangeRepresentationE1EE5CheckEy
PUBLIC 66cd0 0 ZNSt3__112basic_stringIwNS_11char_traitsIwEENS_9allocatorIwEEE5clearB7v170001Ev
PUBLIC 66d60 0 ZNSt3__16vectorIN8crashpad11ProcessInfo6ModuleENS_9allocatorIS3_EEE9__end_capB7v170001Ev
PUBLIC 66d80 0 ZNSt3__16vectorIN8crashpad11ProcessInfo6ModuleENS_9allocatorIS3_EEE22__construct_one_at_endB7v170001IJRKS3_EEEvDpOT_
PUBLIC 66e20 0 ZNSt3__16vectorIN8crashpad11ProcessInfo6ModuleENS_9allocatorIS3_EEE21__push_back_slow_pathIRKS3_EEvOT_
PUBLIC 66f10 0 ZNSt3__117__compressed_pairIPN8crashpad11ProcessInfo6ModuleENS_9allocatorIS3_EEE5firstB7v170001Ev
PUBLIC 66f30 0 ZNSt3__122__compressed_pair_elemIPN8crashpad11ProcessInfo6ModuleELi0ELb0EE5__getB7v170001Ev
PUBLIC 66f40 0 ZNSt3__16vectorIN8crashpad11ProcessInfo6ModuleENS_9allocatorIS3_EEE21_ConstructTransactionC2B7v170001ERS6_y
PUBLIC 66f90 0 ZNSt3__116allocator_traitsINS_9allocatorIN8crashpad11ProcessInfo6ModuleEEEE9constructB7v170001IS4_JRKS4_EvEEvRS5_PT_DpOT0_
PUBLIC 66fc0 0 ZNSt3__16vectorIN8crashpad11ProcessInfo6ModuleENS_9allocatorIS3_EEE21_ConstructTransactionD2B7v170001Ev
PUBLIC 66fe0 0 ZNSt3__19allocatorIN8crashpad11ProcessInfo6ModuleEE9constructB7v170001IS3_JRKS3_EEEvPT_DpOT0_
PUBLIC 67010 0 ZN8crashpad11ProcessInfo6ModuleC2ERKS1_
PUBLIC 67060 0 ZNKSt3__16vectorIN8crashpad11ProcessInfo6ModuleENS_9allocatorIS3_EEE11__recommendB7v170001Ey
PUBLIC 67100 0 ZNSt3__114__split_bufferIN8crashpad11ProcessInfo6ModuleERNS_9allocatorIS3_EEEC2EyyS6_
PUBLIC 671d0 0 ZNSt3__16vectorIN8crashpad11ProcessInfo6ModuleENS_9allocatorIS3_EEE26__swap_out_circular_bufferERNS_14__split_bufferIS3_RS5_EE
PUBLIC 67320 0 ZNSt3__114__split_bufferIN8crashpad11ProcessInfo6ModuleERNS_9allocatorIS3_EEED2Ev
PUBLIC 673a0 0 ZNKSt3__16vectorIN8crashpad11ProcessInfo6ModuleENS_9allocatorIS3_EEE8max_sizeEv
PUBLIC 67400 0 ZNKSt3__16vectorIN8crashpad11ProcessInfo6ModuleENS_9allocatorIS3_EEE20__throw_length_errorB7v170001Ev
PUBLIC 67420 0 ZNSt3__116allocator_traitsINS_9allocatorIN8crashpad11ProcessInfo6ModuleEEEE8max_sizeB7v170001IS5_vEEyRKS5_
PUBLIC 67440 0 ZNKSt3__16vectorIN8crashpad11ProcessInfo6ModuleENS_9allocatorIS3_EEE7__allocB7v170001Ev
PUBLIC 67460 0 ZNKSt3__19allocatorIN8crashpad11ProcessInfo6ModuleEE8max_sizeB7v170001Ev
PUBLIC 67480 0 ZNKSt3__117__compressed_pairIPN8crashpad11ProcessInfo6ModuleENS_9allocatorIS3_EEE6secondB7v170001Ev
PUBLIC 674a0 0 ZNKSt3__122__compressed_pair_elemINS_9allocatorIN8crashpad11ProcessInfo6ModuleEEELi1ELb1EE5__getB7v170001Ev
PUBLIC 674b0 0 ZNSt3__117__compressed_pairIPN8crashpad11ProcessInfo6ModuleERNS_9allocatorIS3_EEEC2B7v170001IDnS7_EEOT_OT0_
PUBLIC 674f0 0 ZNSt3__119__allocate_at_leastB7v170001INS_9allocatorIN8crashpad11ProcessInfo6ModuleEEEEENS_19__allocation_resultINS_16allocator_traitsIT_E7pointerEEERS8_y
PUBLIC 67540 0 ZNSt3__114__split_bufferIN8crashpad11ProcessInfo6ModuleERNS_9allocatorIS3_EEE7__allocB7v170001Ev
PUBLIC 67560 0 ZNSt3__114__split_bufferIN8crashpad11ProcessInfo6ModuleERNS_9allocatorIS3_EEE9__end_capB7v170001Ev
PUBLIC 67580 0 ZNSt3__122__compressed_pair_elemIRNS_9allocatorIN8crashpad11ProcessInfo6ModuleEEELi1ELb0EEC2B7v170001IS6_vEEOT_
PUBLIC 675a0 0 ZNSt3__19allocatorIN8crashpad11ProcessInfo6ModuleEE8allocateB7v170001Ey
PUBLIC 675f0 0 ZNSt3__117__compressed_pairIPN8crashpad11ProcessInfo6ModuleERNS_9allocatorIS3_EEE6secondB7v170001Ev
PUBLIC 67610 0 ZNSt3__122__compressed_pair_elemIRNS_9allocatorIN8crashpad11ProcessInfo6ModuleEEELi1ELb0EE5__getB7v170001Ev
PUBLIC 67620 0 ZNSt3__117__compressed_pairIPN8crashpad11ProcessInfo6ModuleERNS_9allocatorIS3_EEE5firstB7v170001Ev
PUBLIC 67640 0 ZNSt3__142__uninitialized_allocator_move_if_noexceptB7v170001INS_9allocatorIN8crashpad11ProcessInfo6ModuleEEENS_16reverse_iteratorIPS4_EES8_S8_EET2_RT_T0_T1_S9_
PUBLIC 677e0 0 ZNSt3__116reverse_iteratorIPN8crashpad11ProcessInfo6ModuleEEC2B7v170001ES4_
PUBLIC 67810 0 ZNKSt3__116reverse_iteratorIPN8crashpad11ProcessInfo6ModuleEE4baseB7v170001Ev
PUBLIC 67820 0 ZNSt3__14swapB7v170001IPN8crashpad11ProcessInfo6ModuleEEENS_9enable_ifIXaasr21is_move_constructibleIT_EE5valuesr18is_move_assignableIS6_EE5valueEvE4typeERS6_S9_
PUBLIC 67860 0 ZNKSt3__16vectorIN8crashpad11ProcessInfo6ModuleENS_9allocatorIS3_EEE14__annotate_newB7v170001Ey
PUBLIC 67920 0 ZNSt3__122__make_exception_guardB7v170001INS_29_AllocatorDestroyRangeReverseINS_9allocatorIN8crashpad11ProcessInfo6ModuleEEENS_16reverse_iteratorIPS5_EEEEEENS_28__exception_guard_exceptionsIT_EESC_
PUBLIC 67970 0 ZNSt3__129_AllocatorDestroyRangeReverseINS_9allocatorIN8crashpad11ProcessInfo6ModuleEEENS_16reverse_iteratorIPS4_EEEC2B7v170001ERS5_RS8_SB_
PUBLIC 679b0 0 ZNSt3__1neB7v170001IPN8crashpad11ProcessInfo6ModuleES4_EEbRKNS_16reverse_iteratorIT_EERKNS5_IT0_EE
PUBLIC 679f0 0 ZNSt3__112__to_addressB7v170001INS_16reverse_iteratorIPN8crashpad11ProcessInfo6ModuleEEEvEEu7__decayIDTclsr19__to_address_helperIT_EE6__callclsr3stdE7declvalIRKS7_EEEEES9_
PUBLIC 67a10 0 ZNKSt3__116reverse_iteratorIPN8crashpad11ProcessInfo6ModuleEEdeB7v170001Ev
PUBLIC 67a40 0 ZNSt3__116reverse_iteratorIPN8crashpad11ProcessInfo6ModuleEEppB7v170001Ev
PUBLIC 67a60 0 ZNSt3__128__exception_guard_exceptionsINS_29_AllocatorDestroyRangeReverseINS_9allocatorIN8crashpad11ProcessInfo6ModuleEEENS_16reverse_iteratorIPS5_EEEEE10__completeB7v170001Ev
PUBLIC 67a70 0 ZNSt3__128__exception_guard_exceptionsINS_29_AllocatorDestroyRangeReverseINS_9allocatorIN8crashpad11ProcessInfo6ModuleEEENS_16reverse_iteratorIPS5_EEEEED2B7v170001Ev
PUBLIC 67ab0 0 ZNSt3__128__exception_guard_exceptionsINS_29_AllocatorDestroyRangeReverseINS_9allocatorIN8crashpad11ProcessInfo6ModuleEEENS_16reverse_iteratorIPS5_EEEEEC2B7v170001ESA_
PUBLIC 67af0 0 ZNSt3__119__to_address_helperINS_16reverse_iteratorIPN8crashpad11ProcessInfo6ModuleEEEvE6__callB7v170001ERKS6_
PUBLIC 67b30 0 ZNKSt3__116reverse_iteratorIPN8crashpad11ProcessInfo6ModuleEEptB7v170001Ev
PUBLIC 67b50 0 ZNKSt3__129_AllocatorDestroyRangeReverseINS_9allocatorIN8crashpad11ProcessInfo6ModuleEEENS_16reverse_iteratorIPS4_EEEclB7v170001Ev
PUBLIC 67be0 0 ZNSt3__119__allocator_destroyB7v170001INS_9allocatorIN8crashpad11ProcessInfo6ModuleEEENS_16reverse_iteratorINS6_IPS4_EEEES9_EEvRT_T0_T1_
PUBLIC 67c50 0 ZNSt3__116reverse_iteratorINS0_IPN8crashpad11ProcessInfo6ModuleEEEEC2B7v170001ES5_
PUBLIC 67c90 0 ZNSt3__1neB7v170001INS_16reverse_iteratorIPN8crashpad11ProcessInfo6ModuleEEES6_EEbRKNS1_IT_EERKNS1_IT0_EE
PUBLIC 67ce0 0 ZNSt3__112__to_addressB7v170001INS_16reverse_iteratorINS1_IPN8crashpad11ProcessInfo6ModuleEEEEEvEEu7__decayIDTclsr19__to_address_helperIT_EE6__callclsr3stdE7declvalIRKS8_EEEEESA_
PUBLIC 67d00 0 ZNSt3__116reverse_iteratorINS0_IPN8crashpad11ProcessInfo6ModuleEEEEppB7v170001Ev
PUBLIC 67d30 0 ZNKSt3__116reverse_iteratorINS0_IPN8crashpad11ProcessInfo6ModuleEEEE4baseB7v170001Ev
PUBLIC 67d60 0 ZNSt3__119__to_address_helperINS_16reverse_iteratorINS1_IPN8crashpad11ProcessInfo6ModuleEEEEEvE6__callB7v170001ERKS7_
PUBLIC 67da0 0 ZNKSt3__116reverse_iteratorINS0_IPN8crashpad11ProcessInfo6ModuleEEEEptB7v170001Ev
PUBLIC 67dc0 0 ZNKSt3__116reverse_iteratorINS0_IPN8crashpad11ProcessInfo6ModuleEEEEdeB7v170001Ev
PUBLIC 67e00 0 ZNSt3__116reverse_iteratorIPN8crashpad11ProcessInfo6ModuleEEmmB7v170001Ev
PUBLIC 67e20 0 ZNSt3__114__split_bufferIN8crashpad11ProcessInfo6ModuleERNS_9allocatorIS3_EEE5clearB7v170001Ev
PUBLIC 67e40 0 ZNKSt3__114__split_bufferIN8crashpad11ProcessInfo6ModuleERNS_9allocatorIS3_EEE8capacityB7v170001Ev
PUBLIC 67e80 0 ZNSt3__114__split_bufferIN8crashpad11ProcessInfo6ModuleERNS_9allocatorIS3_EEE17__destruct_at_endB7v170001EPS3_
PUBLIC 67eb0 0 ZNSt3__114__split_bufferIN8crashpad11ProcessInfo6ModuleERNS_9allocatorIS3_EEE17__destruct_at_endB7v170001EPS3_NS_17integral_constantIbLb0EEE
PUBLIC 67f30 0 ZNKSt3__114__split_bufferIN8crashpad11ProcessInfo6ModuleERNS_9allocatorIS3_EEE9__end_capB7v170001Ev
PUBLIC 67f50 0 ZNKSt3__117__compressed_pairIPN8crashpad11ProcessInfo6ModuleERNS_9allocatorIS3_EEE5firstB7v170001Ev
PUBLIC 67f70 0 ZN8crashpad15AssignIfInRangeImyEEbPT_T0_
PUBLIC 67fc0 0 ZN4base8internal28IsValueInRangeForNumericTypeImyEEbT0_
PUBLIC 67ff0 0 ZN4base8internal26DstRangeRelationToSrcRangeImNSt3__114numeric_limitsEyEENS0_10RangeCheckET1_
PUBLIC 68020 0 ZN4base8internal30DstRangeRelationToSrcRangeImplImyNSt3__114numeric_limitsELNS0_21IntegerRepresentationE0ELS4_0ELNS0_26NumericRangeRepresentationE0EE5CheckEy
PUBLIC 68070 0 ZN4base8internal14NarrowingRangeImyNSt3__114numeric_limitsEE3maxEv
PUBLIC 68090 0 ZN4base8internal14NarrowingRangeImyNSt3__114numeric_limitsEE6AdjustImLPv0EEET_S7_
PUBLIC 680d0 0 ZNSt3__114numeric_limitsImE3maxB7v170001Ev
PUBLIC 680e0 0 ZN4base8internal17ConditionalNegateImEENSt3__111make_signedIT_E4typeES4_b
PUBLIC 68110 0 ZN4base8internal15SafeUnsignedAbsImEENSt3__113make_unsignedIT_E4typeES4_
PUBLIC 68150 0 ZN4base8internal15IsValueNegativeImLPv0EEEbT_
PUBLIC 68160 0 ZNSt3__123__libcpp_numeric_limitsImLb1EE3maxB7v170001Ev
PUBLIC 68170 0 ZNSt3__16vectorIN8crashpad11ProcessInfo6ModuleENS_9allocatorIS3_EEE19__copy_assign_allocB7v170001ERKS6_
PUBLIC 681a0 0 ZNSt3__16vectorIN8crashpad11ProcessInfo6ModuleENS_9allocatorIS3_EEE6assignIPS3_Li0EEEvT_S9_
PUBLIC 68200 0 ZNSt3__16vectorIN8crashpad11ProcessInfo6ModuleENS_9allocatorIS3_EEE19__copy_assign_allocB7v170001ERKS6_NS_17integral_constantIbLb0EEE
PUBLIC 68220 0 ZNSt3__16vectorIN8crashpad11ProcessInfo6ModuleENS_9allocatorIS3_EEE18__assign_with_sizeB7v170001IPS3_S8_EEvT_T0_x
PUBLIC 683e0 0 ZNSt3__18distanceB7v170001IPN8crashpad11ProcessInfo6ModuleEEENS_15iterator_traitsIT_E15difference_typeES6_S6_
PUBLIC 68410 0 ZNSt3__14nextB7v170001IPN8crashpad11ProcessInfo6ModuleEEENS_9enable_ifIXsr29__has_input_iterator_categoryIT_EE5valueES6_E4typeES6_NS_15iterator_traitsIS6_E15difference_typeE
PUBLIC 68440 0 ZNSt3__14copyB7v170001IPN8crashpad11ProcessInfo6ModuleES4_EET0_T_S6_S5_
PUBLIC 68480 0 ZNSt3__16vectorIN8crashpad11ProcessInfo6ModuleENS_9allocatorIS3_EEE18__construct_at_endIPS3_S8_EEvT_T0_y
PUBLIC 68520 0 ZNSt3__16__copyB7v170001INS_17_ClassicAlgPolicyEPN8crashpad11ProcessInfo6ModuleES5_S5_EENS_4pairIT0_T2_EES7_T1_S8_
PUBLIC 68560 0 ZNSt3__16vectorIN8crashpad11ProcessInfo6ModuleENS_9allocatorIS3_EEE17__destruct_at_endB7v170001EPS3_
PUBLIC 685b0 0 ZNSt3__16vectorIN8crashpad11ProcessInfo6ModuleENS_9allocatorIS3_EEE13__vdeallocateEv
PUBLIC 68650 0 ZNSt3__16vectorIN8crashpad11ProcessInfo6ModuleENS_9allocatorIS3_EEE11__vallocateB7v170001Ey
PUBLIC 68700 0 ZNSt3__17advanceB7v170001IPN8crashpad11ProcessInfo6ModuleExxvEEvRT_T0_
PUBLIC 68740 0 ZNSt3__19__advanceB7v170001IPN8crashpad11ProcessInfo6ModuleEEEvRT_NS_15iterator_traitsIS5_E15difference_typeENS_26random_access_iterator_tagE
PUBLIC 68770 0 ZNSt3__130__uninitialized_allocator_copyB7v170001INS_9allocatorIN8crashpad11ProcessInfo6ModuleEEEPS4_S6_S6_EET2_RT_T0_T1_S7_
PUBLIC 68800 0 ZNSt3__114__unwrap_rangeB7v170001IPN8crashpad11ProcessInfo6ModuleES4_EENS_4pairIT0_S6_EET_S8_
